
kernel.elf:     file format elf32-littlearm

SYMBOL TABLE:
00008000 l    d  .init	00000000 .init
0000805c l    d  .text	00000000 .text
00008f08 l    d  .data	00000000 .data
00000000 l    d  .debug_info	00000000 .debug_info
00000000 l    d  .debug_abbrev	00000000 .debug_abbrev
00000000 l    d  .debug_aranges	00000000 .debug_aranges
00000000 l    d  .debug_line	00000000 .debug_line
00000000 l    d  .debug_str	00000000 .debug_str
00000000 l    d  .comment	00000000 .comment
00000000 l    d  .ARM.attributes	00000000 .ARM.attributes
00000000 l    d  .debug_frame	00000000 .debug_frame
00000000 l    d  .debug_ranges	00000000 .debug_ranges
00000000 l    df *ABS*	00000000 boot.o
3f000000 l       *ABS*	00000000 PERIPH_BASE
3f200000 l       *ABS*	00000000 GPIO_BASE
3f200000 l       *ABS*	00000000 GPFSEL0
3f200004 l       *ABS*	00000000 GPFSEL1
3f200008 l       *ABS*	00000000 GPFSEL2
3f20000c l       *ABS*	00000000 GPFSEL3
3f200010 l       *ABS*	00000000 GPFSEL4
3f200014 l       *ABS*	00000000 GPFSEL5
3f20001c l       *ABS*	00000000 GPSET0
3f200020 l       *ABS*	00000000 GPSET1
3f200028 l       *ABS*	00000000 GPCLR0
3f20002c l       *ABS*	00000000 GPCLR1
3f200034 l       *ABS*	00000000 GPLEV0
3f200038 l       *ABS*	00000000 GPLEV1
3f200040 l       *ABS*	00000000 GPEDS0
3f200044 l       *ABS*	00000000 GPEDS1
3f20004c l       *ABS*	00000000 GPREN0
3f200050 l       *ABS*	00000000 GPREN1
3f200058 l       *ABS*	00000000 GPFEN0
3f20005c l       *ABS*	00000000 GPFEN1
3f200064 l       *ABS*	00000000 GPHEN0
3f200068 l       *ABS*	00000000 GPHEN1
3f200070 l       *ABS*	00000000 GPLEN0
3f200074 l       *ABS*	00000000 GPLEN1
3f20007c l       *ABS*	00000000 GPAREN0
3f200080 l       *ABS*	00000000 GPAREN1
3f200088 l       *ABS*	00000000 GPAFEN0
3f20008c l       *ABS*	00000000 GPAFEN1
3f200094 l       *ABS*	00000000 GPPUD
3f200098 l       *ABS*	00000000 GPPUDCLK0
3f20009c l       *ABS*	00000000 GPPUDCLK1
00004e21 l       *ABS*	00000000 PERIODO_PWM
00004e21 l       *ABS*	00000000 MAXIMO_PERIODO_ALTO_PWM
0000d001 l       *ABS*	00000000 PERIODICIDADE_TRIGER
0000802c l       .init	00000000 continua
00008040 l       .init	00000000 core0
00008038 l       .init	00000000 trava
00008bc4 l       .text	00000000 main_codigo
00008bac l       .text	00000000 disable
00008c3c l       .text	00000000 escuta
00008c54 l       .text	00000000 nao_tempo_igual_a_r1
00008c50 l       .text	00000000 tempo_igual_a_r1
00008de8 l       .text	00000000 faz_borda_pwm_e_atualiza_r1
00008c6c l       .text	00000000 nao_tempo_igual_a_r2
00008c68 l       .text	00000000 tempo_igual_a_r2
00008e28 l       .text	00000000 faz_borda_pwm_e_atualiza_r2
00008d08 l       .text	00000000 nao_ativou_20
00008ec8 l       .text	00000000 delay_igor
00008ce4 l       .text	00000000 ativou_20
00008d08 l       .text	00000000 tem_1_
00008d04 l       .text	00000000 tem_0_
00008de4 l       .text	00000000 nao_desativou_20
00008d60 l       .text	00000000 desativou_20
00008db8 l       .text	00000000 sem_bo
00008db0 l       .text	00000000 com_bo
00008de4 l       .text	00000000 desativou_mas_valor_estourou
00008ddc l       .text	00000000 tem_1
00008dd0 l       .text	00000000 tem_0
00008e18 l       .text	00000000 faz_borda_pwm_e_atualiza_r1_apagar
00008e80 l       .text	00000000 acende_21
00008e20 l       .text	00000000 faz_borda_pwm_e_atualiza_r1_fim
00008e68 l       .text	00000000 apaga_21
00008e58 l       .text	00000000 faz_borda_pwm_e_atualiza_r2_apagar
00008eb0 l       .text	00000000 acende_26
00008e60 l       .text	00000000 faz_borda_pwm_e_atualiza_r2_fim
00008e98 l       .text	00000000 apaga_26
00008ed0 l       .text	00000000 delay_loop
00000000 l    df *ABS*	00000000 main.c
00008bbc g       .text	00000000 get_cpsr
00008b94 g       .text	00000000 enable_irq
00008f08 g     O .data	00000008 msg
00008328 g     F .text	00000078 periodo_alto_pwm_em_micro_segundos_dado_angulo
00008274 g     F .text	00000050 uart_puts
00008f08 g       .data	00000000 data_begin
0000805c g     F .text	000001c8 uart_init
00008f40 g       .data	00000000 bss_end
000082c4 g     F .text	00000044 uart_getc
00008f10 g     O .data	00000030 vetor_medida_3
00008224 g     F .text	00000050 uart_putc
00008b88 g       .text	00000000 delay
00008308 g     F .text	00000020 printa_oi
00008f08 g       .data	00000000 rodata_end
00008f08 g       .data	00000000 rodata_begin
000083a0 g     F .text	00000068 distancia_em_mm_dada_duracao_echo
00008000 g       .init	00000000 start
00008f40 g       .data	00000000 bss_begin
00008408 g     F .text	00000780 controle


Contents of section .init:
 8000 00000fe1 1f0000e2 1a0050e3 0600001a  ..........P.....
 8010 00000fe1 1f00c0e3 130080e3 00f06fe1  ..............o.
 8020 04e08fe2 0ef32ee1 6e0060e1 b00f10ee  ........n.`.....
 8030 ff0010e2 0100000a 02f020e3 fdffffea  .......... .....
 8040 d200a0e3 00f021e1 01d9a0e3 d300a0e3  ......!.........
 8050 00f021e1 02d9a0e3 d90200ea           ..!.........    
Contents of section .text:
 805c 00482de9 04b08de2 08d04de2 103f08e3  .H-.......M..?..
 806c 003040e3 5a20a0e3 002083e5 103f08e3  .0@.Z ... ...?..
 807c 003040e3 5a20a0e3 042083e5 103f08e3  .0@.Z ... ...?..
 808c 003040e3 5a20a0e3 082083e5 103f08e3  .0@.Z ... ...?..
 809c 003040e3 5a20a0e3 0c2083e5 103f08e3  .0@.Z ... ...?..
 80ac 003040e3 5a20a0e3 102083e5 103f08e3  .0@.Z ... ...?..
 80bc 003040e3 5a20a0e3 142083e5 103f08e3  .0@.Z ... ...?..
 80cc 003040e3 5a20a0e3 182083e5 103f08e3  .0@.Z ... ...?..
 80dc 003040e3 5a20a0e3 1c2083e5 103f08e3  .0@.Z ... ...?..
 80ec 003040e3 5a20a0e3 202083e5 103f08e3  .0@.Z ..  ...?..
 80fc 003040e3 5a20a0e3 242083e5 103f08e3  .0@.Z ..$ ...?..
 810c 003040e3 5a20a0e3 282083e5 103f08e3  .0@.Z ..( ...?..
 811c 003040e3 5a20a0e3 2c2083e5 0030a0e3  .0@.Z .., ...0..
 812c 203f43e3 043093e5 08300be5 08301be5   ?C..0...0...0..
 813c 073ac3e3 023a83e3 08300be5 08301be5  .:...:...0...0..
 814c 0e39c3e3 013883e3 08300be5 0030a0e3  .9...8...0...0..
 815c 203f43e3 08201be5 042083e5 0030a0e3   ?C.. ... ...0..
 816c 203f43e3 0020a0e3 942083e5 9600a0e3   ?C.. ... ......
 817c 810200eb 0030a0e3 203f43e3 0329a0e3  .....0.. ?C..)..
 818c 982083e5 9600a0e3 7b0200eb 0030a0e3  . ......{....0..
 819c 203f43e3 0020a0e3 982083e5 053aa0e3   ?C.. ... ...:..
 81ac 213f43e3 0120a0e3 042083e5 403005e3  !?C.. ... ..@0..
 81bc 213f43e3 0020a0e3 202083e5 403005e3  !?C.. ..  ..@0..
 81cc 213f43e3 0020a0e3 042083e5 403005e3  !?C.. ... ..@0..
 81dc 213f43e3 0320a0e3 0c2083e5 403005e3  !?C.. ... ..@0..
 81ec 213f43e3 0020a0e3 102083e5 403005e3  !?C.. ... ..@0..
 81fc 213f43e3 0e2100e3 282083e5 403005e3  !?C..!..( ..@0..
 820c 213f43e3 0320a0e3 202083e5 00f020e3  !?C.. ..  .... .
 821c 04d04be2 0088bde8 04b02de5 00b08de2  ..K.......-.....
 822c 0cd04de2 0030a0e1 05304be5 00f020e3  ..M..0...0K... .
 823c 403005e3 213f43e3 143093e5 203003e2  @0..!?C..0.. 0..
 824c 000053e3 f9ffff0a 403005e3 213f43e3  ..S.....@0..!?C.
 825c 05205be5 002083e5 00f020e3 00d08be2  . [.. .... .....
 826c 04b09de4 1eff2fe1 00482de9 04b08de2  ....../..H-.....
 827c 08d04de2 08000be5 060000ea 08301be5  ..M..........0..
 828c 0030d3e5 0300a0e1 e2ffffeb 08301be5  .0...........0..
 829c 013083e2 08300be5 08301be5 0030d3e5  .0...0...0...0..
 82ac 000053e3 f4ffff1a 00f020e3 00f020e3  ..S....... ... .
 82bc 04d04be2 0088bde8 04b02de5 00b08de2  ..K.......-.....
 82cc 00f020e3 403005e3 213f43e3 143093e5  .. .@0..!?C..0..
 82dc 013003e2 000053e3 f9ffff0a 403005e3  .0....S.....@0..
 82ec 213f43e3 003093e5 7330efe6 0300a0e1  !?C..0..s0......
 82fc 00d08be2 04b09de4 1eff2fe1 04b02de5  ........../...-.
 830c 00b08de2 0cd04de2 08000be5 00f020e3  ......M....... .
 831c 00d08be2 04b09de4 1eff2fe1 04b02de5  ........../...-.
 832c 00b08de2 0cd04de2 08000be5 08301be5  ......M......0..
 833c 5a0053e3 010000da 7d3ea0e3 100000ea  Z.S.....}>......
 834c 08301be5 5a0073e3 010000aa fa3fa0e3  .0..Z.s......?..
 835c 0b0000ea 08301be5 7d2fa0e3 920303e0  .....0..}/......
 836c b72006e3 0b264be3 9213c2e0 032082e0  . ...&K...... ..
 837c 4223a0e1 c33fa0e1 033042e0 5d3e83e2  B#...?...0B.]>..
 838c 0c3083e2 0300a0e1 00d08be2 04b09de4  .0..............
 839c 1eff2fe1 04b02de5 00b08de2 0cd04de2  ../...-.......M.
 83ac 08000be5 08301be5 572100e3 920302e0  .....0..W!......
 83bc 3f3e07e3 053040e3 030052e1 090000ca  ?>...0@...R.....
 83cc 08301be5 572100e3 920302e0 d33d04e3  .0..W!.......=..
 83dc 623041e3 9312c3e0 c313a0e1 c23fa0e1  b0A..........?..
 83ec 033041e0 000000ea 0030e0e3 0300a0e1  .0A......0......
 83fc 00d08be2 04b09de4 1eff2fe1 00482de9  ........../..H-.
 840c 04b08de2 30d04de2 30000be5 2e30a0e3  ....0.M.0....0..
 841c 15304be5 0030a0e3 08300be5 30001be5  .0K..0...0..0...
 842c dbffffeb 1c000be5 0030a0e3 08300be5  .........0...0..
 843c 050000ea 15305be5 0300a0e1 75ffffeb  .....0[.....u...
 844c 08301be5 013083e2 08300be5 08201be5  .0...0...0... ..
 845c 1c301be5 030052e1 f5ffffda 0a30a0e3  .0....R......0..
 846c 15304be5 15305be5 0300a0e1 69ffffeb  .0K..0[.....i...
 847c 0a30a0e3 15304be5 15305be5 0300a0e1  .0...0K..0[.....
 848c 64ffffeb 1c301be5 010073e3 0800001a  d....0....s.....
 849c 6f30a0e3 15304be5 15305be5 0300a0e1  o0...0K..0[.....
 84ac 5cffffeb ac0602e3 9bffffeb 0030a0e1  \............0..
 84bc ae0100ea 103f08e3 003040e3 282093e5  .....?...0@.( ..
 84cc 103f08e3 003040e3 2c2083e5 103f08e3  .?...0@., ...?..
 84dc 003040e3 242093e5 103f08e3 003040e3  .0@.$ ...?...0@.
 84ec 282083e5 103f08e3 003040e3 202093e5  ( ...?...0@.  ..
 84fc 103f08e3 003040e3 242083e5 103f08e3  .?...0@.$ ...?..
 850c 003040e3 1c2093e5 103f08e3 003040e3  .0@.. ...?...0@.
 851c 202083e5 103f08e3 003040e3 182093e5    ...?...0@.. ..
 852c 103f08e3 003040e3 1c2083e5 103f08e3  .?...0@.. ...?..
 853c 003040e3 142093e5 103f08e3 003040e3  .0@.. ...?...0@.
 854c 182083e5 103f08e3 003040e3 102093e5  . ...?...0@.. ..
 855c 103f08e3 003040e3 142083e5 103f08e3  .?...0@.. ...?..
 856c 003040e3 0c2093e5 103f08e3 003040e3  .0@.. ...?...0@.
 857c 102083e5 103f08e3 003040e3 082093e5  . ...?...0@.. ..
 858c 103f08e3 003040e3 0c2083e5 103f08e3  .?...0@.. ...?..
 859c 003040e3 042093e5 103f08e3 003040e3  .0@.. ...?...0@.
 85ac 082083e5 103f08e3 003040e3 002093e5  . ...?...0@.. ..
 85bc 103f08e3 003040e3 042083e5 103f08e3  .?...0@.. ...?..
 85cc 003040e3 1c201be5 002083e5 5e30a0e3  .0@.. ... ..^0..
 85dc 20300be5 0030a0e3 24300be5 0030a0e3   0...0..$0...0..
 85ec 28300be5 28301be5 000053e3 0300001a  (0..(0....S.....
 85fc 0030a0e3 24300be5 1c301be5 0c300be5  .0..$0...0...0..
 860c 28301be5 010053e3 2400001a 0030a0e3  (0....S.$....0..
 861c 24300be5 103f08e3 003040e3 002093e5  $0...?...0@.. ..
 862c 103f08e3 003040e3 043093e5 032082e0  .?...0@..0... ..
 863c 103f08e3 003040e3 083093e5 032082e0  .?...0@..0... ..
 864c 103f08e3 003040e3 0c3093e5 032082e0  .?...0@..0... ..
 865c 103f08e3 003040e3 103093e5 032082e0  .?...0@..0... ..
 866c 103f08e3 003040e3 143093e5 032082e0  .?...0@..0... ..
 867c ab3a0ae3 aa3a42e3 9332c1e0 c23fa0e1  .:...:B..2...?..
 868c 033041e0 0c300be5 0c201be5 20301be5  .0A..0... .. 0..
 869c 032042e0 24301be5 920303e0 10300be5  . B.$0.......0..
 86ac 28301be5 020053e3 3f00001a 0030a0e3  (0....S.?....0..
 86bc 24300be5 103f08e3 003040e3 002093e5  $0...?...0@.. ..
 86cc 103f08e3 003040e3 043093e5 032082e0  .?...0@..0... ..
 86dc 103f08e3 003040e3 083093e5 032082e0  .?...0@..0... ..
 86ec 103f08e3 003040e3 0c3093e5 032082e0  .?...0@..0... ..
 86fc 103f08e3 003040e3 103093e5 032082e0  .?...0@..0... ..
 870c 103f08e3 003040e3 143093e5 032082e0  .?...0@..0... ..
 871c ab3a0ae3 aa3a42e3 9332c1e0 c23fa0e1  .:...:B..2...?..
 872c 031041e0 103f08e3 003040e3 182093e5  ..A..?...0@.. ..
 873c 103f08e3 003040e3 1c3093e5 032082e0  .?...0@..0... ..
 874c 103f08e3 003040e3 203093e5 032082e0  .?...0@. 0... ..
 875c 103f08e3 003040e3 243093e5 032082e0  .?...0@.$0... ..
 876c 103f08e3 003040e3 283093e5 032082e0  .?...0@.(0... ..
 877c 103f08e3 003040e3 2c3093e5 032082e0  .?...0@.,0... ..
 878c ab3a0ae3 aa3a42e3 9302c3e0 c22fa0e1  .:...:B....../..
 879c 033042e0 033081e0 0c300be5 0c301be5  .0B..0...0...0..
 87ac 24201be5 920303e0 10300be5 2c30a0e3  $ .......0..,0..
 87bc 15304be5 0030a0e3 14300be5 0030a0e3  .0K..0...0...0..
 87cc 14300be5 050000ea 15305be5 0300a0e1  .0.......0[.....
 87dc 90feffeb 14301be5 013083e2 14300be5  .....0...0...0..
 87ec 14201be5 0c301be5 030052e1 f5ffffba  . ...0....R.....
 87fc 0a30a0e3 15304be5 15305be5 0300a0e1  .0...0K..0[.....
 880c 84feffeb 10301be5 050053e3 3b0000da  .....0....S.;...
 881c 5f30a0e3 15304be5 15305be5 0300a0e1  _0...0K..0[.....
 882c 7cfeffeb 5f30a0e3 15304be5 15305be5  |..._0...0K..0[.
 883c 0300a0e1 77feffeb 5f30a0e3 15304be5  ....w..._0...0K.
 884c 15305be5 0300a0e1 72feffeb 5f30a0e3  .0[.....r..._0..
 885c 15304be5 15305be5 0300a0e1 6dfeffeb  .0K..0[.....m...
 886c 4f30a0e3 15304be5 15305be5 0300a0e1  O0...0K..0[.....
 887c 68feffeb 0a30a0e3 15304be5 15305be5  h....0...0K..0[.
 888c 0300a0e1 63feffeb 2030a0e3 15304be5  ....c... 0...0K.
 889c 15305be5 0300a0e1 5efeffeb 2030a0e3  .0[.....^... 0..
 88ac 15304be5 15305be5 0300a0e1 59feffeb  .0K..0[.....Y...
 88bc 5630a0e3 15304be5 15305be5 0300a0e1  V0...0K..0[.....
 88cc 54feffeb 2030a0e3 15304be5 15305be5  T... 0...0K..0[.
 88dc 0300a0e1 4ffeffeb 2030a0e3 15304be5  ....O... 0...0K.
 88ec 15305be5 0300a0e1 4afeffeb 0a30a0e3  .0[.....J....0..
 88fc 15304be5 15305be5 0300a0e1 45feffeb  .0K..0[.....E...
 890c 10301be5 050073e3 3b0000aa 4f30a0e3  .0....s.;...O0..
 891c 15304be5 15305be5 0300a0e1 3dfeffeb  .0K..0[.....=...
 892c 2030a0e3 15304be5 15305be5 0300a0e1   0...0K..0[.....
 893c 38feffeb 5f30a0e3 15304be5 15305be5  8..._0...0K..0[.
 894c 0300a0e1 33feffeb 5f30a0e3 15304be5  ....3..._0...0K.
 895c 15305be5 0300a0e1 2efeffeb 5f30a0e3  .0[........._0..
 896c 15304be5 15305be5 0300a0e1 29feffeb  .0K..0[.....)...
 897c 0a30a0e3 15304be5 15305be5 0300a0e1  .0...0K..0[.....
 898c 24feffeb 2030a0e3 15304be5 15305be5  $... 0...0K..0[.
 899c 0300a0e1 1ffeffeb 2030a0e3 15304be5  ........ 0...0K.
 89ac 15305be5 0300a0e1 1afeffeb 5630a0e3  .0[.........V0..
 89bc 15304be5 15305be5 0300a0e1 15feffeb  .0K..0[.........
 89cc 2030a0e3 15304be5 15305be5 0300a0e1   0...0K..0[.....
 89dc 10feffeb 2030a0e3 15304be5 15305be5  .... 0...0K..0[.
 89ec 0300a0e1 0bfeffeb 0a30a0e3 15304be5  .........0...0K.
 89fc 15305be5 0300a0e1 06feffeb 10301be5  .0[..........0..
 8a0c 050073e3 3e0000ba 10301be5 050053e3  ..s.>....0....S.
 8a1c 3b0000ca 5f30a0e3 15304be5 15305be5  ;..._0...0K..0[.
 8a2c 0300a0e1 fbfdffeb 5f30a0e3 15304be5  ........_0...0K.
 8a3c 15305be5 0300a0e1 f6fdffeb 5630a0e3  .0[.........V0..
 8a4c 15304be5 15305be5 0300a0e1 f1fdffeb  .0K..0[.........
 8a5c 5f30a0e3 15304be5 15305be5 0300a0e1  _0...0K..0[.....
 8a6c ecfdffeb 5f30a0e3 15304be5 15305be5  ...._0...0K..0[.
 8a7c 0300a0e1 e7fdffeb 0a30a0e3 15304be5  .........0...0K.
 8a8c 15305be5 0300a0e1 e2fdffeb 2030a0e3  .0[......... 0..
 8a9c 15304be5 15305be5 0300a0e1 ddfdffeb  .0K..0[.........
 8aac 2030a0e3 15304be5 15305be5 0300a0e1   0...0K..0[.....
 8abc d8fdffeb 5630a0e3 15304be5 15305be5  ....V0...0K..0[.
 8acc 0300a0e1 d3fdffeb 2030a0e3 15304be5  ........ 0...0K.
 8adc 15305be5 0300a0e1 cefdffeb 2030a0e3  .0[......... 0..
 8aec 15304be5 15305be5 0300a0e1 c9fdffeb  .0K..0[.........
 8afc 0a30a0e3 15304be5 15305be5 0300a0e1  .0...0K..0[.....
 8b0c c4fdffeb 10301be5 5a0053e3 080000da  .....0..Z.S.....
 8b1c 2b30a0e3 15304be5 15305be5 0300a0e1  +0...0K..0[.....
 8b2c bcfdffeb ac0602e3 fbfdffeb 0030a0e1  .............0..
 8b3c 0e0000ea 10301be5 5a0073e3 080000aa  .....0..Z.s.....
 8b4c 2d30a0e3 15304be5 15305be5 0300a0e1  -0...0K..0[.....
 8b5c b0fdffeb ac0602e3 effdffeb 0030a0e1  .............0..
 8b6c 020000ea 10001be5 ebfdffeb 0030a0e1  .............0..
 8b7c 0300a0e1 04d04be2 0088bde8 010050e2  ......K.......P.
 8b8c fdffff1a 0ef0a0e1 0000b0e1 0300000a  ................
 8b9c 00000fe1 8000c0e3 00f021e1 0ef0a0e1  ..........!.....
 8bac 00000fe1 800080e3 00f021e1 0ef0a0e1  ..........!.....
 8bbc 00000fe1 0ef0a0e1 24fdffeb 10039fe5  ........$.......
 8bcc 001090e5 3810c1e3 081081e3 001080e5  ....8...........
 8bdc fc029fe5 001090e5 0717c1e3 011781e3  ................
 8bec 001080e5 e8029fe5 001090e5 0710c1e3  ................
 8bfc 001080e5 0930a0e3 d8629fe5 d8829fe5  .....0...b......
 8c0c d8729fe5 0090a0e3 d4029fe5 041090e5  .r..............
 8c1c 061081e0 0240a0e3 004080e5 c0029fe5  .....@...@......
 8c2c 042090e5 032082e0 0840a0e3 004080e5  . ... ...@...@..
 8c3c 001088e5 a8029fe5 004090e5 020014e3  .........@......
 8c4c 0000000a 640000eb 002087e5 90029fe5  ....d.... ......
 8c5c 004090e5 080014e3 0000000a 6e0000eb  .@..........n...
 8c6c 000059e3 2400001a 78029fe5 0146a0e3  ..Y.$...x....F..
 8c7c 004090e5 014614e2 000054e3 1e00000a  .@...F....T.....
 8c8c 8d0000eb 5c029fe5 0146a0e3 004090e5  ....\....F...@..
 8c9c 014614e2 000054e3 1700000a 860000eb  .F....T.........
 8cac 40029fe5 0146a0e3 004090e5 014614e2  @....F...@...F..
 8cbc 000054e3 1000000a 7f0000eb 24029fe5  ..T.........$...
 8ccc 0146a0e3 004090e5 014614e2 000054e3  .F...@...F....T.
 8cdc 0900000a 780000eb ff4f2de9 0a00a0e3  ....x....O-.....
 8cec 85fdffeb ff4fbde8 f4019fe5 049090e5  .....O..........
 8cfc 010016e2 0000001a ffffffea 000059e3  ..............Y.
 8d0c 3400000a dc019fe5 0146a0e3 004090e5  4........F...@..
 8d1c 014614e2 000054e3 2e00001a 660000eb  .F....T.....f...
 8d2c c0019fe5 0146a0e3 004090e5 014614e2  .....F...@...F..
 8d3c 000054e3 2700001a 5f0000eb a4019fe5  ..T.'..._.......
 8d4c 0146a0e3 004090e5 014614e2 000054e3  .F...@...F....T.
 8d5c 2000001a ff4f2de9 0a00a0e3 66fdffeb   ....O-.....f...
 8d6c ff4fbde8 78019fe5 044090e5 099044e0  .O..x....@....D.
 8d7c 000059e3 170000ba fe4f2de9 0900a0e1  ..Y......O-.....
 8d8c 9dfdffeb fe4fbde8 0090a0e1 58019fe5  .....O......X...
 8d9c a990a0e1 8990a0e1 019089e2 090050e1  ..............P.
 8dac 0100005a 0090a0e3 0a0000eb 30019fe5  ...Z........0...
 8dbc 044090e5 30019fe5 094040e0 010016e2  .@..0....@@.....
 8dcc 0200001a 006084e2 0090a0e3 010000ea  .....`..........
 8ddc 006089e2 0090a0e3 94ffffea 04e02de5  .`............-.
 8dec 04519fe5 f8009fe5 041090e5 066045e0  .Q...........`E.
 8dfc 061081e0 0240a0e3 004080e5 010016e3  .....@...@......
 8e0c 0100000a 1a0000eb 010000ea 120000eb  ................
 8e1c ffffffea 04e09de4 1eff2fe1 04e02de5  ........../...-.
 8e2c c8509fe5 b8009fe5 042090e5 033045e0  .P....... ...0E.
 8e3c 032082e0 0840a0e3 004080e5 010013e3  . ...@...@......
 8e4c 0100000a 160000eb 010000ea 0e0000eb  ................
 8e5c ffffffea 04e09de4 1eff2fe1 03402de9  ........../..@-.
 8e6c 8c009fe5 0216a0e3 001080e5 0340bde8  .............@..
 8e7c 1eff2fe1 03402de9 78009fe5 0216a0e3  ../..@-.x.......
 8e8c 001080e5 0340bde8 1eff2fe1 03402de9  .....@..../..@-.
 8e9c 5c009fe5 0113a0e3 001080e5 0340bde8  \............@..
 8eac 1eff2fe1 03402de9 48009fe5 0113a0e3  ../..@-.H.......
 8ebc 001080e5 0340bde8 1eff2fe1 01402de9  .....@..../..@-.
 8ecc 6400a0e3 010050e2 fdffff1a 0140bde8  d.....P......@..
 8edc 1eff2fe1 0800203f 01100000 1030003f  ../... ?.....0.?
 8eec 1830003f 0030003f 3400203f 214e0000  .0.?.0.?4. ?!N..
 8efc 01d00000 2800203f 1c00203f           ....(. ?.. ?    
Contents of section .data:
 8f08 48656c6c 6f0d0a00 0a000000 0a000000  Hello...........
 8f18 0a000000 0a000000 0a000000 0a000000  ................
 8f28 0a000000 0a000000 0a000000 0a000000  ................
 8f38 0a000000 0a000000                    ........        
Contents of section .debug_info:
 0000 e2030000 05000104 00000000 0e170000  ................
 0010 001d7301 00003e01 00005c80 00002c0b  ..s...>...\...,.
 0020 00000000 00000201 06e90000 00020205  ................
 0030 6f000000 02040598 00000002 08059300  o...............
 0040 00000585 00000002 2e184e00 00000201  ..........N.....
 0050 08e70000 00020207 1e010000 050c0100  ................
 0060 00023419 68000000 020407fa 00000002  ..4.h...........
 0070 0807f500 00000f04 05696e74 00020407  .........int....
 0080 ff000000 09a01a1b 01000001 b7000000  ................
 0090 1b1b0100 0000018d 0000001d 2b010000  ............+...
 00a0 1c010a00 00001f2b 01000028 01790000  .......+...(.y..
 00b0 00212b01 00003401 38010000 232b0100  .!+...4.8...#+..
 00c0 004001b1 00000025 2b010000 4c019201  .@.....%+...L...
 00d0 0000272b 01000058 01c70100 00292b01  ..'+...X.....)+.
 00e0 00006401 69000000 2b2b0100 007001be  ..d.i...++...p..
 00f0 0000002d 2b010000 7c013101 00002f2b  ...-+...|.1.../+
 0100 01000088 01cd0100 00315c00 00009401  .........1\.....
 0110 98010000 322b0100 00980006 5c000000  ....2+......\...
 0120 2b010000 077d0000 00050006 5c000000  +....}......\...
 0130 3b010000 077d0000 00010005 bc010000  ;....}..........
 0140 03330384 00000009 08366501 00000369  .3.......6e....i
 0150 72710037 5c000000 00011b02 0000385c  rq.7\.........8\
 0160 00000004 0005a101 00000339 03470100  ...........9.G..
 0170 00092c3c f1010000 03696f00 3d5c0000  ..,<.....io.=\..
 0180 00000369 6572003e 5c000000 04036969  ...ier.>\.....ii
 0190 72003f5c 00000008 036c6372 00405c00  r.?\.....lcr.@\.
 01a0 00000c03 6d637200 415c0000 0010036c  ....mcr.A\.....l
 01b0 73720042 5c000000 14036d73 7200435c  sr.B\.....msr.C\
 01c0 00000018 017a0100 00445c00 00001c01  .....z...D\.....
 01d0 8d020000 455c0000 0020012d 02000046  ....E\... .-...F
 01e0 5c000000 2401e200 0000475c 00000028  \...$.....G\...(
 01f0 00051501 00000348 03710100 00060d02  .......H.q......
 0200 00000d02 0000077d 00000007 00020108  .......}........
 0210 f0000000 106d7367 00010506 fd010000  .....msg........
 0220 0503088f 00000676 00000036 02000007  .......v...6....
 0230 7d000000 0b0011d3 00000001 06052602  }.............&.
 0240 00000503 108f0000 127f0000 00010706  ................
 0250 5a020000 135c0000 000014ca 00000001  Z....\..........
 0260 85057600 00000884 00008007 0000019c  ..v.............
 0270 f5020000 0afc0100 00851276 00000002  ...........v....
 0280 914c0463 00880c42 00000002 91670469  .L.c...B.....g.i
 0290 008a0876 00000002 91740882 0100008b  ...v.....t......
 02a0 76000000 02916008 b5010000 b6760000  v.....`......v..
 02b0 00029170 08100000 00b77600 00000291  ...p......v.....
 02c0 5c046b00 b8087600 00000291 5804616e  \.k...v.....X.an
 02d0 6700b908 76000000 02916c08 c5000000  g...v.....l.....
 02e0 ba760000 00029154 046a00ce 08760000  .v.....T.j...v..
 02f0 00029168 000c6b02 00007176 000000a0  ...h..k...qv....
 0300 83000068 00000001 9c1c0300 000add01  ...h............
 0310 0000712b 76000000 02917400 0c320200  ..q+v.....t..2..
 0320 005d7600 00002883 00007800 0000019c  .]v...(...x.....
 0330 43030000 0aa10000 005d3876 00000002  C........]8v....
 0340 9174000d 23020000 55088300 00200000  .t..#...U.... ..
 0350 00019c64 0300000b 71005514 76000000  ...d....q.U.v...
 0360 02917400 15ab0100 00014e09 42000000  ..t.......N.B...
 0370 c4820000 44000000 019c1661 02000001  ....D......a....
 0380 43067482 00005000 0000019c 9d030000  C.t...P.........
 0390 0b730043 169d0300 00029174 0017040d  .s.C.......t....
 03a0 0200000d d3010000 3a248200 00500000  ........:$...P..
 03b0 00019cc4 0300000b 63003a18 42000000  ........c.:.B...
 03c0 02917700 18000000 00010c06 5c800000  ..w.........\...
 03d0 c8010000 019c0473 656c001d 0d5c0000  .......sel...\..
 03e0 00029174 00001e00 00000200 be010000  ...t............
 03f0 0401a203 00000000 00009202 00003e01  ..............>.
 0400 00009902 00000180                    ........        
Contents of section .debug_abbrev:
 0000 010d0003 0e3a2103 3b0b3921 0d491338  .....:!.;.9!.I.8
 0010 0b000002 24000b0b 3e0b030e 0000030d  ....$...>.......
 0020 0003083a 21033b0b 39210d49 13380b00  ...:!.;.9!.I.8..
 0030 00043400 03083a21 013b0b39 0b491302  ..4...:!.;.9.I..
 0040 18000005 1600030e 3a0b3b0b 390b4913  ........:.;.9.I.
 0050 00000601 01491301 13000007 21004913  .....I......!.I.
 0060 2f0b0000 08340003 0e3a2101 3b0b3921  /....4...:!.;.9!
 0070 08491302 18000009 13010b0b 3a21033b  .I..........:!.;
 0080 0b392109 01130000 0a050003 0e3a2101  .9!..........:!.
 0090 3b0b390b 49130218 00000b05 0003083a  ;.9.I..........:
 00a0 21013b0b 390b4913 02180000 0c2e013f  !.;.9.I........?
 00b0 19030e3a 21013b0b 39210527 19491311  ...:!.;.9!.'.I..
 00c0 01120640 187a1901 1300000d 2e013f19  ...@.z........?.
 00d0 030e3a21 013b0b39 21062719 11011206  ..:!.;.9!.'.....
 00e0 40187a19 01130000 0e110125 0e130b03  @.z........%....
 00f0 0e1b0e11 01120610 1700000f 24000b0b  ............$...
 0100 3e0b0308 00001034 0003083a 0b3b0b39  >......4...:.;.9
 0110 0b49133f 19021800 00113400 030e3a0b  .I.?......4...:.
 0120 3b0b390b 49133f19 02180000 122e013f  ;.9.I.?........?
 0130 19030e3a 0b3b0b39 0b27193c 19011300  ...:.;.9.'.<....
 0140 00130500 49130000 142e013f 19030e3a  ....I......?...:
 0150 0b3b0b39 0b271949 13110112 0640187c  .;.9.'.I.....@.|
 0160 19011300 00152e00 3f19030e 3a0b3b0b  ........?...:.;.
 0170 390b2719 49131101 12064018 7a190000  9.'.I.....@.z...
 0180 162e013f 19030e3a 0b3b0b39 0b271911  ...?...:.;.9.'..
 0190 01120640 187c1901 13000017 0f000b0b  ...@.|..........
 01a0 49130000 182e013f 19030e3a 0b3b0b39  I......?...:.;.9
 01b0 0b271911 01120640 187c1900 00000111  .'.....@.|......
 01c0 00100655 06030e1b 0e250e13 05000000  ...U.....%......
Contents of section .debug_aranges:
 0000 1c000000 02000000 00000400 00000000  ................
 0010 5c800000 2c0b0000 00000000 00000000  \...,...........
 0020 24000000 0200e603 00000400 00000000  $...............
 0030 00800000 5c000000 888b0000 80030000  ....\...........
 0040 00000000 00000000                    ........        
Contents of section .debug_line:
 0000 9e030000 03005c00 00000201 fb0e0d00  ......\.........
 0010 01010101 00000001 0000012f 7573722f  .........../usr/
 0020 6c69622f 6763632f 61726d2d 6e6f6e65  lib/gcc/arm-none
 0030 2d656162 692f3133 2e322e31 2f696e63  -eabi/13.2.1/inc
 0040 6c756465 00006d61 696e2e63 00000000  lude..main.c....
 0050 73746469 6e742e68 00010000 62636d2e  stdint.h....bcm.
 0060 68000000 00000516 0005025c 80000003  h..........\....
 0070 0b016783 83838383 83838383 05178383  ..g.............
 0080 05138705 0d4a050f 4b05084a 050f4b05  .....J..K..J..K.
 0090 084a0504 4b05184a 05044f05 144a0504  .J..K..J..O..J..
 00a0 4b4b051a 4a05044b 4b051a4a 05044f05  KK..J..KK..J..O.
 00b0 154a0504 4b05114a 05044b05 104a0504  .J..K..J..K..J..
 00c0 4b05104a 05044b05 104a0504 4b05114a  K..J..K..J..K..J
 00d0 05044b05 114a0501 4b051b6b 05099f05  ..K..J..K..k....
 00e0 0b000204 012e0517 00020401 66051f00  ............f...
 00f0 0204012e 05044b05 0f4a0501 4b051988  ......K..J..K...
 0100 05098305 072f0508 83050a64 05018605  ...../.....d....
 0110 19880509 4b050b00 0204012e 05170002  ....K...........
 0120 04016605 1f000204 012e050b 4b050183  ..f.........K...
 0130 05178605 04840501 2f6c0508 89050e68  ......../l.....h
 0140 05084c05 0e68051b 4d052066 0524d605  ..L..h..M. f.$..
 0150 014b8505 29890507 66052d84 05326605  .K..)...f.-..2f.
 0160 0eda0501 3087050c 8405084c 051b4b05  ....0......L..K.
 0170 0b670504 4a050730 05240002 04036405  .g..J..0.$....d.
 0180 10000204 01660506 8605044b 0506030a  .....f.....K....
 0190 6605044b 05076905 09680507 4b050f67  f..K..i..h..K..g
 01a0 05278705 17660527 67051766 05266705  .'...f.'g..f.&g.
 01b0 16660526 67051666 05266705 16660526  .f.&g..f.&g..f.&
 01c0 67051666 05266805 16660526 67051666  g..f.&h..f.&g..f
 01d0 05266705 16660526 67051666 05266705  .&g..f.&g..f.&g.
 01e0 16666705 08854b4c 05074b05 0967050e  .fg...KL..K..g..
 01f0 4b05074c 05096705 1f4b0533 66052366  K..L..g..K.3f.#f
 0200 05472e05 3766055b 2e054b66 056f2e05  .G..7f.[..Kf.o..
 0210 5f660583 012e0573 66050e2e 0514bb05  _f.....sf.......
 0220 0b660507 68050967 051f4b05 33660523  .f..h..g..K.3f.#
 0230 6605472e 05376605 5b2e054b 66056f2e  f.G..7f.[..Kf.o.
 0240 055f6605 83012e05 73660587 012e051f  ._f.....sf......
 0250 9f053366 05236605 472e0537 66055b2e  ..3f.#f.G..7f.[.
 0260 054b6605 6f2e055f 66058401 2e057466  .Kf.o.._f.....tf
 0270 0589012e 050e9d05 0b4c0506 8705084b  .........L.....K
 0280 050b4b05 044a0507 30051a00 02040364  ..K..J..0......d
 0290 05100002 04016605 06860504 4b05076b  ......f.....K..k
 02a0 05096805 074b0509 6705074b 05096705  ..h..K..g..K..g.
 02b0 074b0509 6705074b 05096705 074b0509  .K..g..K..g..K..
 02c0 6705074c 05096705 074b0509 6705074b  g..L..g..K..g..K
 02d0 05096705 074b0509 6705074b 05096705  ..g..K..g..K..g.
 02e0 074b0509 6705074b 68050968 05074b05  .K..g..Kh..h..K.
 02f0 09670507 4b050967 05074b05 09670507  .g..K..g..K..g..
 0300 4b050967 05074b05 09670507 4c050967  K..g..K..g..L..g
 0310 05074b05 09670507 4b050967 05074b05  ..K..g..K..g..K.
 0320 09670507 4b050967 05074b05 09670507  .g..K..g..K..g..
 0330 4b680514 00020401 66050968 05074b05  Kh......f..h..K.
 0340 09670507 4b050967 05074b05 09670507  .g..K..g..K..g..
 0350 4b050967 05074b05 09670507 4c050967  K..g..K..g..L..g
 0360 05074b05 09670507 4b050967 05074b05  ..K..g..K..g..K.
 0370 09670507 4b050967 05074b05 09670507  .g..K..g..K..g..
 0380 4b6c0509 6805074b 050f6705 07840509  Kl..h..K..g.....
 0390 6805074b 050f6705 0b880501 67020600  h..K..g.....g...
 03a0 01014b01 00000200 1a000000 0201fb0e  ..K.............
 03b0 0a000101 01010000 00010062 6f6f742e  ...........boot.
 03c0 73000000 00000005 02008000 00030d01  s...............
 03d0 2c2c2c30 2c2c2c2c 2c2c312c 2c302c32  ,,,0,,,,,,1,,0,2
 03e0 2c2c2d2c 2c320202 00010100 0502888b  ,,-,,2..........
 03f0 000003c6 00012c2c 332c2c2c 2c2c2d2c  ......,,3,,,,,-,
 0400 2c2c322c 322d2c2c 2c2c2e2c 2c2c2c2e  ,,2,2-,,,,.,,,,.
 0410 2c2c2c2e 2c2c2c2d 332c2c2c 2c2e2c2c  ,,,.,,,-3,,,,.,,
 0420 2c2c030f 2b2c2c2c 2c2d312c 2c2c2c2d  ,,..+,,,,-1,,,,-
 0430 2e2c2d2c 2c2c2c2c 2c2d2c2c 2c2c2c2c  .,-,,,,,,-,,,,,,
 0440 2d2c2c2c 2c2c2c2d 2c2c2c2c 2c2c2f2c  -,,,,,,-,,,,,,/,
 0450 2c2c2d2c 2c2c0309 2b030c2b 2c2f2c2c  ,,-,,,..+..+,/,,
 0460 2c2c2c2c 2e2c2c2c 2c2c2c2e 2c2c2c2c  ,,,,.,,,,,,.,,,,
 0470 2c302c2c 2c2d2c2d 2d2c2d2c 2c2c2c2d  ,0,,,-,--,-,,,,-
 0480 2c2c2c2d 2c2d2c2e 2c2d2c2c 2c2e2f2d  ,,,-,-,.,-,,,./-
 0490 2d2e2f2f 2c2c2c2c 2c2d2c2d 2c2c2c2d  -.//,,,,,-,-,,,-
 04a0 2c2d2c30 2c2c2c2c 2c2d2c2d 2c2c2c2d  ,-,0,,,,,-,-,,,-
 04b0 2c2d2c33 2c2c2c2c 2c2e2c2c 2c2c2c2e  ,-,3,,,,,.,,,,,.
 04c0 2c2c2c2c 2c2e2c2c 2c2c2c31 2c2d2c2c  ,,,,,.,,,,,1,-,,
 04d0 2c03b67d 2b03152b 2c2c030a 2b03322b  ,..}+..+,,..+.2+
 04e0 03f3002b 03c1002b 031b2b33 02020001  ...+...+..+3....
 04f0 01                                   .               
Contents of section .debug_str:
 0000 75617274 5f696e69 74006770 636c7200  uart_init.gpclr.
 0010 645f7a65 726f0047 4e552043 31372031  d_zero.GNU C17 1
 0020 332e322e 31203230 32333130 3039202d  3.2.1 20231009 -
 0030 6d74756e 653d636f 72746578 2d613720  mtune=cortex-a7 
 0040 2d6d666c 6f61742d 6162693d 736f6674  -mfloat-abi=soft
 0050 202d6d61 726d202d 6d617263 683d6172   -marm -march=ar
 0060 6d76372d 61202d67 0067706c 656e0073  mv7-a -g.gplen.s
 0070 686f7274 20696e74 0067706c 65760064  hort int.gplev.d
 0080 656c6179 0075696e 74385f74 00677073  elay.uint8_t.gps
 0090 6574006c 6f6e6720 6c6f6e67 20696e74  et.long long int
 00a0 00616e67 756c6f5f 656d5f67 72617573  .angulo_em_graus
 00b0 00677072 656e0067 70667365 6c006770  .gpren.gpfsel.gp
 00c0 6172656e 00746970 6f5f636f 6e74726f  aren.tipo_contro
 00d0 6c650076 65746f72 5f6d6564 6964615f  le.vetor_medida_
 00e0 33006261 75640075 6e736967 6e656420  3.baud.unsigned 
 00f0 63686172 006c6f6e 67206c6f 6e672075  char.long long u
 0100 6e736967 6e656420 696e7400 75696e74  nsigned int.uint
 0110 33325f74 006d755f 7265675f 74007368  32_t.mu_reg_t.sh
 0120 6f727420 756e7369 676e6564 20696e74  ort unsigned int
 0130 00677061 66656e00 67706564 73002f68  .gpafen.gpeds./h
 0140 6f6d652f 69616e2f 632f7072 6f6a6574  ome/ian/c/projet
 0150 6f2d6c61 622d7072 6f636573 7361646f  o-lab-processado
 0160 7265732f 636f6e74 726f6c61 5f6d6f74  res/controla_mot
 0170 6f72006d 61696e2e 63007363 72617463  or.main.c.scratc
 0180 68006469 7374616e 6369615f 656d5f6d  h.distancia_em_m
 0190 6d006770 66656e00 67707075 64636c6b  m.gpfen.gppudclk
 01a0 00617578 5f726567 5f740075 6172745f  .aux_reg_t.uart_
 01b0 67657463 006d6564 69646100 6770696f  getc.medida.gpio
 01c0 5f726567 5f740067 7068656e 00677070  _reg_t.gphen.gpp
 01d0 75640075 6172745f 70757463 00647572  ud.uart_putc.dur
 01e0 6163616f 5f656368 6f5f656d 5f6d6963  acao_echo_em_mic
 01f0 726f5f73 6567756e 646f7300 6c617267  ro_segundos.larg
 0200 7572615f 6563686f 5f656d5f 6d696372  ura_echo_em_micr
 0210 6f5f7365 67756e64 6f730065 6e61626c  o_segundos.enabl
 0220 65730070 72696e74 615f6f69 00737461  es.printa_oi.sta
 0230 74007065 72696f64 6f5f616c 746f5f70  t.periodo_alto_p
 0240 776d5f65 6d5f6d69 63726f5f 73656775  wm_em_micro_segu
 0250 6e646f73 5f646164 6f5f616e 67756c6f  ndos_dado_angulo
 0260 00756172 745f7075 74730064 69737461  .uart_puts.dista
 0270 6e636961 5f656d5f 6d6d5f64 6164615f  ncia_em_mm_dada_
 0280 64757261 63616f5f 6563686f 00636e74  duracao_echo.cnt
 0290 6c00626f 6f742e73 00474e55 20415320  l.boot.s.GNU AS 
 02a0 322e3432 00                          2.42.           
Contents of section .comment:
 0000 4743433a 20283135 3a31332e 322e7265  GCC: (15:13.2.re
 0010 6c312d32 29203133 2e322e31 20323032  l1-2) 13.2.1 202
 0020 33313030 3900                        31009.          
Contents of section .ARM.attributes:
 0000 412e0000 00616561 62690001 24000000  A....aeabi..$...
 0010 05372d41 00060a07 41080109 02120414  .7-A....A.......
 0020 01150117 0318011a 011e0622 014402    ...........".D. 
Contents of section .debug_frame:
 0000 0c000000 ffffffff 0100027c 0e0c0d00  ...........|....
 0010 1c000000 00000000 5c800000 c8010000  ........\.......
 0020 420e088b 028e0142 0c0b0402 de0c0d08  B......B........
 0030 1c000000 00000000 24820000 50000000  ........$...P...
 0040 420e048b 01420d0b 600d0d42 cb0e0000  B....B..`..B....
 0050 1c000000 00000000 74820000 50000000  ........t...P...
 0060 420e088b 028e0142 0c0b0462 0c0d0800  B......B...b....
 0070 1c000000 00000000 c4820000 44000000  ............D...
 0080 420e048b 01420d0b 5a0d0d42 cb0e0000  B....B..Z..B....
 0090 1c000000 00000000 08830000 20000000  ............ ...
 00a0 420e048b 01420d0b 480d0d42 cb0e0000  B....B..H..B....
 00b0 1c000000 00000000 28830000 78000000  ........(...x...
 00c0 420e048b 01420d0b 740d0d42 cb0e0000  B....B..t..B....
 00d0 1c000000 00000000 a0830000 68000000  ............h...
 00e0 420e048b 01420d0b 6c0d0d42 cb0e0000  B....B..l..B....
 00f0 20000000 00000000 08840000 80070000   ...............
 0100 420e088b 028e0142 0c0b0403 ba030c0d  B......B........
 0110 08000000                             ....            
Contents of section .debug_ranges:
 0000 ffffffff 00000000 00800000 5c800000  ............\...
 0010 888b0000 088f0000 00000000 00000000  ................

Disassembly of section .init:

00008000 <start>:
    8000:	e10f0000 	mrs	r0, CPSR
    8004:	e200001f 	and	r0, r0, #31
    8008:	e350001a 	cmp	r0, #26
    800c:	1a000006 	bne	802c <continua>
    8010:	e10f0000 	mrs	r0, CPSR
    8014:	e3c0001f 	bic	r0, r0, #31
    8018:	e3800013 	orr	r0, r0, #19
    801c:	e16ff000 	msr	SPSR_fsxc, r0
    8020:	e28fe004 	add	lr, pc, #4
    8024:	e12ef30e 	msr	ELR_hyp, lr
    8028:	e160006e 	eret

0000802c <continua>:
    802c:	ee100fb0 	mrc	15, 0, r0, cr0, cr0, {5}
    8030:	e21000ff 	ands	r0, r0, #255	@ 0xff
    8034:	0a000001 	beq	8040 <core0>

00008038 <trava>:
    8038:	e320f002 	wfe
    803c:	eafffffd 	b	8038 <trava>

00008040 <core0>:
    8040:	e3a000d2 	mov	r0, #210	@ 0xd2
    8044:	e121f000 	msr	CPSR_c, r0
    8048:	e3a0d901 	mov	sp, #16384	@ 0x4000
    804c:	e3a000d3 	mov	r0, #211	@ 0xd3
    8050:	e121f000 	msr	CPSR_c, r0
    8054:	e3a0d902 	mov	sp, #32768	@ 0x8000
    8058:	ea0002d9 	b	8bc4 <main_codigo>

Disassembly of section .text:

0000805c <uart_init>:
    805c:	e92d4800 	push	{fp, lr}
    8060:	e28db004 	add	fp, sp, #4
    8064:	e24dd008 	sub	sp, sp, #8
    8068:	e3083f10 	movw	r3, #36624	@ 0x8f10
    806c:	e3403000 	movt	r3, #0
    8070:	e3a0205a 	mov	r2, #90	@ 0x5a
    8074:	e5832000 	str	r2, [r3]
    8078:	e3083f10 	movw	r3, #36624	@ 0x8f10
    807c:	e3403000 	movt	r3, #0
    8080:	e3a0205a 	mov	r2, #90	@ 0x5a
    8084:	e5832004 	str	r2, [r3, #4]
    8088:	e3083f10 	movw	r3, #36624	@ 0x8f10
    808c:	e3403000 	movt	r3, #0
    8090:	e3a0205a 	mov	r2, #90	@ 0x5a
    8094:	e5832008 	str	r2, [r3, #8]
    8098:	e3083f10 	movw	r3, #36624	@ 0x8f10
    809c:	e3403000 	movt	r3, #0
    80a0:	e3a0205a 	mov	r2, #90	@ 0x5a
    80a4:	e583200c 	str	r2, [r3, #12]
    80a8:	e3083f10 	movw	r3, #36624	@ 0x8f10
    80ac:	e3403000 	movt	r3, #0
    80b0:	e3a0205a 	mov	r2, #90	@ 0x5a
    80b4:	e5832010 	str	r2, [r3, #16]
    80b8:	e3083f10 	movw	r3, #36624	@ 0x8f10
    80bc:	e3403000 	movt	r3, #0
    80c0:	e3a0205a 	mov	r2, #90	@ 0x5a
    80c4:	e5832014 	str	r2, [r3, #20]
    80c8:	e3083f10 	movw	r3, #36624	@ 0x8f10
    80cc:	e3403000 	movt	r3, #0
    80d0:	e3a0205a 	mov	r2, #90	@ 0x5a
    80d4:	e5832018 	str	r2, [r3, #24]
    80d8:	e3083f10 	movw	r3, #36624	@ 0x8f10
    80dc:	e3403000 	movt	r3, #0
    80e0:	e3a0205a 	mov	r2, #90	@ 0x5a
    80e4:	e583201c 	str	r2, [r3, #28]
    80e8:	e3083f10 	movw	r3, #36624	@ 0x8f10
    80ec:	e3403000 	movt	r3, #0
    80f0:	e3a0205a 	mov	r2, #90	@ 0x5a
    80f4:	e5832020 	str	r2, [r3, #32]
    80f8:	e3083f10 	movw	r3, #36624	@ 0x8f10
    80fc:	e3403000 	movt	r3, #0
    8100:	e3a0205a 	mov	r2, #90	@ 0x5a
    8104:	e5832024 	str	r2, [r3, #36]	@ 0x24
    8108:	e3083f10 	movw	r3, #36624	@ 0x8f10
    810c:	e3403000 	movt	r3, #0
    8110:	e3a0205a 	mov	r2, #90	@ 0x5a
    8114:	e5832028 	str	r2, [r3, #40]	@ 0x28
    8118:	e3083f10 	movw	r3, #36624	@ 0x8f10
    811c:	e3403000 	movt	r3, #0
    8120:	e3a0205a 	mov	r2, #90	@ 0x5a
    8124:	e583202c 	str	r2, [r3, #44]	@ 0x2c
    8128:	e3a03000 	mov	r3, #0
    812c:	e3433f20 	movt	r3, #16160	@ 0x3f20
    8130:	e5933004 	ldr	r3, [r3, #4]
    8134:	e50b3008 	str	r3, [fp, #-8]
    8138:	e51b3008 	ldr	r3, [fp, #-8]
    813c:	e3c33a07 	bic	r3, r3, #28672	@ 0x7000
    8140:	e3833a02 	orr	r3, r3, #8192	@ 0x2000
    8144:	e50b3008 	str	r3, [fp, #-8]
    8148:	e51b3008 	ldr	r3, [fp, #-8]
    814c:	e3c3390e 	bic	r3, r3, #229376	@ 0x38000
    8150:	e3833801 	orr	r3, r3, #65536	@ 0x10000
    8154:	e50b3008 	str	r3, [fp, #-8]
    8158:	e3a03000 	mov	r3, #0
    815c:	e3433f20 	movt	r3, #16160	@ 0x3f20
    8160:	e51b2008 	ldr	r2, [fp, #-8]
    8164:	e5832004 	str	r2, [r3, #4]
    8168:	e3a03000 	mov	r3, #0
    816c:	e3433f20 	movt	r3, #16160	@ 0x3f20
    8170:	e3a02000 	mov	r2, #0
    8174:	e5832094 	str	r2, [r3, #148]	@ 0x94
    8178:	e3a00096 	mov	r0, #150	@ 0x96
    817c:	eb000281 	bl	8b88 <delay>
    8180:	e3a03000 	mov	r3, #0
    8184:	e3433f20 	movt	r3, #16160	@ 0x3f20
    8188:	e3a02903 	mov	r2, #49152	@ 0xc000
    818c:	e5832098 	str	r2, [r3, #152]	@ 0x98
    8190:	e3a00096 	mov	r0, #150	@ 0x96
    8194:	eb00027b 	bl	8b88 <delay>
    8198:	e3a03000 	mov	r3, #0
    819c:	e3433f20 	movt	r3, #16160	@ 0x3f20
    81a0:	e3a02000 	mov	r2, #0
    81a4:	e5832098 	str	r2, [r3, #152]	@ 0x98
    81a8:	e3a03a05 	mov	r3, #20480	@ 0x5000
    81ac:	e3433f21 	movt	r3, #16161	@ 0x3f21
    81b0:	e3a02001 	mov	r2, #1
    81b4:	e5832004 	str	r2, [r3, #4]
    81b8:	e3053040 	movw	r3, #20544	@ 0x5040
    81bc:	e3433f21 	movt	r3, #16161	@ 0x3f21
    81c0:	e3a02000 	mov	r2, #0
    81c4:	e5832020 	str	r2, [r3, #32]
    81c8:	e3053040 	movw	r3, #20544	@ 0x5040
    81cc:	e3433f21 	movt	r3, #16161	@ 0x3f21
    81d0:	e3a02000 	mov	r2, #0
    81d4:	e5832004 	str	r2, [r3, #4]
    81d8:	e3053040 	movw	r3, #20544	@ 0x5040
    81dc:	e3433f21 	movt	r3, #16161	@ 0x3f21
    81e0:	e3a02003 	mov	r2, #3
    81e4:	e583200c 	str	r2, [r3, #12]
    81e8:	e3053040 	movw	r3, #20544	@ 0x5040
    81ec:	e3433f21 	movt	r3, #16161	@ 0x3f21
    81f0:	e3a02000 	mov	r2, #0
    81f4:	e5832010 	str	r2, [r3, #16]
    81f8:	e3053040 	movw	r3, #20544	@ 0x5040
    81fc:	e3433f21 	movt	r3, #16161	@ 0x3f21
    8200:	e300210e 	movw	r2, #270	@ 0x10e
    8204:	e5832028 	str	r2, [r3, #40]	@ 0x28
    8208:	e3053040 	movw	r3, #20544	@ 0x5040
    820c:	e3433f21 	movt	r3, #16161	@ 0x3f21
    8210:	e3a02003 	mov	r2, #3
    8214:	e5832020 	str	r2, [r3, #32]
    8218:	e320f000 	nop	{0}
    821c:	e24bd004 	sub	sp, fp, #4
    8220:	e8bd8800 	pop	{fp, pc}

00008224 <uart_putc>:
    8224:	e52db004 	push	{fp}		@ (str fp, [sp, #-4]!)
    8228:	e28db000 	add	fp, sp, #0
    822c:	e24dd00c 	sub	sp, sp, #12
    8230:	e1a03000 	mov	r3, r0
    8234:	e54b3005 	strb	r3, [fp, #-5]
    8238:	e320f000 	nop	{0}
    823c:	e3053040 	movw	r3, #20544	@ 0x5040
    8240:	e3433f21 	movt	r3, #16161	@ 0x3f21
    8244:	e5933014 	ldr	r3, [r3, #20]
    8248:	e2033020 	and	r3, r3, #32
    824c:	e3530000 	cmp	r3, #0
    8250:	0afffff9 	beq	823c <uart_putc+0x18>
    8254:	e3053040 	movw	r3, #20544	@ 0x5040
    8258:	e3433f21 	movt	r3, #16161	@ 0x3f21
    825c:	e55b2005 	ldrb	r2, [fp, #-5]
    8260:	e5832000 	str	r2, [r3]
    8264:	e320f000 	nop	{0}
    8268:	e28bd000 	add	sp, fp, #0
    826c:	e49db004 	pop	{fp}		@ (ldr fp, [sp], #4)
    8270:	e12fff1e 	bx	lr

00008274 <uart_puts>:
    8274:	e92d4800 	push	{fp, lr}
    8278:	e28db004 	add	fp, sp, #4
    827c:	e24dd008 	sub	sp, sp, #8
    8280:	e50b0008 	str	r0, [fp, #-8]
    8284:	ea000006 	b	82a4 <uart_puts+0x30>
    8288:	e51b3008 	ldr	r3, [fp, #-8]
    828c:	e5d33000 	ldrb	r3, [r3]
    8290:	e1a00003 	mov	r0, r3
    8294:	ebffffe2 	bl	8224 <uart_putc>
    8298:	e51b3008 	ldr	r3, [fp, #-8]
    829c:	e2833001 	add	r3, r3, #1
    82a0:	e50b3008 	str	r3, [fp, #-8]
    82a4:	e51b3008 	ldr	r3, [fp, #-8]
    82a8:	e5d33000 	ldrb	r3, [r3]
    82ac:	e3530000 	cmp	r3, #0
    82b0:	1afffff4 	bne	8288 <uart_puts+0x14>
    82b4:	e320f000 	nop	{0}
    82b8:	e320f000 	nop	{0}
    82bc:	e24bd004 	sub	sp, fp, #4
    82c0:	e8bd8800 	pop	{fp, pc}

000082c4 <uart_getc>:
    82c4:	e52db004 	push	{fp}		@ (str fp, [sp, #-4]!)
    82c8:	e28db000 	add	fp, sp, #0
    82cc:	e320f000 	nop	{0}
    82d0:	e3053040 	movw	r3, #20544	@ 0x5040
    82d4:	e3433f21 	movt	r3, #16161	@ 0x3f21
    82d8:	e5933014 	ldr	r3, [r3, #20]
    82dc:	e2033001 	and	r3, r3, #1
    82e0:	e3530000 	cmp	r3, #0
    82e4:	0afffff9 	beq	82d0 <uart_getc+0xc>
    82e8:	e3053040 	movw	r3, #20544	@ 0x5040
    82ec:	e3433f21 	movt	r3, #16161	@ 0x3f21
    82f0:	e5933000 	ldr	r3, [r3]
    82f4:	e6ef3073 	uxtb	r3, r3
    82f8:	e1a00003 	mov	r0, r3
    82fc:	e28bd000 	add	sp, fp, #0
    8300:	e49db004 	pop	{fp}		@ (ldr fp, [sp], #4)
    8304:	e12fff1e 	bx	lr

00008308 <printa_oi>:
    8308:	e52db004 	push	{fp}		@ (str fp, [sp, #-4]!)
    830c:	e28db000 	add	fp, sp, #0
    8310:	e24dd00c 	sub	sp, sp, #12
    8314:	e50b0008 	str	r0, [fp, #-8]
    8318:	e320f000 	nop	{0}
    831c:	e28bd000 	add	sp, fp, #0
    8320:	e49db004 	pop	{fp}		@ (ldr fp, [sp], #4)
    8324:	e12fff1e 	bx	lr

00008328 <periodo_alto_pwm_em_micro_segundos_dado_angulo>:
    8328:	e52db004 	push	{fp}		@ (str fp, [sp, #-4]!)
    832c:	e28db000 	add	fp, sp, #0
    8330:	e24dd00c 	sub	sp, sp, #12
    8334:	e50b0008 	str	r0, [fp, #-8]
    8338:	e51b3008 	ldr	r3, [fp, #-8]
    833c:	e353005a 	cmp	r3, #90	@ 0x5a
    8340:	da000001 	ble	834c <periodo_alto_pwm_em_micro_segundos_dado_angulo+0x24>
    8344:	e3a03e7d 	mov	r3, #2000	@ 0x7d0
    8348:	ea000010 	b	8390 <periodo_alto_pwm_em_micro_segundos_dado_angulo+0x68>
    834c:	e51b3008 	ldr	r3, [fp, #-8]
    8350:	e373005a 	cmn	r3, #90	@ 0x5a
    8354:	aa000001 	bge	8360 <periodo_alto_pwm_em_micro_segundos_dado_angulo+0x38>
    8358:	e3a03ffa 	mov	r3, #1000	@ 0x3e8
    835c:	ea00000b 	b	8390 <periodo_alto_pwm_em_micro_segundos_dado_angulo+0x68>
    8360:	e51b3008 	ldr	r3, [fp, #-8]
    8364:	e3a02f7d 	mov	r2, #500	@ 0x1f4
    8368:	e0030392 	mul	r3, r2, r3
    836c:	e30620b7 	movw	r2, #24759	@ 0x60b7
    8370:	e34b260b 	movt	r2, #46603	@ 0xb60b
    8374:	e0c21392 	smull	r1, r2, r2, r3
    8378:	e0822003 	add	r2, r2, r3
    837c:	e1a02342 	asr	r2, r2, #6
    8380:	e1a03fc3 	asr	r3, r3, #31
    8384:	e0423003 	sub	r3, r2, r3
    8388:	e2833e5d 	add	r3, r3, #1488	@ 0x5d0
    838c:	e283300c 	add	r3, r3, #12
    8390:	e1a00003 	mov	r0, r3
    8394:	e28bd000 	add	sp, fp, #0
    8398:	e49db004 	pop	{fp}		@ (ldr fp, [sp], #4)
    839c:	e12fff1e 	bx	lr

000083a0 <distancia_em_mm_dada_duracao_echo>:
    83a0:	e52db004 	push	{fp}		@ (str fp, [sp, #-4]!)
    83a4:	e28db000 	add	fp, sp, #0
    83a8:	e24dd00c 	sub	sp, sp, #12
    83ac:	e50b0008 	str	r0, [fp, #-8]
    83b0:	e51b3008 	ldr	r3, [fp, #-8]
    83b4:	e3002157 	movw	r2, #343	@ 0x157
    83b8:	e0020392 	mul	r2, r2, r3
    83bc:	e3073e3f 	movw	r3, #32319	@ 0x7e3f
    83c0:	e3403005 	movt	r3, #5
    83c4:	e1520003 	cmp	r2, r3
    83c8:	ca000009 	bgt	83f4 <distancia_em_mm_dada_duracao_echo+0x54>
    83cc:	e51b3008 	ldr	r3, [fp, #-8]
    83d0:	e3002157 	movw	r2, #343	@ 0x157
    83d4:	e0020392 	mul	r2, r2, r3
    83d8:	e3043dd3 	movw	r3, #19923	@ 0x4dd3
    83dc:	e3413062 	movt	r3, #4194	@ 0x1062
    83e0:	e0c31293 	smull	r1, r3, r3, r2
    83e4:	e1a013c3 	asr	r1, r3, #7
    83e8:	e1a03fc2 	asr	r3, r2, #31
    83ec:	e0413003 	sub	r3, r1, r3
    83f0:	ea000000 	b	83f8 <distancia_em_mm_dada_duracao_echo+0x58>
    83f4:	e3e03000 	mvn	r3, #0
    83f8:	e1a00003 	mov	r0, r3
    83fc:	e28bd000 	add	sp, fp, #0
    8400:	e49db004 	pop	{fp}		@ (ldr fp, [sp], #4)
    8404:	e12fff1e 	bx	lr

00008408 <controle>:
    8408:	e92d4800 	push	{fp, lr}
    840c:	e28db004 	add	fp, sp, #4
    8410:	e24dd030 	sub	sp, sp, #48	@ 0x30
    8414:	e50b0030 	str	r0, [fp, #-48]	@ 0xffffffd0
    8418:	e3a0302e 	mov	r3, #46	@ 0x2e
    841c:	e54b3015 	strb	r3, [fp, #-21]	@ 0xffffffeb
    8420:	e3a03000 	mov	r3, #0
    8424:	e50b3008 	str	r3, [fp, #-8]
    8428:	e51b0030 	ldr	r0, [fp, #-48]	@ 0xffffffd0
    842c:	ebffffdb 	bl	83a0 <distancia_em_mm_dada_duracao_echo>
    8430:	e50b001c 	str	r0, [fp, #-28]	@ 0xffffffe4
    8434:	e3a03000 	mov	r3, #0
    8438:	e50b3008 	str	r3, [fp, #-8]
    843c:	ea000005 	b	8458 <controle+0x50>
    8440:	e55b3015 	ldrb	r3, [fp, #-21]	@ 0xffffffeb
    8444:	e1a00003 	mov	r0, r3
    8448:	ebffff75 	bl	8224 <uart_putc>
    844c:	e51b3008 	ldr	r3, [fp, #-8]
    8450:	e2833001 	add	r3, r3, #1
    8454:	e50b3008 	str	r3, [fp, #-8]
    8458:	e51b2008 	ldr	r2, [fp, #-8]
    845c:	e51b301c 	ldr	r3, [fp, #-28]	@ 0xffffffe4
    8460:	e1520003 	cmp	r2, r3
    8464:	dafffff5 	ble	8440 <controle+0x38>
    8468:	e3a0300a 	mov	r3, #10
    846c:	e54b3015 	strb	r3, [fp, #-21]	@ 0xffffffeb
    8470:	e55b3015 	ldrb	r3, [fp, #-21]	@ 0xffffffeb
    8474:	e1a00003 	mov	r0, r3
    8478:	ebffff69 	bl	8224 <uart_putc>
    847c:	e3a0300a 	mov	r3, #10
    8480:	e54b3015 	strb	r3, [fp, #-21]	@ 0xffffffeb
    8484:	e55b3015 	ldrb	r3, [fp, #-21]	@ 0xffffffeb
    8488:	e1a00003 	mov	r0, r3
    848c:	ebffff64 	bl	8224 <uart_putc>
    8490:	e51b301c 	ldr	r3, [fp, #-28]	@ 0xffffffe4
    8494:	e3730001 	cmn	r3, #1
    8498:	1a000008 	bne	84c0 <controle+0xb8>
    849c:	e3a0306f 	mov	r3, #111	@ 0x6f
    84a0:	e54b3015 	strb	r3, [fp, #-21]	@ 0xffffffeb
    84a4:	e55b3015 	ldrb	r3, [fp, #-21]	@ 0xffffffeb
    84a8:	e1a00003 	mov	r0, r3
    84ac:	ebffff5c 	bl	8224 <uart_putc>
    84b0:	e30206ac 	movw	r0, #9900	@ 0x26ac
    84b4:	ebffff9b 	bl	8328 <periodo_alto_pwm_em_micro_segundos_dado_angulo>
    84b8:	e1a03000 	mov	r3, r0
    84bc:	ea0001ae 	b	8b7c <controle+0x774>
    84c0:	e3083f10 	movw	r3, #36624	@ 0x8f10
    84c4:	e3403000 	movt	r3, #0
    84c8:	e5932028 	ldr	r2, [r3, #40]	@ 0x28
    84cc:	e3083f10 	movw	r3, #36624	@ 0x8f10
    84d0:	e3403000 	movt	r3, #0
    84d4:	e583202c 	str	r2, [r3, #44]	@ 0x2c
    84d8:	e3083f10 	movw	r3, #36624	@ 0x8f10
    84dc:	e3403000 	movt	r3, #0
    84e0:	e5932024 	ldr	r2, [r3, #36]	@ 0x24
    84e4:	e3083f10 	movw	r3, #36624	@ 0x8f10
    84e8:	e3403000 	movt	r3, #0
    84ec:	e5832028 	str	r2, [r3, #40]	@ 0x28
    84f0:	e3083f10 	movw	r3, #36624	@ 0x8f10
    84f4:	e3403000 	movt	r3, #0
    84f8:	e5932020 	ldr	r2, [r3, #32]
    84fc:	e3083f10 	movw	r3, #36624	@ 0x8f10
    8500:	e3403000 	movt	r3, #0
    8504:	e5832024 	str	r2, [r3, #36]	@ 0x24
    8508:	e3083f10 	movw	r3, #36624	@ 0x8f10
    850c:	e3403000 	movt	r3, #0
    8510:	e593201c 	ldr	r2, [r3, #28]
    8514:	e3083f10 	movw	r3, #36624	@ 0x8f10
    8518:	e3403000 	movt	r3, #0
    851c:	e5832020 	str	r2, [r3, #32]
    8520:	e3083f10 	movw	r3, #36624	@ 0x8f10
    8524:	e3403000 	movt	r3, #0
    8528:	e5932018 	ldr	r2, [r3, #24]
    852c:	e3083f10 	movw	r3, #36624	@ 0x8f10
    8530:	e3403000 	movt	r3, #0
    8534:	e583201c 	str	r2, [r3, #28]
    8538:	e3083f10 	movw	r3, #36624	@ 0x8f10
    853c:	e3403000 	movt	r3, #0
    8540:	e5932014 	ldr	r2, [r3, #20]
    8544:	e3083f10 	movw	r3, #36624	@ 0x8f10
    8548:	e3403000 	movt	r3, #0
    854c:	e5832018 	str	r2, [r3, #24]
    8550:	e3083f10 	movw	r3, #36624	@ 0x8f10
    8554:	e3403000 	movt	r3, #0
    8558:	e5932010 	ldr	r2, [r3, #16]
    855c:	e3083f10 	movw	r3, #36624	@ 0x8f10
    8560:	e3403000 	movt	r3, #0
    8564:	e5832014 	str	r2, [r3, #20]
    8568:	e3083f10 	movw	r3, #36624	@ 0x8f10
    856c:	e3403000 	movt	r3, #0
    8570:	e593200c 	ldr	r2, [r3, #12]
    8574:	e3083f10 	movw	r3, #36624	@ 0x8f10
    8578:	e3403000 	movt	r3, #0
    857c:	e5832010 	str	r2, [r3, #16]
    8580:	e3083f10 	movw	r3, #36624	@ 0x8f10
    8584:	e3403000 	movt	r3, #0
    8588:	e5932008 	ldr	r2, [r3, #8]
    858c:	e3083f10 	movw	r3, #36624	@ 0x8f10
    8590:	e3403000 	movt	r3, #0
    8594:	e583200c 	str	r2, [r3, #12]
    8598:	e3083f10 	movw	r3, #36624	@ 0x8f10
    859c:	e3403000 	movt	r3, #0
    85a0:	e5932004 	ldr	r2, [r3, #4]
    85a4:	e3083f10 	movw	r3, #36624	@ 0x8f10
    85a8:	e3403000 	movt	r3, #0
    85ac:	e5832008 	str	r2, [r3, #8]
    85b0:	e3083f10 	movw	r3, #36624	@ 0x8f10
    85b4:	e3403000 	movt	r3, #0
    85b8:	e5932000 	ldr	r2, [r3]
    85bc:	e3083f10 	movw	r3, #36624	@ 0x8f10
    85c0:	e3403000 	movt	r3, #0
    85c4:	e5832004 	str	r2, [r3, #4]
    85c8:	e3083f10 	movw	r3, #36624	@ 0x8f10
    85cc:	e3403000 	movt	r3, #0
    85d0:	e51b201c 	ldr	r2, [fp, #-28]	@ 0xffffffe4
    85d4:	e5832000 	str	r2, [r3]
    85d8:	e3a0305e 	mov	r3, #94	@ 0x5e
    85dc:	e50b3020 	str	r3, [fp, #-32]	@ 0xffffffe0
    85e0:	e3a03000 	mov	r3, #0
    85e4:	e50b3024 	str	r3, [fp, #-36]	@ 0xffffffdc
    85e8:	e3a03000 	mov	r3, #0
    85ec:	e50b3028 	str	r3, [fp, #-40]	@ 0xffffffd8
    85f0:	e51b3028 	ldr	r3, [fp, #-40]	@ 0xffffffd8
    85f4:	e3530000 	cmp	r3, #0
    85f8:	1a000003 	bne	860c <controle+0x204>
    85fc:	e3a03000 	mov	r3, #0
    8600:	e50b3024 	str	r3, [fp, #-36]	@ 0xffffffdc
    8604:	e51b301c 	ldr	r3, [fp, #-28]	@ 0xffffffe4
    8608:	e50b300c 	str	r3, [fp, #-12]
    860c:	e51b3028 	ldr	r3, [fp, #-40]	@ 0xffffffd8
    8610:	e3530001 	cmp	r3, #1
    8614:	1a000024 	bne	86ac <controle+0x2a4>
    8618:	e3a03000 	mov	r3, #0
    861c:	e50b3024 	str	r3, [fp, #-36]	@ 0xffffffdc
    8620:	e3083f10 	movw	r3, #36624	@ 0x8f10
    8624:	e3403000 	movt	r3, #0
    8628:	e5932000 	ldr	r2, [r3]
    862c:	e3083f10 	movw	r3, #36624	@ 0x8f10
    8630:	e3403000 	movt	r3, #0
    8634:	e5933004 	ldr	r3, [r3, #4]
    8638:	e0822003 	add	r2, r2, r3
    863c:	e3083f10 	movw	r3, #36624	@ 0x8f10
    8640:	e3403000 	movt	r3, #0
    8644:	e5933008 	ldr	r3, [r3, #8]
    8648:	e0822003 	add	r2, r2, r3
    864c:	e3083f10 	movw	r3, #36624	@ 0x8f10
    8650:	e3403000 	movt	r3, #0
    8654:	e593300c 	ldr	r3, [r3, #12]
    8658:	e0822003 	add	r2, r2, r3
    865c:	e3083f10 	movw	r3, #36624	@ 0x8f10
    8660:	e3403000 	movt	r3, #0
    8664:	e5933010 	ldr	r3, [r3, #16]
    8668:	e0822003 	add	r2, r2, r3
    866c:	e3083f10 	movw	r3, #36624	@ 0x8f10
    8670:	e3403000 	movt	r3, #0
    8674:	e5933014 	ldr	r3, [r3, #20]
    8678:	e0822003 	add	r2, r2, r3
    867c:	e30a3aab 	movw	r3, #43691	@ 0xaaab
    8680:	e3423aaa 	movt	r3, #10922	@ 0x2aaa
    8684:	e0c13293 	smull	r3, r1, r3, r2
    8688:	e1a03fc2 	asr	r3, r2, #31
    868c:	e0413003 	sub	r3, r1, r3
    8690:	e50b300c 	str	r3, [fp, #-12]
    8694:	e51b200c 	ldr	r2, [fp, #-12]
    8698:	e51b3020 	ldr	r3, [fp, #-32]	@ 0xffffffe0
    869c:	e0422003 	sub	r2, r2, r3
    86a0:	e51b3024 	ldr	r3, [fp, #-36]	@ 0xffffffdc
    86a4:	e0030392 	mul	r3, r2, r3
    86a8:	e50b3010 	str	r3, [fp, #-16]
    86ac:	e51b3028 	ldr	r3, [fp, #-40]	@ 0xffffffd8
    86b0:	e3530002 	cmp	r3, #2
    86b4:	1a00003f 	bne	87b8 <controle+0x3b0>
    86b8:	e3a03000 	mov	r3, #0
    86bc:	e50b3024 	str	r3, [fp, #-36]	@ 0xffffffdc
    86c0:	e3083f10 	movw	r3, #36624	@ 0x8f10
    86c4:	e3403000 	movt	r3, #0
    86c8:	e5932000 	ldr	r2, [r3]
    86cc:	e3083f10 	movw	r3, #36624	@ 0x8f10
    86d0:	e3403000 	movt	r3, #0
    86d4:	e5933004 	ldr	r3, [r3, #4]
    86d8:	e0822003 	add	r2, r2, r3
    86dc:	e3083f10 	movw	r3, #36624	@ 0x8f10
    86e0:	e3403000 	movt	r3, #0
    86e4:	e5933008 	ldr	r3, [r3, #8]
    86e8:	e0822003 	add	r2, r2, r3
    86ec:	e3083f10 	movw	r3, #36624	@ 0x8f10
    86f0:	e3403000 	movt	r3, #0
    86f4:	e593300c 	ldr	r3, [r3, #12]
    86f8:	e0822003 	add	r2, r2, r3
    86fc:	e3083f10 	movw	r3, #36624	@ 0x8f10
    8700:	e3403000 	movt	r3, #0
    8704:	e5933010 	ldr	r3, [r3, #16]
    8708:	e0822003 	add	r2, r2, r3
    870c:	e3083f10 	movw	r3, #36624	@ 0x8f10
    8710:	e3403000 	movt	r3, #0
    8714:	e5933014 	ldr	r3, [r3, #20]
    8718:	e0822003 	add	r2, r2, r3
    871c:	e30a3aab 	movw	r3, #43691	@ 0xaaab
    8720:	e3423aaa 	movt	r3, #10922	@ 0x2aaa
    8724:	e0c13293 	smull	r3, r1, r3, r2
    8728:	e1a03fc2 	asr	r3, r2, #31
    872c:	e0411003 	sub	r1, r1, r3
    8730:	e3083f10 	movw	r3, #36624	@ 0x8f10
    8734:	e3403000 	movt	r3, #0
    8738:	e5932018 	ldr	r2, [r3, #24]
    873c:	e3083f10 	movw	r3, #36624	@ 0x8f10
    8740:	e3403000 	movt	r3, #0
    8744:	e593301c 	ldr	r3, [r3, #28]
    8748:	e0822003 	add	r2, r2, r3
    874c:	e3083f10 	movw	r3, #36624	@ 0x8f10
    8750:	e3403000 	movt	r3, #0
    8754:	e5933020 	ldr	r3, [r3, #32]
    8758:	e0822003 	add	r2, r2, r3
    875c:	e3083f10 	movw	r3, #36624	@ 0x8f10
    8760:	e3403000 	movt	r3, #0
    8764:	e5933024 	ldr	r3, [r3, #36]	@ 0x24
    8768:	e0822003 	add	r2, r2, r3
    876c:	e3083f10 	movw	r3, #36624	@ 0x8f10
    8770:	e3403000 	movt	r3, #0
    8774:	e5933028 	ldr	r3, [r3, #40]	@ 0x28
    8778:	e0822003 	add	r2, r2, r3
    877c:	e3083f10 	movw	r3, #36624	@ 0x8f10
    8780:	e3403000 	movt	r3, #0
    8784:	e593302c 	ldr	r3, [r3, #44]	@ 0x2c
    8788:	e0822003 	add	r2, r2, r3
    878c:	e30a3aab 	movw	r3, #43691	@ 0xaaab
    8790:	e3423aaa 	movt	r3, #10922	@ 0x2aaa
    8794:	e0c30293 	smull	r0, r3, r3, r2
    8798:	e1a02fc2 	asr	r2, r2, #31
    879c:	e0423003 	sub	r3, r2, r3
    87a0:	e0813003 	add	r3, r1, r3
    87a4:	e50b300c 	str	r3, [fp, #-12]
    87a8:	e51b300c 	ldr	r3, [fp, #-12]
    87ac:	e51b2024 	ldr	r2, [fp, #-36]	@ 0xffffffdc
    87b0:	e0030392 	mul	r3, r2, r3
    87b4:	e50b3010 	str	r3, [fp, #-16]
    87b8:	e3a0302c 	mov	r3, #44	@ 0x2c
    87bc:	e54b3015 	strb	r3, [fp, #-21]	@ 0xffffffeb
    87c0:	e3a03000 	mov	r3, #0
    87c4:	e50b3014 	str	r3, [fp, #-20]	@ 0xffffffec
    87c8:	e3a03000 	mov	r3, #0
    87cc:	e50b3014 	str	r3, [fp, #-20]	@ 0xffffffec
    87d0:	ea000005 	b	87ec <controle+0x3e4>
    87d4:	e55b3015 	ldrb	r3, [fp, #-21]	@ 0xffffffeb
    87d8:	e1a00003 	mov	r0, r3
    87dc:	ebfffe90 	bl	8224 <uart_putc>
    87e0:	e51b3014 	ldr	r3, [fp, #-20]	@ 0xffffffec
    87e4:	e2833001 	add	r3, r3, #1
    87e8:	e50b3014 	str	r3, [fp, #-20]	@ 0xffffffec
    87ec:	e51b2014 	ldr	r2, [fp, #-20]	@ 0xffffffec
    87f0:	e51b300c 	ldr	r3, [fp, #-12]
    87f4:	e1520003 	cmp	r2, r3
    87f8:	bafffff5 	blt	87d4 <controle+0x3cc>
    87fc:	e3a0300a 	mov	r3, #10
    8800:	e54b3015 	strb	r3, [fp, #-21]	@ 0xffffffeb
    8804:	e55b3015 	ldrb	r3, [fp, #-21]	@ 0xffffffeb
    8808:	e1a00003 	mov	r0, r3
    880c:	ebfffe84 	bl	8224 <uart_putc>
    8810:	e51b3010 	ldr	r3, [fp, #-16]
    8814:	e3530005 	cmp	r3, #5
    8818:	da00003b 	ble	890c <controle+0x504>
    881c:	e3a0305f 	mov	r3, #95	@ 0x5f
    8820:	e54b3015 	strb	r3, [fp, #-21]	@ 0xffffffeb
    8824:	e55b3015 	ldrb	r3, [fp, #-21]	@ 0xffffffeb
    8828:	e1a00003 	mov	r0, r3
    882c:	ebfffe7c 	bl	8224 <uart_putc>
    8830:	e3a0305f 	mov	r3, #95	@ 0x5f
    8834:	e54b3015 	strb	r3, [fp, #-21]	@ 0xffffffeb
    8838:	e55b3015 	ldrb	r3, [fp, #-21]	@ 0xffffffeb
    883c:	e1a00003 	mov	r0, r3
    8840:	ebfffe77 	bl	8224 <uart_putc>
    8844:	e3a0305f 	mov	r3, #95	@ 0x5f
    8848:	e54b3015 	strb	r3, [fp, #-21]	@ 0xffffffeb
    884c:	e55b3015 	ldrb	r3, [fp, #-21]	@ 0xffffffeb
    8850:	e1a00003 	mov	r0, r3
    8854:	ebfffe72 	bl	8224 <uart_putc>
    8858:	e3a0305f 	mov	r3, #95	@ 0x5f
    885c:	e54b3015 	strb	r3, [fp, #-21]	@ 0xffffffeb
    8860:	e55b3015 	ldrb	r3, [fp, #-21]	@ 0xffffffeb
    8864:	e1a00003 	mov	r0, r3
    8868:	ebfffe6d 	bl	8224 <uart_putc>
    886c:	e3a0304f 	mov	r3, #79	@ 0x4f
    8870:	e54b3015 	strb	r3, [fp, #-21]	@ 0xffffffeb
    8874:	e55b3015 	ldrb	r3, [fp, #-21]	@ 0xffffffeb
    8878:	e1a00003 	mov	r0, r3
    887c:	ebfffe68 	bl	8224 <uart_putc>
    8880:	e3a0300a 	mov	r3, #10
    8884:	e54b3015 	strb	r3, [fp, #-21]	@ 0xffffffeb
    8888:	e55b3015 	ldrb	r3, [fp, #-21]	@ 0xffffffeb
    888c:	e1a00003 	mov	r0, r3
    8890:	ebfffe63 	bl	8224 <uart_putc>
    8894:	e3a03020 	mov	r3, #32
    8898:	e54b3015 	strb	r3, [fp, #-21]	@ 0xffffffeb
    889c:	e55b3015 	ldrb	r3, [fp, #-21]	@ 0xffffffeb
    88a0:	e1a00003 	mov	r0, r3
    88a4:	ebfffe5e 	bl	8224 <uart_putc>
    88a8:	e3a03020 	mov	r3, #32
    88ac:	e54b3015 	strb	r3, [fp, #-21]	@ 0xffffffeb
    88b0:	e55b3015 	ldrb	r3, [fp, #-21]	@ 0xffffffeb
    88b4:	e1a00003 	mov	r0, r3
    88b8:	ebfffe59 	bl	8224 <uart_putc>
    88bc:	e3a03056 	mov	r3, #86	@ 0x56
    88c0:	e54b3015 	strb	r3, [fp, #-21]	@ 0xffffffeb
    88c4:	e55b3015 	ldrb	r3, [fp, #-21]	@ 0xffffffeb
    88c8:	e1a00003 	mov	r0, r3
    88cc:	ebfffe54 	bl	8224 <uart_putc>
    88d0:	e3a03020 	mov	r3, #32
    88d4:	e54b3015 	strb	r3, [fp, #-21]	@ 0xffffffeb
    88d8:	e55b3015 	ldrb	r3, [fp, #-21]	@ 0xffffffeb
    88dc:	e1a00003 	mov	r0, r3
    88e0:	ebfffe4f 	bl	8224 <uart_putc>
    88e4:	e3a03020 	mov	r3, #32
    88e8:	e54b3015 	strb	r3, [fp, #-21]	@ 0xffffffeb
    88ec:	e55b3015 	ldrb	r3, [fp, #-21]	@ 0xffffffeb
    88f0:	e1a00003 	mov	r0, r3
    88f4:	ebfffe4a 	bl	8224 <uart_putc>
    88f8:	e3a0300a 	mov	r3, #10
    88fc:	e54b3015 	strb	r3, [fp, #-21]	@ 0xffffffeb
    8900:	e55b3015 	ldrb	r3, [fp, #-21]	@ 0xffffffeb
    8904:	e1a00003 	mov	r0, r3
    8908:	ebfffe45 	bl	8224 <uart_putc>
    890c:	e51b3010 	ldr	r3, [fp, #-16]
    8910:	e3730005 	cmn	r3, #5
    8914:	aa00003b 	bge	8a08 <controle+0x600>
    8918:	e3a0304f 	mov	r3, #79	@ 0x4f
    891c:	e54b3015 	strb	r3, [fp, #-21]	@ 0xffffffeb
    8920:	e55b3015 	ldrb	r3, [fp, #-21]	@ 0xffffffeb
    8924:	e1a00003 	mov	r0, r3
    8928:	ebfffe3d 	bl	8224 <uart_putc>
    892c:	e3a03020 	mov	r3, #32
    8930:	e54b3015 	strb	r3, [fp, #-21]	@ 0xffffffeb
    8934:	e55b3015 	ldrb	r3, [fp, #-21]	@ 0xffffffeb
    8938:	e1a00003 	mov	r0, r3
    893c:	ebfffe38 	bl	8224 <uart_putc>
    8940:	e3a0305f 	mov	r3, #95	@ 0x5f
    8944:	e54b3015 	strb	r3, [fp, #-21]	@ 0xffffffeb
    8948:	e55b3015 	ldrb	r3, [fp, #-21]	@ 0xffffffeb
    894c:	e1a00003 	mov	r0, r3
    8950:	ebfffe33 	bl	8224 <uart_putc>
    8954:	e3a0305f 	mov	r3, #95	@ 0x5f
    8958:	e54b3015 	strb	r3, [fp, #-21]	@ 0xffffffeb
    895c:	e55b3015 	ldrb	r3, [fp, #-21]	@ 0xffffffeb
    8960:	e1a00003 	mov	r0, r3
    8964:	ebfffe2e 	bl	8224 <uart_putc>
    8968:	e3a0305f 	mov	r3, #95	@ 0x5f
    896c:	e54b3015 	strb	r3, [fp, #-21]	@ 0xffffffeb
    8970:	e55b3015 	ldrb	r3, [fp, #-21]	@ 0xffffffeb
    8974:	e1a00003 	mov	r0, r3
    8978:	ebfffe29 	bl	8224 <uart_putc>
    897c:	e3a0300a 	mov	r3, #10
    8980:	e54b3015 	strb	r3, [fp, #-21]	@ 0xffffffeb
    8984:	e55b3015 	ldrb	r3, [fp, #-21]	@ 0xffffffeb
    8988:	e1a00003 	mov	r0, r3
    898c:	ebfffe24 	bl	8224 <uart_putc>
    8990:	e3a03020 	mov	r3, #32
    8994:	e54b3015 	strb	r3, [fp, #-21]	@ 0xffffffeb
    8998:	e55b3015 	ldrb	r3, [fp, #-21]	@ 0xffffffeb
    899c:	e1a00003 	mov	r0, r3
    89a0:	ebfffe1f 	bl	8224 <uart_putc>
    89a4:	e3a03020 	mov	r3, #32
    89a8:	e54b3015 	strb	r3, [fp, #-21]	@ 0xffffffeb
    89ac:	e55b3015 	ldrb	r3, [fp, #-21]	@ 0xffffffeb
    89b0:	e1a00003 	mov	r0, r3
    89b4:	ebfffe1a 	bl	8224 <uart_putc>
    89b8:	e3a03056 	mov	r3, #86	@ 0x56
    89bc:	e54b3015 	strb	r3, [fp, #-21]	@ 0xffffffeb
    89c0:	e55b3015 	ldrb	r3, [fp, #-21]	@ 0xffffffeb
    89c4:	e1a00003 	mov	r0, r3
    89c8:	ebfffe15 	bl	8224 <uart_putc>
    89cc:	e3a03020 	mov	r3, #32
    89d0:	e54b3015 	strb	r3, [fp, #-21]	@ 0xffffffeb
    89d4:	e55b3015 	ldrb	r3, [fp, #-21]	@ 0xffffffeb
    89d8:	e1a00003 	mov	r0, r3
    89dc:	ebfffe10 	bl	8224 <uart_putc>
    89e0:	e3a03020 	mov	r3, #32
    89e4:	e54b3015 	strb	r3, [fp, #-21]	@ 0xffffffeb
    89e8:	e55b3015 	ldrb	r3, [fp, #-21]	@ 0xffffffeb
    89ec:	e1a00003 	mov	r0, r3
    89f0:	ebfffe0b 	bl	8224 <uart_putc>
    89f4:	e3a0300a 	mov	r3, #10
    89f8:	e54b3015 	strb	r3, [fp, #-21]	@ 0xffffffeb
    89fc:	e55b3015 	ldrb	r3, [fp, #-21]	@ 0xffffffeb
    8a00:	e1a00003 	mov	r0, r3
    8a04:	ebfffe06 	bl	8224 <uart_putc>
    8a08:	e51b3010 	ldr	r3, [fp, #-16]
    8a0c:	e3730005 	cmn	r3, #5
    8a10:	ba00003e 	blt	8b10 <controle+0x708>
    8a14:	e51b3010 	ldr	r3, [fp, #-16]
    8a18:	e3530005 	cmp	r3, #5
    8a1c:	ca00003b 	bgt	8b10 <controle+0x708>
    8a20:	e3a0305f 	mov	r3, #95	@ 0x5f
    8a24:	e54b3015 	strb	r3, [fp, #-21]	@ 0xffffffeb
    8a28:	e55b3015 	ldrb	r3, [fp, #-21]	@ 0xffffffeb
    8a2c:	e1a00003 	mov	r0, r3
    8a30:	ebfffdfb 	bl	8224 <uart_putc>
    8a34:	e3a0305f 	mov	r3, #95	@ 0x5f
    8a38:	e54b3015 	strb	r3, [fp, #-21]	@ 0xffffffeb
    8a3c:	e55b3015 	ldrb	r3, [fp, #-21]	@ 0xffffffeb
    8a40:	e1a00003 	mov	r0, r3
    8a44:	ebfffdf6 	bl	8224 <uart_putc>
    8a48:	e3a03056 	mov	r3, #86	@ 0x56
    8a4c:	e54b3015 	strb	r3, [fp, #-21]	@ 0xffffffeb
    8a50:	e55b3015 	ldrb	r3, [fp, #-21]	@ 0xffffffeb
    8a54:	e1a00003 	mov	r0, r3
    8a58:	ebfffdf1 	bl	8224 <uart_putc>
    8a5c:	e3a0305f 	mov	r3, #95	@ 0x5f
    8a60:	e54b3015 	strb	r3, [fp, #-21]	@ 0xffffffeb
    8a64:	e55b3015 	ldrb	r3, [fp, #-21]	@ 0xffffffeb
    8a68:	e1a00003 	mov	r0, r3
    8a6c:	ebfffdec 	bl	8224 <uart_putc>
    8a70:	e3a0305f 	mov	r3, #95	@ 0x5f
    8a74:	e54b3015 	strb	r3, [fp, #-21]	@ 0xffffffeb
    8a78:	e55b3015 	ldrb	r3, [fp, #-21]	@ 0xffffffeb
    8a7c:	e1a00003 	mov	r0, r3
    8a80:	ebfffde7 	bl	8224 <uart_putc>
    8a84:	e3a0300a 	mov	r3, #10
    8a88:	e54b3015 	strb	r3, [fp, #-21]	@ 0xffffffeb
    8a8c:	e55b3015 	ldrb	r3, [fp, #-21]	@ 0xffffffeb
    8a90:	e1a00003 	mov	r0, r3
    8a94:	ebfffde2 	bl	8224 <uart_putc>
    8a98:	e3a03020 	mov	r3, #32
    8a9c:	e54b3015 	strb	r3, [fp, #-21]	@ 0xffffffeb
    8aa0:	e55b3015 	ldrb	r3, [fp, #-21]	@ 0xffffffeb
    8aa4:	e1a00003 	mov	r0, r3
    8aa8:	ebfffddd 	bl	8224 <uart_putc>
    8aac:	e3a03020 	mov	r3, #32
    8ab0:	e54b3015 	strb	r3, [fp, #-21]	@ 0xffffffeb
    8ab4:	e55b3015 	ldrb	r3, [fp, #-21]	@ 0xffffffeb
    8ab8:	e1a00003 	mov	r0, r3
    8abc:	ebfffdd8 	bl	8224 <uart_putc>
    8ac0:	e3a03056 	mov	r3, #86	@ 0x56
    8ac4:	e54b3015 	strb	r3, [fp, #-21]	@ 0xffffffeb
    8ac8:	e55b3015 	ldrb	r3, [fp, #-21]	@ 0xffffffeb
    8acc:	e1a00003 	mov	r0, r3
    8ad0:	ebfffdd3 	bl	8224 <uart_putc>
    8ad4:	e3a03020 	mov	r3, #32
    8ad8:	e54b3015 	strb	r3, [fp, #-21]	@ 0xffffffeb
    8adc:	e55b3015 	ldrb	r3, [fp, #-21]	@ 0xffffffeb
    8ae0:	e1a00003 	mov	r0, r3
    8ae4:	ebfffdce 	bl	8224 <uart_putc>
    8ae8:	e3a03020 	mov	r3, #32
    8aec:	e54b3015 	strb	r3, [fp, #-21]	@ 0xffffffeb
    8af0:	e55b3015 	ldrb	r3, [fp, #-21]	@ 0xffffffeb
    8af4:	e1a00003 	mov	r0, r3
    8af8:	ebfffdc9 	bl	8224 <uart_putc>
    8afc:	e3a0300a 	mov	r3, #10
    8b00:	e54b3015 	strb	r3, [fp, #-21]	@ 0xffffffeb
    8b04:	e55b3015 	ldrb	r3, [fp, #-21]	@ 0xffffffeb
    8b08:	e1a00003 	mov	r0, r3
    8b0c:	ebfffdc4 	bl	8224 <uart_putc>
    8b10:	e51b3010 	ldr	r3, [fp, #-16]
    8b14:	e353005a 	cmp	r3, #90	@ 0x5a
    8b18:	da000008 	ble	8b40 <controle+0x738>
    8b1c:	e3a0302b 	mov	r3, #43	@ 0x2b
    8b20:	e54b3015 	strb	r3, [fp, #-21]	@ 0xffffffeb
    8b24:	e55b3015 	ldrb	r3, [fp, #-21]	@ 0xffffffeb
    8b28:	e1a00003 	mov	r0, r3
    8b2c:	ebfffdbc 	bl	8224 <uart_putc>
    8b30:	e30206ac 	movw	r0, #9900	@ 0x26ac
    8b34:	ebfffdfb 	bl	8328 <periodo_alto_pwm_em_micro_segundos_dado_angulo>
    8b38:	e1a03000 	mov	r3, r0
    8b3c:	ea00000e 	b	8b7c <controle+0x774>
    8b40:	e51b3010 	ldr	r3, [fp, #-16]
    8b44:	e373005a 	cmn	r3, #90	@ 0x5a
    8b48:	aa000008 	bge	8b70 <controle+0x768>
    8b4c:	e3a0302d 	mov	r3, #45	@ 0x2d
    8b50:	e54b3015 	strb	r3, [fp, #-21]	@ 0xffffffeb
    8b54:	e55b3015 	ldrb	r3, [fp, #-21]	@ 0xffffffeb
    8b58:	e1a00003 	mov	r0, r3
    8b5c:	ebfffdb0 	bl	8224 <uart_putc>
    8b60:	e30206ac 	movw	r0, #9900	@ 0x26ac
    8b64:	ebfffdef 	bl	8328 <periodo_alto_pwm_em_micro_segundos_dado_angulo>
    8b68:	e1a03000 	mov	r3, r0
    8b6c:	ea000002 	b	8b7c <controle+0x774>
    8b70:	e51b0010 	ldr	r0, [fp, #-16]
    8b74:	ebfffdeb 	bl	8328 <periodo_alto_pwm_em_micro_segundos_dado_angulo>
    8b78:	e1a03000 	mov	r3, r0
    8b7c:	e1a00003 	mov	r0, r3
    8b80:	e24bd004 	sub	sp, fp, #4
    8b84:	e8bd8800 	pop	{fp, pc}

00008b88 <delay>:
    8b88:	e2500001 	subs	r0, r0, #1
    8b8c:	1afffffd 	bne	8b88 <delay>
    8b90:	e1a0f00e 	mov	pc, lr

00008b94 <enable_irq>:
    8b94:	e1b00000 	movs	r0, r0
    8b98:	0a000003 	beq	8bac <disable>
    8b9c:	e10f0000 	mrs	r0, CPSR
    8ba0:	e3c00080 	bic	r0, r0, #128	@ 0x80
    8ba4:	e121f000 	msr	CPSR_c, r0
    8ba8:	e1a0f00e 	mov	pc, lr

00008bac <disable>:
    8bac:	e10f0000 	mrs	r0, CPSR
    8bb0:	e3800080 	orr	r0, r0, #128	@ 0x80
    8bb4:	e121f000 	msr	CPSR_c, r0
    8bb8:	e1a0f00e 	mov	pc, lr

00008bbc <get_cpsr>:
    8bbc:	e10f0000 	mrs	r0, CPSR
    8bc0:	e1a0f00e 	mov	pc, lr

00008bc4 <main_codigo>:
    8bc4:	ebfffd24 	bl	805c <uart_init>
    8bc8:	e59f0310 	ldr	r0, [pc, #784]	@ 8ee0 <delay_loop+0x10>
    8bcc:	e5901000 	ldr	r1, [r0]
    8bd0:	e3c11038 	bic	r1, r1, #56	@ 0x38
    8bd4:	e3811008 	orr	r1, r1, #8
    8bd8:	e5801000 	str	r1, [r0]
    8bdc:	e59f02fc 	ldr	r0, [pc, #764]	@ 8ee0 <delay_loop+0x10>
    8be0:	e5901000 	ldr	r1, [r0]
    8be4:	e3c11707 	bic	r1, r1, #1835008	@ 0x1c0000
    8be8:	e3811701 	orr	r1, r1, #262144	@ 0x40000
    8bec:	e5801000 	str	r1, [r0]
    8bf0:	e59f02e8 	ldr	r0, [pc, #744]	@ 8ee0 <delay_loop+0x10>
    8bf4:	e5901000 	ldr	r1, [r0]
    8bf8:	e3c11007 	bic	r1, r1, #7
    8bfc:	e5801000 	str	r1, [r0]
    8c00:	e3a03009 	mov	r3, #9
    8c04:	e59f62d8 	ldr	r6, [pc, #728]	@ 8ee4 <delay_loop+0x14>
    8c08:	e59f82d8 	ldr	r8, [pc, #728]	@ 8ee8 <delay_loop+0x18>
    8c0c:	e59f72d8 	ldr	r7, [pc, #728]	@ 8eec <delay_loop+0x1c>
    8c10:	e3a09000 	mov	r9, #0
    8c14:	e59f02d4 	ldr	r0, [pc, #724]	@ 8ef0 <delay_loop+0x20>
    8c18:	e5901004 	ldr	r1, [r0, #4]
    8c1c:	e0811006 	add	r1, r1, r6
    8c20:	e3a04002 	mov	r4, #2
    8c24:	e5804000 	str	r4, [r0]
    8c28:	e59f02c0 	ldr	r0, [pc, #704]	@ 8ef0 <delay_loop+0x20>
    8c2c:	e5902004 	ldr	r2, [r0, #4]
    8c30:	e0822003 	add	r2, r2, r3
    8c34:	e3a04008 	mov	r4, #8
    8c38:	e5804000 	str	r4, [r0]

00008c3c <escuta>:
    8c3c:	e5881000 	str	r1, [r8]
    8c40:	e59f02a8 	ldr	r0, [pc, #680]	@ 8ef0 <delay_loop+0x20>
    8c44:	e5904000 	ldr	r4, [r0]
    8c48:	e3140002 	tst	r4, #2
    8c4c:	0a000000 	beq	8c54 <nao_tempo_igual_a_r1>

00008c50 <tempo_igual_a_r1>:
    8c50:	eb000064 	bl	8de8 <faz_borda_pwm_e_atualiza_r1>

00008c54 <nao_tempo_igual_a_r1>:
    8c54:	e5872000 	str	r2, [r7]
    8c58:	e59f0290 	ldr	r0, [pc, #656]	@ 8ef0 <delay_loop+0x20>
    8c5c:	e5904000 	ldr	r4, [r0]
    8c60:	e3140008 	tst	r4, #8
    8c64:	0a000000 	beq	8c6c <nao_tempo_igual_a_r2>

00008c68 <tempo_igual_a_r2>:
    8c68:	eb00006e 	bl	8e28 <faz_borda_pwm_e_atualiza_r2>

00008c6c <nao_tempo_igual_a_r2>:
    8c6c:	e3590000 	cmp	r9, #0
    8c70:	1a000024 	bne	8d08 <nao_ativou_20>
    8c74:	e59f0278 	ldr	r0, [pc, #632]	@ 8ef4 <delay_loop+0x24>
    8c78:	e3a04601 	mov	r4, #1048576	@ 0x100000
    8c7c:	e5904000 	ldr	r4, [r0]
    8c80:	e2144601 	ands	r4, r4, #1048576	@ 0x100000
    8c84:	e3540000 	cmp	r4, #0
    8c88:	0a00001e 	beq	8d08 <nao_ativou_20>
    8c8c:	eb00008d 	bl	8ec8 <delay_igor>
    8c90:	e59f025c 	ldr	r0, [pc, #604]	@ 8ef4 <delay_loop+0x24>
    8c94:	e3a04601 	mov	r4, #1048576	@ 0x100000
    8c98:	e5904000 	ldr	r4, [r0]
    8c9c:	e2144601 	ands	r4, r4, #1048576	@ 0x100000
    8ca0:	e3540000 	cmp	r4, #0
    8ca4:	0a000017 	beq	8d08 <nao_ativou_20>
    8ca8:	eb000086 	bl	8ec8 <delay_igor>
    8cac:	e59f0240 	ldr	r0, [pc, #576]	@ 8ef4 <delay_loop+0x24>
    8cb0:	e3a04601 	mov	r4, #1048576	@ 0x100000
    8cb4:	e5904000 	ldr	r4, [r0]
    8cb8:	e2144601 	ands	r4, r4, #1048576	@ 0x100000
    8cbc:	e3540000 	cmp	r4, #0
    8cc0:	0a000010 	beq	8d08 <nao_ativou_20>
    8cc4:	eb00007f 	bl	8ec8 <delay_igor>
    8cc8:	e59f0224 	ldr	r0, [pc, #548]	@ 8ef4 <delay_loop+0x24>
    8ccc:	e3a04601 	mov	r4, #1048576	@ 0x100000
    8cd0:	e5904000 	ldr	r4, [r0]
    8cd4:	e2144601 	ands	r4, r4, #1048576	@ 0x100000
    8cd8:	e3540000 	cmp	r4, #0
    8cdc:	0a000009 	beq	8d08 <nao_ativou_20>
    8ce0:	eb000078 	bl	8ec8 <delay_igor>

00008ce4 <ativou_20>:
    8ce4:	e92d4fff 	push	{r0, r1, r2, r3, r4, r5, r6, r7, r8, r9, sl, fp, lr}
    8ce8:	e3a0000a 	mov	r0, #10
    8cec:	ebfffd85 	bl	8308 <printa_oi>
    8cf0:	e8bd4fff 	pop	{r0, r1, r2, r3, r4, r5, r6, r7, r8, r9, sl, fp, lr}
    8cf4:	e59f01f4 	ldr	r0, [pc, #500]	@ 8ef0 <delay_loop+0x20>
    8cf8:	e5909004 	ldr	r9, [r0, #4]
    8cfc:	e2160001 	ands	r0, r6, #1
    8d00:	1a000000 	bne	8d08 <nao_ativou_20>

00008d04 <tem_0_>:
    8d04:	eaffffff 	b	8d08 <nao_ativou_20>

00008d08 <nao_ativou_20>:
    8d08:	e3590000 	cmp	r9, #0
    8d0c:	0a000034 	beq	8de4 <desativou_mas_valor_estourou>
    8d10:	e59f01dc 	ldr	r0, [pc, #476]	@ 8ef4 <delay_loop+0x24>
    8d14:	e3a04601 	mov	r4, #1048576	@ 0x100000
    8d18:	e5904000 	ldr	r4, [r0]
    8d1c:	e2144601 	ands	r4, r4, #1048576	@ 0x100000
    8d20:	e3540000 	cmp	r4, #0
    8d24:	1a00002e 	bne	8de4 <desativou_mas_valor_estourou>
    8d28:	eb000066 	bl	8ec8 <delay_igor>
    8d2c:	e59f01c0 	ldr	r0, [pc, #448]	@ 8ef4 <delay_loop+0x24>
    8d30:	e3a04601 	mov	r4, #1048576	@ 0x100000
    8d34:	e5904000 	ldr	r4, [r0]
    8d38:	e2144601 	ands	r4, r4, #1048576	@ 0x100000
    8d3c:	e3540000 	cmp	r4, #0
    8d40:	1a000027 	bne	8de4 <desativou_mas_valor_estourou>
    8d44:	eb00005f 	bl	8ec8 <delay_igor>
    8d48:	e59f01a4 	ldr	r0, [pc, #420]	@ 8ef4 <delay_loop+0x24>
    8d4c:	e3a04601 	mov	r4, #1048576	@ 0x100000
    8d50:	e5904000 	ldr	r4, [r0]
    8d54:	e2144601 	ands	r4, r4, #1048576	@ 0x100000
    8d58:	e3540000 	cmp	r4, #0
    8d5c:	1a000020 	bne	8de4 <desativou_mas_valor_estourou>

00008d60 <desativou_20>:
    8d60:	e92d4fff 	push	{r0, r1, r2, r3, r4, r5, r6, r7, r8, r9, sl, fp, lr}
    8d64:	e3a0000a 	mov	r0, #10
    8d68:	ebfffd66 	bl	8308 <printa_oi>
    8d6c:	e8bd4fff 	pop	{r0, r1, r2, r3, r4, r5, r6, r7, r8, r9, sl, fp, lr}
    8d70:	e59f0178 	ldr	r0, [pc, #376]	@ 8ef0 <delay_loop+0x20>
    8d74:	e5904004 	ldr	r4, [r0, #4]
    8d78:	e0449009 	sub	r9, r4, r9
    8d7c:	e3590000 	cmp	r9, #0
    8d80:	ba000017 	blt	8de4 <desativou_mas_valor_estourou>
    8d84:	e92d4ffe 	push	{r1, r2, r3, r4, r5, r6, r7, r8, r9, sl, fp, lr}
    8d88:	e1a00009 	mov	r0, r9
    8d8c:	ebfffd9d 	bl	8408 <controle>
    8d90:	e8bd4ffe 	pop	{r1, r2, r3, r4, r5, r6, r7, r8, r9, sl, fp, lr}
    8d94:	e1a09000 	mov	r9, r0
    8d98:	e59f0158 	ldr	r0, [pc, #344]	@ 8ef8 <delay_loop+0x28>
    8d9c:	e1a090a9 	lsr	r9, r9, #1
    8da0:	e1a09089 	lsl	r9, r9, #1
    8da4:	e2899001 	add	r9, r9, #1
    8da8:	e1500009 	cmp	r0, r9
    8dac:	5a000001 	bpl	8db8 <sem_bo>

00008db0 <com_bo>:
    8db0:	e3a09000 	mov	r9, #0
    8db4:	eb00000a 	bl	8de4 <desativou_mas_valor_estourou>

00008db8 <sem_bo>:
    8db8:	e59f0130 	ldr	r0, [pc, #304]	@ 8ef0 <delay_loop+0x20>
    8dbc:	e5904004 	ldr	r4, [r0, #4]
    8dc0:	e59f0130 	ldr	r0, [pc, #304]	@ 8ef8 <delay_loop+0x28>
    8dc4:	e0404009 	sub	r4, r0, r9
    8dc8:	e2160001 	ands	r0, r6, #1
    8dcc:	1a000002 	bne	8ddc <tem_1>

00008dd0 <tem_0>:
    8dd0:	e2846000 	add	r6, r4, #0
    8dd4:	e3a09000 	mov	r9, #0
    8dd8:	ea000001 	b	8de4 <desativou_mas_valor_estourou>

00008ddc <tem_1>:
    8ddc:	e2896000 	add	r6, r9, #0
    8de0:	e3a09000 	mov	r9, #0

00008de4 <desativou_mas_valor_estourou>:
    8de4:	eaffff94 	b	8c3c <escuta>

00008de8 <faz_borda_pwm_e_atualiza_r1>:
    8de8:	e52de004 	push	{lr}		@ (str lr, [sp, #-4]!)
    8dec:	e59f5104 	ldr	r5, [pc, #260]	@ 8ef8 <delay_loop+0x28>
    8df0:	e59f00f8 	ldr	r0, [pc, #248]	@ 8ef0 <delay_loop+0x20>
    8df4:	e5901004 	ldr	r1, [r0, #4]
    8df8:	e0456006 	sub	r6, r5, r6
    8dfc:	e0811006 	add	r1, r1, r6
    8e00:	e3a04002 	mov	r4, #2
    8e04:	e5804000 	str	r4, [r0]
    8e08:	e3160001 	tst	r6, #1
    8e0c:	0a000001 	beq	8e18 <faz_borda_pwm_e_atualiza_r1_apagar>
    8e10:	eb00001a 	bl	8e80 <acende_21>
    8e14:	ea000001 	b	8e20 <faz_borda_pwm_e_atualiza_r1_fim>

00008e18 <faz_borda_pwm_e_atualiza_r1_apagar>:
    8e18:	eb000012 	bl	8e68 <apaga_21>
    8e1c:	eaffffff 	b	8e20 <faz_borda_pwm_e_atualiza_r1_fim>

00008e20 <faz_borda_pwm_e_atualiza_r1_fim>:
    8e20:	e49de004 	pop	{lr}		@ (ldr lr, [sp], #4)
    8e24:	e12fff1e 	bx	lr

00008e28 <faz_borda_pwm_e_atualiza_r2>:
    8e28:	e52de004 	push	{lr}		@ (str lr, [sp, #-4]!)
    8e2c:	e59f50c8 	ldr	r5, [pc, #200]	@ 8efc <delay_loop+0x2c>
    8e30:	e59f00b8 	ldr	r0, [pc, #184]	@ 8ef0 <delay_loop+0x20>
    8e34:	e5902004 	ldr	r2, [r0, #4]
    8e38:	e0453003 	sub	r3, r5, r3
    8e3c:	e0822003 	add	r2, r2, r3
    8e40:	e3a04008 	mov	r4, #8
    8e44:	e5804000 	str	r4, [r0]
    8e48:	e3130001 	tst	r3, #1
    8e4c:	0a000001 	beq	8e58 <faz_borda_pwm_e_atualiza_r2_apagar>
    8e50:	eb000016 	bl	8eb0 <acende_26>
    8e54:	ea000001 	b	8e60 <faz_borda_pwm_e_atualiza_r2_fim>

00008e58 <faz_borda_pwm_e_atualiza_r2_apagar>:
    8e58:	eb00000e 	bl	8e98 <apaga_26>
    8e5c:	eaffffff 	b	8e60 <faz_borda_pwm_e_atualiza_r2_fim>

00008e60 <faz_borda_pwm_e_atualiza_r2_fim>:
    8e60:	e49de004 	pop	{lr}		@ (ldr lr, [sp], #4)
    8e64:	e12fff1e 	bx	lr

00008e68 <apaga_21>:
    8e68:	e92d4003 	push	{r0, r1, lr}
    8e6c:	e59f008c 	ldr	r0, [pc, #140]	@ 8f00 <delay_loop+0x30>
    8e70:	e3a01602 	mov	r1, #2097152	@ 0x200000
    8e74:	e5801000 	str	r1, [r0]
    8e78:	e8bd4003 	pop	{r0, r1, lr}
    8e7c:	e12fff1e 	bx	lr

00008e80 <acende_21>:
    8e80:	e92d4003 	push	{r0, r1, lr}
    8e84:	e59f0078 	ldr	r0, [pc, #120]	@ 8f04 <delay_loop+0x34>
    8e88:	e3a01602 	mov	r1, #2097152	@ 0x200000
    8e8c:	e5801000 	str	r1, [r0]
    8e90:	e8bd4003 	pop	{r0, r1, lr}
    8e94:	e12fff1e 	bx	lr

00008e98 <apaga_26>:
    8e98:	e92d4003 	push	{r0, r1, lr}
    8e9c:	e59f005c 	ldr	r0, [pc, #92]	@ 8f00 <delay_loop+0x30>
    8ea0:	e3a01301 	mov	r1, #67108864	@ 0x4000000
    8ea4:	e5801000 	str	r1, [r0]
    8ea8:	e8bd4003 	pop	{r0, r1, lr}
    8eac:	e12fff1e 	bx	lr

00008eb0 <acende_26>:
    8eb0:	e92d4003 	push	{r0, r1, lr}
    8eb4:	e59f0048 	ldr	r0, [pc, #72]	@ 8f04 <delay_loop+0x34>
    8eb8:	e3a01301 	mov	r1, #67108864	@ 0x4000000
    8ebc:	e5801000 	str	r1, [r0]
    8ec0:	e8bd4003 	pop	{r0, r1, lr}
    8ec4:	e12fff1e 	bx	lr

00008ec8 <delay_igor>:
    8ec8:	e92d4001 	push	{r0, lr}
    8ecc:	e3a00064 	mov	r0, #100	@ 0x64

00008ed0 <delay_loop>:
    8ed0:	e2500001 	subs	r0, r0, #1
    8ed4:	1afffffd 	bne	8ed0 <delay_loop>
    8ed8:	e8bd4001 	pop	{r0, lr}
    8edc:	e12fff1e 	bx	lr
    8ee0:	3f200008 	.word	0x3f200008
    8ee4:	00001001 	.word	0x00001001
    8ee8:	3f003010 	.word	0x3f003010
    8eec:	3f003018 	.word	0x3f003018
    8ef0:	3f003000 	.word	0x3f003000
    8ef4:	3f200034 	.word	0x3f200034
    8ef8:	00004e21 	.word	0x00004e21
    8efc:	0000d001 	.word	0x0000d001
    8f00:	3f200028 	.word	0x3f200028
    8f04:	3f20001c 	.word	0x3f20001c
