
teste.elf:     file format elf32-littlearm


Disassembly of section .text:

00008000 <i2c_init>:
    8000:	e52db004 	push	{fp}		@ (str fp, [sp, #-4]!)
    8004:	e28db000 	add	fp, sp, #0
    8008:	e24dd00c 	sub	sp, sp, #12
    800c:	e3a03000 	mov	r3, #0
    8010:	e3433f20 	movt	r3, #16160	@ 0x3f20
    8014:	e5933000 	ldr	r3, [r3]
    8018:	e50b3008 	str	r3, [fp, #-8]
    801c:	e51b3008 	ldr	r3, [fp, #-8]
    8020:	e3c33d3f 	bic	r3, r3, #4032	@ 0xfc0
    8024:	e3833c09 	orr	r3, r3, #2304	@ 0x900
    8028:	e50b3008 	str	r3, [fp, #-8]
    802c:	e3a03000 	mov	r3, #0
    8030:	e3433f20 	movt	r3, #16160	@ 0x3f20
    8034:	e51b2008 	ldr	r2, [fp, #-8]
    8038:	e5832000 	str	r2, [r3]
    803c:	e3a03901 	mov	r3, #16384	@ 0x4000
    8040:	e3433f80 	movt	r3, #16256	@ 0x3f80
    8044:	e5932000 	ldr	r2, [r3]
    8048:	e3a03901 	mov	r3, #16384	@ 0x4000
    804c:	e3433f80 	movt	r3, #16256	@ 0x3f80
    8050:	e3822902 	orr	r2, r2, #32768	@ 0x8000
    8054:	e5832000 	str	r2, [r3]
    8058:	e320f000 	nop	{0}
    805c:	e28bd000 	add	sp, fp, #0
    8060:	e49db004 	pop	{fp}		@ (ldr fp, [sp], #4)
    8064:	e12fff1e 	bx	lr

00008068 <i2c_write>:
    8068:	e52db004 	push	{fp}		@ (str fp, [sp, #-4]!)
    806c:	e28db000 	add	fp, sp, #0
    8070:	e24dd014 	sub	sp, sp, #20
    8074:	e1a03000 	mov	r3, r0
    8078:	e50b100c 	str	r1, [fp, #-12]
    807c:	e50b2010 	str	r2, [fp, #-16]
    8080:	e54b3005 	strb	r3, [fp, #-5]
    8084:	e3a03901 	mov	r3, #16384	@ 0x4000
    8088:	e3433f80 	movt	r3, #16256	@ 0x3f80
    808c:	e5933004 	ldr	r3, [r3, #4]
    8090:	e3a02901 	mov	r2, #16384	@ 0x4000
    8094:	e3432f80 	movt	r2, #16256	@ 0x3f80
    8098:	e3833c03 	orr	r3, r3, #768	@ 0x300
    809c:	e3833002 	orr	r3, r3, #2
    80a0:	e5823004 	str	r3, [r2, #4]
    80a4:	e3a03901 	mov	r3, #16384	@ 0x4000
    80a8:	e3433f80 	movt	r3, #16256	@ 0x3f80
    80ac:	e5932000 	ldr	r2, [r3]
    80b0:	e3a03901 	mov	r3, #16384	@ 0x4000
    80b4:	e3433f80 	movt	r3, #16256	@ 0x3f80
    80b8:	e3822010 	orr	r2, r2, #16
    80bc:	e5832000 	str	r2, [r3]
    80c0:	e3a03901 	mov	r3, #16384	@ 0x4000
    80c4:	e3433f80 	movt	r3, #16256	@ 0x3f80
    80c8:	e55b2005 	ldrb	r2, [fp, #-5]
    80cc:	e583200c 	str	r2, [r3, #12]
    80d0:	e3a03901 	mov	r3, #16384	@ 0x4000
    80d4:	e3433f80 	movt	r3, #16256	@ 0x3f80
    80d8:	e5932000 	ldr	r2, [r3]
    80dc:	e3a03901 	mov	r3, #16384	@ 0x4000
    80e0:	e3433f80 	movt	r3, #16256	@ 0x3f80
    80e4:	e3c22001 	bic	r2, r2, #1
    80e8:	e5832000 	str	r2, [r3]
    80ec:	e3a03901 	mov	r3, #16384	@ 0x4000
    80f0:	e3433f80 	movt	r3, #16256	@ 0x3f80
    80f4:	e51b2010 	ldr	r2, [fp, #-16]
    80f8:	e5832008 	str	r2, [r3, #8]
    80fc:	e3a03901 	mov	r3, #16384	@ 0x4000
    8100:	e3433f80 	movt	r3, #16256	@ 0x3f80
    8104:	e5932000 	ldr	r2, [r3]
    8108:	e3a03901 	mov	r3, #16384	@ 0x4000
    810c:	e3433f80 	movt	r3, #16256	@ 0x3f80
    8110:	e3822080 	orr	r2, r2, #128	@ 0x80
    8114:	e5832000 	str	r2, [r3]
    8118:	ea000016 	b	8178 <i2c_write+0x110>
    811c:	e3a03901 	mov	r3, #16384	@ 0x4000
    8120:	e3433f80 	movt	r3, #16256	@ 0x3f80
    8124:	e5933004 	ldr	r3, [r3, #4]
    8128:	e2033010 	and	r3, r3, #16
    812c:	e3530000 	cmp	r3, #0
    8130:	0a000008 	beq	8158 <i2c_write+0xf0>
    8134:	e51b300c 	ldr	r3, [fp, #-12]
    8138:	e5d32000 	ldrb	r2, [r3]
    813c:	e3a03901 	mov	r3, #16384	@ 0x4000
    8140:	e3433f80 	movt	r3, #16256	@ 0x3f80
    8144:	e5832010 	str	r2, [r3, #16]
    8148:	e51b300c 	ldr	r3, [fp, #-12]
    814c:	e2833001 	add	r3, r3, #1
    8150:	e50b300c 	str	r3, [fp, #-12]
    8154:	ea000007 	b	8178 <i2c_write+0x110>
    8158:	e3a03901 	mov	r3, #16384	@ 0x4000
    815c:	e3433f80 	movt	r3, #16256	@ 0x3f80
    8160:	e5933004 	ldr	r3, [r3, #4]
    8164:	e2033c01 	and	r3, r3, #256	@ 0x100
    8168:	e3530000 	cmp	r3, #0
    816c:	0a000001 	beq	8178 <i2c_write+0x110>
    8170:	e3a03000 	mov	r3, #0
    8174:	ea000006 	b	8194 <i2c_write+0x12c>
    8178:	e3a03901 	mov	r3, #16384	@ 0x4000
    817c:	e3433f80 	movt	r3, #16256	@ 0x3f80
    8180:	e5933004 	ldr	r3, [r3, #4]
    8184:	e2033002 	and	r3, r3, #2
    8188:	e3530000 	cmp	r3, #0
    818c:	0affffe2 	beq	811c <i2c_write+0xb4>
    8190:	e3a03001 	mov	r3, #1
    8194:	e1a00003 	mov	r0, r3
    8198:	e28bd000 	add	sp, fp, #0
    819c:	e49db004 	pop	{fp}		@ (ldr fp, [sp], #4)
    81a0:	e12fff1e 	bx	lr

000081a4 <i2c_read>:
    81a4:	e52db004 	push	{fp}		@ (str fp, [sp, #-4]!)
    81a8:	e28db000 	add	fp, sp, #0
    81ac:	e24dd014 	sub	sp, sp, #20
    81b0:	e1a03000 	mov	r3, r0
    81b4:	e50b100c 	str	r1, [fp, #-12]
    81b8:	e50b2010 	str	r2, [fp, #-16]
    81bc:	e54b3005 	strb	r3, [fp, #-5]
    81c0:	e3a03901 	mov	r3, #16384	@ 0x4000
    81c4:	e3433f80 	movt	r3, #16256	@ 0x3f80
    81c8:	e5933004 	ldr	r3, [r3, #4]
    81cc:	e3a02901 	mov	r2, #16384	@ 0x4000
    81d0:	e3432f80 	movt	r2, #16256	@ 0x3f80
    81d4:	e3833c03 	orr	r3, r3, #768	@ 0x300
    81d8:	e3833002 	orr	r3, r3, #2
    81dc:	e5823004 	str	r3, [r2, #4]
    81e0:	e3a03901 	mov	r3, #16384	@ 0x4000
    81e4:	e3433f80 	movt	r3, #16256	@ 0x3f80
    81e8:	e5932000 	ldr	r2, [r3]
    81ec:	e3a03901 	mov	r3, #16384	@ 0x4000
    81f0:	e3433f80 	movt	r3, #16256	@ 0x3f80
    81f4:	e3822010 	orr	r2, r2, #16
    81f8:	e5832000 	str	r2, [r3]
    81fc:	e3a03901 	mov	r3, #16384	@ 0x4000
    8200:	e3433f80 	movt	r3, #16256	@ 0x3f80
    8204:	e55b2005 	ldrb	r2, [fp, #-5]
    8208:	e583200c 	str	r2, [r3, #12]
    820c:	e3a03901 	mov	r3, #16384	@ 0x4000
    8210:	e3433f80 	movt	r3, #16256	@ 0x3f80
    8214:	e5932000 	ldr	r2, [r3]
    8218:	e3a03901 	mov	r3, #16384	@ 0x4000
    821c:	e3433f80 	movt	r3, #16256	@ 0x3f80
    8220:	e3822001 	orr	r2, r2, #1
    8224:	e5832000 	str	r2, [r3]
    8228:	e3a03901 	mov	r3, #16384	@ 0x4000
    822c:	e3433f80 	movt	r3, #16256	@ 0x3f80
    8230:	e51b2010 	ldr	r2, [fp, #-16]
    8234:	e5832008 	str	r2, [r3, #8]
    8238:	e3a03901 	mov	r3, #16384	@ 0x4000
    823c:	e3433f80 	movt	r3, #16256	@ 0x3f80
    8240:	e5932000 	ldr	r2, [r3]
    8244:	e3a03901 	mov	r3, #16384	@ 0x4000
    8248:	e3433f80 	movt	r3, #16256	@ 0x3f80
    824c:	e3822080 	orr	r2, r2, #128	@ 0x80
    8250:	e5832000 	str	r2, [r3]
    8254:	ea000017 	b	82b8 <i2c_read+0x114>
    8258:	e3a03901 	mov	r3, #16384	@ 0x4000
    825c:	e3433f80 	movt	r3, #16256	@ 0x3f80
    8260:	e5933004 	ldr	r3, [r3, #4]
    8264:	e2033020 	and	r3, r3, #32
    8268:	e3530000 	cmp	r3, #0
    826c:	0a000009 	beq	8298 <i2c_read+0xf4>
    8270:	e3a03901 	mov	r3, #16384	@ 0x4000
    8274:	e3433f80 	movt	r3, #16256	@ 0x3f80
    8278:	e5933010 	ldr	r3, [r3, #16]
    827c:	e6ef2073 	uxtb	r2, r3
    8280:	e51b300c 	ldr	r3, [fp, #-12]
    8284:	e5c32000 	strb	r2, [r3]
    8288:	e51b300c 	ldr	r3, [fp, #-12]
    828c:	e2833001 	add	r3, r3, #1
    8290:	e50b300c 	str	r3, [fp, #-12]
    8294:	ea000007 	b	82b8 <i2c_read+0x114>
    8298:	e3a03901 	mov	r3, #16384	@ 0x4000
    829c:	e3433f80 	movt	r3, #16256	@ 0x3f80
    82a0:	e5933004 	ldr	r3, [r3, #4]
    82a4:	e2033c01 	and	r3, r3, #256	@ 0x100
    82a8:	e3530000 	cmp	r3, #0
    82ac:	0a000001 	beq	82b8 <i2c_read+0x114>
    82b0:	e3a03000 	mov	r3, #0
    82b4:	ea000006 	b	82d4 <i2c_read+0x130>
    82b8:	e3a03901 	mov	r3, #16384	@ 0x4000
    82bc:	e3433f80 	movt	r3, #16256	@ 0x3f80
    82c0:	e5933004 	ldr	r3, [r3, #4]
    82c4:	e2033002 	and	r3, r3, #2
    82c8:	e3530000 	cmp	r3, #0
    82cc:	0affffe1 	beq	8258 <i2c_read+0xb4>
    82d0:	e3a03001 	mov	r3, #1
    82d4:	e1a00003 	mov	r0, r3
    82d8:	e28bd000 	add	sp, fp, #0
    82dc:	e49db004 	pop	{fp}		@ (ldr fp, [sp], #4)
    82e0:	e12fff1e 	bx	lr

000082e4 <smbus_write_byte>:
    82e4:	e92d4800 	push	{fp, lr}
    82e8:	e28db004 	add	fp, sp, #4
    82ec:	e24dd010 	sub	sp, sp, #16
    82f0:	e1a03000 	mov	r3, r0
    82f4:	e54b300d 	strb	r3, [fp, #-13]
    82f8:	e1a03001 	mov	r3, r1
    82fc:	e54b300e 	strb	r3, [fp, #-14]
    8300:	e1a03002 	mov	r3, r2
    8304:	e54b300f 	strb	r3, [fp, #-15]
    8308:	e55b300e 	ldrb	r3, [fp, #-14]
    830c:	e54b3008 	strb	r3, [fp, #-8]
    8310:	e55b300f 	ldrb	r3, [fp, #-15]
    8314:	e54b3007 	strb	r3, [fp, #-7]
    8318:	e24b1008 	sub	r1, fp, #8
    831c:	e55b300d 	ldrb	r3, [fp, #-13]
    8320:	e3a02002 	mov	r2, #2
    8324:	e1a00003 	mov	r0, r3
    8328:	ebffff4e 	bl	8068 <i2c_write>
    832c:	e1a03000 	mov	r3, r0
    8330:	e1a00003 	mov	r0, r3
    8334:	e24bd004 	sub	sp, fp, #4
    8338:	e8bd8800 	pop	{fp, pc}

0000833c <smbus_write_word>:
    833c:	e92d4800 	push	{fp, lr}
    8340:	e28db004 	add	fp, sp, #4
    8344:	e24dd010 	sub	sp, sp, #16
    8348:	e1a03000 	mov	r3, r0
    834c:	e54b300d 	strb	r3, [fp, #-13]
    8350:	e1a03001 	mov	r3, r1
    8354:	e54b300e 	strb	r3, [fp, #-14]
    8358:	e1a03002 	mov	r3, r2
    835c:	e14b31b0 	strh	r3, [fp, #-16]
    8360:	e55b300e 	ldrb	r3, [fp, #-14]
    8364:	e54b3008 	strb	r3, [fp, #-8]
    8368:	e15b31b0 	ldrh	r3, [fp, #-16]
    836c:	e1a03423 	lsr	r3, r3, #8
    8370:	e6ff3073 	uxth	r3, r3
    8374:	e6ef3073 	uxtb	r3, r3
    8378:	e54b3007 	strb	r3, [fp, #-7]
    837c:	e15b31b0 	ldrh	r3, [fp, #-16]
    8380:	e6ef3073 	uxtb	r3, r3
    8384:	e54b3006 	strb	r3, [fp, #-6]
    8388:	e24b1008 	sub	r1, fp, #8
    838c:	e55b300d 	ldrb	r3, [fp, #-13]
    8390:	e3a02003 	mov	r2, #3
    8394:	e1a00003 	mov	r0, r3
    8398:	ebffff32 	bl	8068 <i2c_write>
    839c:	e1a03000 	mov	r3, r0
    83a0:	e1a00003 	mov	r0, r3
    83a4:	e24bd004 	sub	sp, fp, #4
    83a8:	e8bd8800 	pop	{fp, pc}

000083ac <smbus_read_byte>:
    83ac:	e92d4800 	push	{fp, lr}
    83b0:	e28db004 	add	fp, sp, #4
    83b4:	e24dd010 	sub	sp, sp, #16
    83b8:	e1a03000 	mov	r3, r0
    83bc:	e1a02001 	mov	r2, r1
    83c0:	e54b300d 	strb	r3, [fp, #-13]
    83c4:	e1a03002 	mov	r3, r2
    83c8:	e54b300e 	strb	r3, [fp, #-14]
    83cc:	e55b300e 	ldrb	r3, [fp, #-14]
    83d0:	e54b3008 	strb	r3, [fp, #-8]
    83d4:	e24b1008 	sub	r1, fp, #8
    83d8:	e55b300d 	ldrb	r3, [fp, #-13]
    83dc:	e3a02001 	mov	r2, #1
    83e0:	e1a00003 	mov	r0, r3
    83e4:	ebffff1f 	bl	8068 <i2c_write>
    83e8:	e1a03000 	mov	r3, r0
    83ec:	e2233001 	eor	r3, r3, #1
    83f0:	e6ef3073 	uxtb	r3, r3
    83f4:	e3530000 	cmp	r3, #0
    83f8:	0a000001 	beq	8404 <smbus_read_byte+0x58>
    83fc:	e3e03000 	mvn	r3, #0
    8400:	ea00000c 	b	8438 <smbus_read_byte+0x8c>
    8404:	e24b1008 	sub	r1, fp, #8
    8408:	e55b300d 	ldrb	r3, [fp, #-13]
    840c:	e3a02001 	mov	r2, #1
    8410:	e1a00003 	mov	r0, r3
    8414:	ebffff62 	bl	81a4 <i2c_read>
    8418:	e1a03000 	mov	r3, r0
    841c:	e2233001 	eor	r3, r3, #1
    8420:	e6ef3073 	uxtb	r3, r3
    8424:	e3530000 	cmp	r3, #0
    8428:	0a000001 	beq	8434 <smbus_read_byte+0x88>
    842c:	e3e03000 	mvn	r3, #0
    8430:	ea000000 	b	8438 <smbus_read_byte+0x8c>
    8434:	e55b3008 	ldrb	r3, [fp, #-8]
    8438:	e1a00003 	mov	r0, r3
    843c:	e24bd004 	sub	sp, fp, #4
    8440:	e8bd8800 	pop	{fp, pc}

00008444 <smbus_read_word>:
    8444:	e92d4800 	push	{fp, lr}
    8448:	e28db004 	add	fp, sp, #4
    844c:	e24dd010 	sub	sp, sp, #16
    8450:	e1a03000 	mov	r3, r0
    8454:	e1a02001 	mov	r2, r1
    8458:	e54b300d 	strb	r3, [fp, #-13]
    845c:	e1a03002 	mov	r3, r2
    8460:	e54b300e 	strb	r3, [fp, #-14]
    8464:	e55b300e 	ldrb	r3, [fp, #-14]
    8468:	e54b3008 	strb	r3, [fp, #-8]
    846c:	e3a03000 	mov	r3, #0
    8470:	e54b3007 	strb	r3, [fp, #-7]
    8474:	e24b1008 	sub	r1, fp, #8
    8478:	e55b300d 	ldrb	r3, [fp, #-13]
    847c:	e3a02001 	mov	r2, #1
    8480:	e1a00003 	mov	r0, r3
    8484:	ebfffef7 	bl	8068 <i2c_write>
    8488:	e1a03000 	mov	r3, r0
    848c:	e2233001 	eor	r3, r3, #1
    8490:	e6ef3073 	uxtb	r3, r3
    8494:	e3530000 	cmp	r3, #0
    8498:	0a000001 	beq	84a4 <smbus_read_word+0x60>
    849c:	e3e03000 	mvn	r3, #0
    84a0:	ea00000f 	b	84e4 <smbus_read_word+0xa0>
    84a4:	e24b1008 	sub	r1, fp, #8
    84a8:	e55b300d 	ldrb	r3, [fp, #-13]
    84ac:	e3a02002 	mov	r2, #2
    84b0:	e1a00003 	mov	r0, r3
    84b4:	ebffff3a 	bl	81a4 <i2c_read>
    84b8:	e1a03000 	mov	r3, r0
    84bc:	e2233001 	eor	r3, r3, #1
    84c0:	e6ef3073 	uxtb	r3, r3
    84c4:	e3530000 	cmp	r3, #0
    84c8:	0a000001 	beq	84d4 <smbus_read_word+0x90>
    84cc:	e3e03000 	mvn	r3, #0
    84d0:	ea000003 	b	84e4 <smbus_read_word+0xa0>
    84d4:	e55b3008 	ldrb	r3, [fp, #-8]
    84d8:	e1a03403 	lsl	r3, r3, #8
    84dc:	e55b2007 	ldrb	r2, [fp, #-7]
    84e0:	e1833002 	orr	r3, r3, r2
    84e4:	e1a00003 	mov	r0, r3
    84e8:	e24bd004 	sub	sp, fp, #4
    84ec:	e8bd8800 	pop	{fp, pc}

000084f0 <main>:
    84f0:	e92d4800 	push	{fp, lr}
    84f4:	e28db004 	add	fp, sp, #4
    84f8:	e24dd008 	sub	sp, sp, #8
    84fc:	e3a00cc2 	mov	r0, #49664	@ 0xc200
    8500:	e3400001 	movt	r0, #1
    8504:	eb0000ae 	bl	87c4 <mini_uart_init>
    8508:	ebfffebc 	bl	8000 <i2c_init>
    850c:	e3a010c0 	mov	r1, #192	@ 0xc0
    8510:	e3a00029 	mov	r0, #41	@ 0x29
    8514:	ebffffa4 	bl	83ac <smbus_read_byte>
    8518:	e50b0008 	str	r0, [fp, #-8]
    851c:	e30205a8 	movw	r0, #9640	@ 0x25a8
    8520:	e3400001 	movt	r0, #1
    8524:	eb00013e 	bl	8a24 <puts>
    8528:	e51b3008 	ldr	r3, [fp, #-8]
    852c:	e35300ee 	cmp	r3, #238	@ 0xee
    8530:	1a000007 	bne	8554 <main+0x64>
    8534:	e30205c8 	movw	r0, #9672	@ 0x25c8
    8538:	e3400001 	movt	r0, #1
    853c:	eb000138 	bl	8a24 <puts>
    8540:	e51b1008 	ldr	r1, [fp, #-8]
    8544:	e30205e0 	movw	r0, #9696	@ 0x25e0
    8548:	e3400001 	movt	r0, #1
    854c:	eb00028f 	bl	8f90 <printf>
    8550:	ea000002 	b	8560 <main+0x70>
    8554:	e30205ec 	movw	r0, #9708	@ 0x25ec
    8558:	e3400001 	movt	r0, #1
    855c:	eb000130 	bl	8a24 <puts>
    8560:	e3030a98 	movw	r0, #15000	@ 0x3a98
    8564:	eb000086 	bl	8784 <delay>
    8568:	eaffffe7 	b	850c <main+0x1c>

0000856c <_fstat>:
    856c:	e52db004 	push	{fp}		@ (str fp, [sp, #-4]!)
    8570:	e28db000 	add	fp, sp, #0
    8574:	e24dd00c 	sub	sp, sp, #12
    8578:	e50b0008 	str	r0, [fp, #-8]
    857c:	e50b100c 	str	r1, [fp, #-12]
    8580:	e51b300c 	ldr	r3, [fp, #-12]
    8584:	e3a02a02 	mov	r2, #8192	@ 0x2000
    8588:	e5832004 	str	r2, [r3, #4]
    858c:	e3a03000 	mov	r3, #0
    8590:	e1a00003 	mov	r0, r3
    8594:	e28bd000 	add	sp, fp, #0
    8598:	e49db004 	pop	{fp}		@ (ldr fp, [sp], #4)
    859c:	e12fff1e 	bx	lr

000085a0 <_lseek>:
    85a0:	e52db004 	push	{fp}		@ (str fp, [sp, #-4]!)
    85a4:	e28db000 	add	fp, sp, #0
    85a8:	e24dd014 	sub	sp, sp, #20
    85ac:	e50b0008 	str	r0, [fp, #-8]
    85b0:	e50b100c 	str	r1, [fp, #-12]
    85b4:	e50b2010 	str	r2, [fp, #-16]
    85b8:	e3a03000 	mov	r3, #0
    85bc:	e1a00003 	mov	r0, r3
    85c0:	e28bd000 	add	sp, fp, #0
    85c4:	e49db004 	pop	{fp}		@ (ldr fp, [sp], #4)
    85c8:	e12fff1e 	bx	lr

000085cc <_close>:
    85cc:	e52db004 	push	{fp}		@ (str fp, [sp, #-4]!)
    85d0:	e28db000 	add	fp, sp, #0
    85d4:	e24dd00c 	sub	sp, sp, #12
    85d8:	e50b0008 	str	r0, [fp, #-8]
    85dc:	e3e03000 	mvn	r3, #0
    85e0:	e1a00003 	mov	r0, r3
    85e4:	e28bd000 	add	sp, fp, #0
    85e8:	e49db004 	pop	{fp}		@ (ldr fp, [sp], #4)
    85ec:	e12fff1e 	bx	lr

000085f0 <_write>:
    85f0:	e92d4800 	push	{fp, lr}
    85f4:	e28db004 	add	fp, sp, #4
    85f8:	e24dd010 	sub	sp, sp, #16
    85fc:	e50b0008 	str	r0, [fp, #-8]
    8600:	e50b100c 	str	r1, [fp, #-12]
    8604:	e50b2010 	str	r2, [fp, #-16]
    8608:	e51b3008 	ldr	r3, [fp, #-8]
    860c:	e3530001 	cmp	r3, #1
    8610:	1a00000b 	bne	8644 <_write+0x54>
    8614:	ea000005 	b	8630 <_write+0x40>
    8618:	e51b300c 	ldr	r3, [fp, #-12]
    861c:	e2832001 	add	r2, r3, #1
    8620:	e50b200c 	str	r2, [fp, #-12]
    8624:	e5d33000 	ldrb	r3, [r3]
    8628:	e1a00003 	mov	r0, r3
    862c:	eb0000a7 	bl	88d0 <mini_uart_putc>
    8630:	e51b3010 	ldr	r3, [fp, #-16]
    8634:	e2432001 	sub	r2, r3, #1
    8638:	e50b2010 	str	r2, [fp, #-16]
    863c:	e3530000 	cmp	r3, #0
    8640:	1afffff4 	bne	8618 <_write+0x28>
    8644:	e51b3010 	ldr	r3, [fp, #-16]
    8648:	e1a00003 	mov	r0, r3
    864c:	e24bd004 	sub	sp, fp, #4
    8650:	e8bd8800 	pop	{fp, pc}

00008654 <_read>:
    8654:	e92d4810 	push	{r4, fp, lr}
    8658:	e28db008 	add	fp, sp, #8
    865c:	e24dd014 	sub	sp, sp, #20
    8660:	e50b0010 	str	r0, [fp, #-16]
    8664:	e50b1014 	str	r1, [fp, #-20]	@ 0xffffffec
    8668:	e50b2018 	str	r2, [fp, #-24]	@ 0xffffffe8
    866c:	e51b3010 	ldr	r3, [fp, #-16]
    8670:	e3530000 	cmp	r3, #0
    8674:	1a00000b 	bne	86a8 <_read+0x54>
    8678:	ea000005 	b	8694 <_read+0x40>
    867c:	e51b4014 	ldr	r4, [fp, #-20]	@ 0xffffffec
    8680:	e2843001 	add	r3, r4, #1
    8684:	e50b3014 	str	r3, [fp, #-20]	@ 0xffffffec
    8688:	eb0000a4 	bl	8920 <mini_uart_getc>
    868c:	e1a03000 	mov	r3, r0
    8690:	e5c43000 	strb	r3, [r4]
    8694:	e51b3018 	ldr	r3, [fp, #-24]	@ 0xffffffe8
    8698:	e2432001 	sub	r2, r3, #1
    869c:	e50b2018 	str	r2, [fp, #-24]	@ 0xffffffe8
    86a0:	e3530000 	cmp	r3, #0
    86a4:	1afffff4 	bne	867c <_read+0x28>
    86a8:	e3a03000 	mov	r3, #0
    86ac:	e1a00003 	mov	r0, r3
    86b0:	e24bd008 	sub	sp, fp, #8
    86b4:	e8bd8810 	pop	{r4, fp, pc}

000086b8 <_sbrk>:
    86b8:	e52db004 	push	{fp}		@ (str fp, [sp, #-4]!)
    86bc:	e28db000 	add	fp, sp, #0
    86c0:	e24dd014 	sub	sp, sp, #20
    86c4:	e50b0010 	str	r0, [fp, #-16]
    86c8:	e3023968 	movw	r3, #10600	@ 0x2968
    86cc:	e3403001 	movt	r3, #1
    86d0:	e5933000 	ldr	r3, [r3]
    86d4:	e50b3008 	str	r3, [fp, #-8]
    86d8:	e3023968 	movw	r3, #10600	@ 0x2968
    86dc:	e3403001 	movt	r3, #1
    86e0:	e5932000 	ldr	r2, [r3]
    86e4:	e51b3010 	ldr	r3, [fp, #-16]
    86e8:	e0822003 	add	r2, r2, r3
    86ec:	e3023968 	movw	r3, #10600	@ 0x2968
    86f0:	e3403001 	movt	r3, #1
    86f4:	e5832000 	str	r2, [r3]
    86f8:	e51b3008 	ldr	r3, [fp, #-8]
    86fc:	e1a00003 	mov	r0, r3
    8700:	e28bd000 	add	sp, fp, #0
    8704:	e49db004 	pop	{fp}		@ (ldr fp, [sp], #4)
    8708:	e12fff1e 	bx	lr

0000870c <_isatty>:
    870c:	e52db004 	push	{fp}		@ (str fp, [sp, #-4]!)
    8710:	e28db000 	add	fp, sp, #0
    8714:	e24dd00c 	sub	sp, sp, #12
    8718:	e50b0008 	str	r0, [fp, #-8]
    871c:	e3a03001 	mov	r3, #1
    8720:	e1a00003 	mov	r0, r3
    8724:	e28bd000 	add	sp, fp, #0
    8728:	e49db004 	pop	{fp}		@ (ldr fp, [sp], #4)
    872c:	e12fff1e 	bx	lr

00008730 <_exit>:
    8730:	e52db004 	push	{fp}		@ (str fp, [sp, #-4]!)
    8734:	e28db000 	add	fp, sp, #0
    8738:	e24dd00c 	sub	sp, sp, #12
    873c:	e50b0008 	str	r0, [fp, #-8]
    8740:	eafffffe 	b	8740 <_exit+0x10>

00008744 <_kill>:
    8744:	e52db004 	push	{fp}		@ (str fp, [sp, #-4]!)
    8748:	e28db000 	add	fp, sp, #0
    874c:	e24dd00c 	sub	sp, sp, #12
    8750:	e50b0008 	str	r0, [fp, #-8]
    8754:	e50b100c 	str	r1, [fp, #-12]
    8758:	e320f000 	nop	{0}
    875c:	e28bd000 	add	sp, fp, #0
    8760:	e49db004 	pop	{fp}		@ (ldr fp, [sp], #4)
    8764:	e12fff1e 	bx	lr

00008768 <_getpid>:
    8768:	e52db004 	push	{fp}		@ (str fp, [sp, #-4]!)
    876c:	e28db000 	add	fp, sp, #0
    8770:	e3a03001 	mov	r3, #1
    8774:	e1a00003 	mov	r0, r3
    8778:	e28bd000 	add	sp, fp, #0
    877c:	e49db004 	pop	{fp}		@ (ldr fp, [sp], #4)
    8780:	e12fff1e 	bx	lr

00008784 <delay>:
    8784:	e52db004 	push	{fp}		@ (str fp, [sp, #-4]!)
    8788:	e28db000 	add	fp, sp, #0
    878c:	e24dd00c 	sub	sp, sp, #12
    8790:	e50b0008 	str	r0, [fp, #-8]
    8794:	ea000000 	b	879c <delay+0x18>
    8798:	e320f000 	nop	{0}
    879c:	e51b3008 	ldr	r3, [fp, #-8]
    87a0:	e2432001 	sub	r2, r3, #1
    87a4:	e50b2008 	str	r2, [fp, #-8]
    87a8:	e3530000 	cmp	r3, #0
    87ac:	1afffff9 	bne	8798 <delay+0x14>
    87b0:	e320f000 	nop	{0}
    87b4:	e320f000 	nop	{0}
    87b8:	e28bd000 	add	sp, fp, #0
    87bc:	e49db004 	pop	{fp}		@ (ldr fp, [sp], #4)
    87c0:	e12fff1e 	bx	lr

000087c4 <mini_uart_init>:
    87c4:	e92d4800 	push	{fp, lr}
    87c8:	e28db004 	add	fp, sp, #4
    87cc:	e24dd010 	sub	sp, sp, #16
    87d0:	e50b0010 	str	r0, [fp, #-16]
    87d4:	e3a03000 	mov	r3, #0
    87d8:	e3433f20 	movt	r3, #16160	@ 0x3f20
    87dc:	e5933004 	ldr	r3, [r3, #4]
    87e0:	e50b3008 	str	r3, [fp, #-8]
    87e4:	e51b3008 	ldr	r3, [fp, #-8]
    87e8:	e3c33a07 	bic	r3, r3, #28672	@ 0x7000
    87ec:	e3833a02 	orr	r3, r3, #8192	@ 0x2000
    87f0:	e50b3008 	str	r3, [fp, #-8]
    87f4:	e51b3008 	ldr	r3, [fp, #-8]
    87f8:	e3c3390e 	bic	r3, r3, #229376	@ 0x38000
    87fc:	e3833801 	orr	r3, r3, #65536	@ 0x10000
    8800:	e50b3008 	str	r3, [fp, #-8]
    8804:	e3a03000 	mov	r3, #0
    8808:	e3433f20 	movt	r3, #16160	@ 0x3f20
    880c:	e51b2008 	ldr	r2, [fp, #-8]
    8810:	e5832004 	str	r2, [r3, #4]
    8814:	e3a03000 	mov	r3, #0
    8818:	e3433f20 	movt	r3, #16160	@ 0x3f20
    881c:	e3a02000 	mov	r2, #0
    8820:	e5832094 	str	r2, [r3, #148]	@ 0x94
    8824:	e3a00096 	mov	r0, #150	@ 0x96
    8828:	ebffffd5 	bl	8784 <delay>
    882c:	e3a03000 	mov	r3, #0
    8830:	e3433f20 	movt	r3, #16160	@ 0x3f20
    8834:	e3a02903 	mov	r2, #49152	@ 0xc000
    8838:	e5832098 	str	r2, [r3, #152]	@ 0x98
    883c:	e3a00096 	mov	r0, #150	@ 0x96
    8840:	ebffffcf 	bl	8784 <delay>
    8844:	e3a03000 	mov	r3, #0
    8848:	e3433f20 	movt	r3, #16160	@ 0x3f20
    884c:	e3a02000 	mov	r2, #0
    8850:	e5832098 	str	r2, [r3, #152]	@ 0x98
    8854:	e3a03a05 	mov	r3, #20480	@ 0x5000
    8858:	e3433f21 	movt	r3, #16161	@ 0x3f21
    885c:	e3a02001 	mov	r2, #1
    8860:	e5832004 	str	r2, [r3, #4]
    8864:	e3053040 	movw	r3, #20544	@ 0x5040
    8868:	e3433f21 	movt	r3, #16161	@ 0x3f21
    886c:	e3a02000 	mov	r2, #0
    8870:	e5832020 	str	r2, [r3, #32]
    8874:	e3053040 	movw	r3, #20544	@ 0x5040
    8878:	e3433f21 	movt	r3, #16161	@ 0x3f21
    887c:	e3a02000 	mov	r2, #0
    8880:	e5832004 	str	r2, [r3, #4]
    8884:	e3053040 	movw	r3, #20544	@ 0x5040
    8888:	e3433f21 	movt	r3, #16161	@ 0x3f21
    888c:	e3a02003 	mov	r2, #3
    8890:	e583200c 	str	r2, [r3, #12]
    8894:	e3053040 	movw	r3, #20544	@ 0x5040
    8898:	e3433f21 	movt	r3, #16161	@ 0x3f21
    889c:	e3a02000 	mov	r2, #0
    88a0:	e5832010 	str	r2, [r3, #16]
    88a4:	e3053040 	movw	r3, #20544	@ 0x5040
    88a8:	e3433f21 	movt	r3, #16161	@ 0x3f21
    88ac:	e300210e 	movw	r2, #270	@ 0x10e
    88b0:	e5832028 	str	r2, [r3, #40]	@ 0x28
    88b4:	e3053040 	movw	r3, #20544	@ 0x5040
    88b8:	e3433f21 	movt	r3, #16161	@ 0x3f21
    88bc:	e3a02003 	mov	r2, #3
    88c0:	e5832020 	str	r2, [r3, #32]
    88c4:	e320f000 	nop	{0}
    88c8:	e24bd004 	sub	sp, fp, #4
    88cc:	e8bd8800 	pop	{fp, pc}

000088d0 <mini_uart_putc>:
    88d0:	e52db004 	push	{fp}		@ (str fp, [sp, #-4]!)
    88d4:	e28db000 	add	fp, sp, #0
    88d8:	e24dd00c 	sub	sp, sp, #12
    88dc:	e1a03000 	mov	r3, r0
    88e0:	e54b3005 	strb	r3, [fp, #-5]
    88e4:	e320f000 	nop	{0}
    88e8:	e3053040 	movw	r3, #20544	@ 0x5040
    88ec:	e3433f21 	movt	r3, #16161	@ 0x3f21
    88f0:	e5933024 	ldr	r3, [r3, #36]	@ 0x24
    88f4:	e2033002 	and	r3, r3, #2
    88f8:	e3530000 	cmp	r3, #0
    88fc:	0afffff9 	beq	88e8 <mini_uart_putc+0x18>
    8900:	e3053040 	movw	r3, #20544	@ 0x5040
    8904:	e3433f21 	movt	r3, #16161	@ 0x3f21
    8908:	e55b2005 	ldrb	r2, [fp, #-5]
    890c:	e5832000 	str	r2, [r3]
    8910:	e320f000 	nop	{0}
    8914:	e28bd000 	add	sp, fp, #0
    8918:	e49db004 	pop	{fp}		@ (ldr fp, [sp], #4)
    891c:	e12fff1e 	bx	lr

00008920 <mini_uart_getc>:
    8920:	e52db004 	push	{fp}		@ (str fp, [sp, #-4]!)
    8924:	e28db000 	add	fp, sp, #0
    8928:	e320f000 	nop	{0}
    892c:	e3053040 	movw	r3, #20544	@ 0x5040
    8930:	e3433f21 	movt	r3, #16161	@ 0x3f21
    8934:	e5933024 	ldr	r3, [r3, #36]	@ 0x24
    8938:	e2033001 	and	r3, r3, #1
    893c:	e3530000 	cmp	r3, #0
    8940:	0afffff9 	beq	892c <mini_uart_getc+0xc>
    8944:	e3053040 	movw	r3, #20544	@ 0x5040
    8948:	e3433f21 	movt	r3, #16161	@ 0x3f21
    894c:	e5933000 	ldr	r3, [r3]
    8950:	e6ef3073 	uxtb	r3, r3
    8954:	e1a00003 	mov	r0, r3
    8958:	e28bd000 	add	sp, fp, #0
    895c:	e49db004 	pop	{fp}		@ (ldr fp, [sp], #4)
    8960:	e12fff1e 	bx	lr

00008964 <_puts_r>:
    8964:	e92d4030 	push	{r4, r5, lr}
    8968:	e1a04000 	mov	r4, r0
    896c:	e24dd02c 	sub	sp, sp, #44	@ 0x2c
    8970:	e1a00001 	mov	r0, r1
    8974:	e1a05001 	mov	r5, r1
    8978:	eb000160 	bl	8f00 <strlen>
    897c:	e3a02001 	mov	r2, #1
    8980:	e3a03002 	mov	r3, #2
    8984:	e59f1094 	ldr	r1, [pc, #148]	@ 8a20 <_puts_r+0xbc>
    8988:	e58d1020 	str	r1, [sp, #32]
    898c:	e5941034 	ldr	r1, [r4, #52]	@ 0x34
    8990:	e58d2024 	str	r2, [sp, #36]	@ 0x24
    8994:	e58d3010 	str	r3, [sp, #16]
    8998:	e28d2018 	add	r2, sp, #24
    899c:	e3510000 	cmp	r1, #0
    89a0:	e2803001 	add	r3, r0, #1
    89a4:	e58d5018 	str	r5, [sp, #24]
    89a8:	e58d200c 	str	r2, [sp, #12]
    89ac:	e5941008 	ldr	r1, [r4, #8]
    89b0:	e58d001c 	str	r0, [sp, #28]
    89b4:	e58d3014 	str	r3, [sp, #20]
    89b8:	0a000011 	beq	8a04 <_puts_r+0xa0>
    89bc:	e1d120fc 	ldrsh	r2, [r1, #12]
    89c0:	e5913064 	ldr	r3, [r1, #100]	@ 0x64
    89c4:	e3120a02 	tst	r2, #8192	@ 0x2000
    89c8:	03822a02 	orreq	r2, r2, #8192	@ 0x2000
    89cc:	03c33a02 	biceq	r3, r3, #8192	@ 0x2000
    89d0:	01c120bc 	strheq	r2, [r1, #12]
    89d4:	05813064 	streq	r3, [r1, #100]	@ 0x64
    89d8:	e3130a02 	tst	r3, #8192	@ 0x2000
    89dc:	1a00000d 	bne	8a18 <_puts_r+0xb4>
    89e0:	e1a00004 	mov	r0, r4
    89e4:	e28d200c 	add	r2, sp, #12
    89e8:	eb000012 	bl	8a38 <__sfvwrite_r>
    89ec:	e3500000 	cmp	r0, #0
    89f0:	1a000008 	bne	8a18 <_puts_r+0xb4>
    89f4:	e3a0000a 	mov	r0, #10
    89f8:	e28dd02c 	add	sp, sp, #44	@ 0x2c
    89fc:	e8bd4030 	pop	{r4, r5, lr}
    8a00:	e12fff1e 	bx	lr
    8a04:	e1a00004 	mov	r0, r4
    8a08:	e58d1004 	str	r1, [sp, #4]
    8a0c:	eb00163f 	bl	e310 <__sinit>
    8a10:	e59d1004 	ldr	r1, [sp, #4]
    8a14:	eaffffe8 	b	89bc <_puts_r+0x58>
    8a18:	e3e00000 	mvn	r0, #0
    8a1c:	eafffff5 	b	89f8 <_puts_r+0x94>
    8a20:	00012864 	.word	0x00012864

00008a24 <puts>:
    8a24:	e59f3008 	ldr	r3, [pc, #8]	@ 8a34 <puts+0x10>
    8a28:	e1a01000 	mov	r1, r0
    8a2c:	e5930000 	ldr	r0, [r3]
    8a30:	eaffffcb 	b	8964 <_puts_r>
    8a34:	00012970 	.word	0x00012970

00008a38 <__sfvwrite_r>:
    8a38:	e5923008 	ldr	r3, [r2, #8]
    8a3c:	e3530000 	cmp	r3, #0
    8a40:	0a000096 	beq	8ca0 <__sfvwrite_r+0x268>
    8a44:	e92d4ff0 	push	{r4, r5, r6, r7, r8, r9, sl, fp, lr}
    8a48:	e1d1e0fc 	ldrsh	lr, [r1, #12]
    8a4c:	e31e0008 	tst	lr, #8
    8a50:	e1a08002 	mov	r8, r2
    8a54:	e1a0b000 	mov	fp, r0
    8a58:	e1a04001 	mov	r4, r1
    8a5c:	e24dd00c 	sub	sp, sp, #12
    8a60:	0a000024 	beq	8af8 <__sfvwrite_r+0xc0>
    8a64:	e5913010 	ldr	r3, [r1, #16]
    8a68:	e3530000 	cmp	r3, #0
    8a6c:	0a000021 	beq	8af8 <__sfvwrite_r+0xc0>
    8a70:	e21e3002 	ands	r3, lr, #2
    8a74:	e5986000 	ldr	r6, [r8]
    8a78:	0a000027 	beq	8b1c <__sfvwrite_r+0xe4>
    8a7c:	e3a09000 	mov	r9, #0
    8a80:	e1a05009 	mov	r5, r9
    8a84:	e594a024 	ldr	sl, [r4, #36]	@ 0x24
    8a88:	e594101c 	ldr	r1, [r4, #28]
    8a8c:	e59f7468 	ldr	r7, [pc, #1128]	@ 8efc <__sfvwrite_r+0x4c4>
    8a90:	e3550000 	cmp	r5, #0
    8a94:	0a000013 	beq	8ae8 <__sfvwrite_r+0xb0>
    8a98:	e1550007 	cmp	r5, r7
    8a9c:	31a03005 	movcc	r3, r5
    8aa0:	21a03007 	movcs	r3, r7
    8aa4:	e1a02009 	mov	r2, r9
    8aa8:	e1a0000b 	mov	r0, fp
    8aac:	e1a0e00f 	mov	lr, pc
    8ab0:	e12fff1a 	bx	sl
    8ab4:	e3500000 	cmp	r0, #0
    8ab8:	da000071 	ble	8c84 <__sfvwrite_r+0x24c>
    8abc:	e5983008 	ldr	r3, [r8, #8]
    8ac0:	e0433000 	sub	r3, r3, r0
    8ac4:	e3530000 	cmp	r3, #0
    8ac8:	e5883008 	str	r3, [r8, #8]
    8acc:	e0899000 	add	r9, r9, r0
    8ad0:	e0455000 	sub	r5, r5, r0
    8ad4:	0a000061 	beq	8c60 <__sfvwrite_r+0x228>
    8ad8:	e3550000 	cmp	r5, #0
    8adc:	e594a024 	ldr	sl, [r4, #36]	@ 0x24
    8ae0:	e594101c 	ldr	r1, [r4, #28]
    8ae4:	1affffeb 	bne	8a98 <__sfvwrite_r+0x60>
    8ae8:	e5969000 	ldr	r9, [r6]
    8aec:	e5965004 	ldr	r5, [r6, #4]
    8af0:	e2866008 	add	r6, r6, #8
    8af4:	eaffffe5 	b	8a90 <__sfvwrite_r+0x58>
    8af8:	e1a01004 	mov	r1, r4
    8afc:	e1a0000b 	mov	r0, fp
    8b00:	eb0012c1 	bl	d60c <__swsetup_r>
    8b04:	e3500000 	cmp	r0, #0
    8b08:	1a000060 	bne	8c90 <__sfvwrite_r+0x258>
    8b0c:	e1d4e0fc 	ldrsh	lr, [r4, #12]
    8b10:	e21e3002 	ands	r3, lr, #2
    8b14:	e5986000 	ldr	r6, [r8]
    8b18:	1affffd7 	bne	8a7c <__sfvwrite_r+0x44>
    8b1c:	e21e9001 	ands	r9, lr, #1
    8b20:	1a000060 	bne	8ca8 <__sfvwrite_r+0x270>
    8b24:	e1a07009 	mov	r7, r9
    8b28:	e594c000 	ldr	ip, [r4]
    8b2c:	e5943008 	ldr	r3, [r4, #8]
    8b30:	e3570000 	cmp	r7, #0
    8b34:	e1a0000c 	mov	r0, ip
    8b38:	e1a0a003 	mov	sl, r3
    8b3c:	0a000043 	beq	8c50 <__sfvwrite_r+0x218>
    8b40:	e31e0c02 	tst	lr, #512	@ 0x200
    8b44:	0a000092 	beq	8d94 <__sfvwrite_r+0x35c>
    8b48:	e1530007 	cmp	r3, r7
    8b4c:	e1a02003 	mov	r2, r3
    8b50:	8a0000ba 	bhi	8e40 <__sfvwrite_r+0x408>
    8b54:	e31e0d12 	tst	lr, #1152	@ 0x480
    8b58:	0a000023 	beq	8bec <__sfvwrite_r+0x1b4>
    8b5c:	e5943010 	ldr	r3, [r4, #16]
    8b60:	e5942014 	ldr	r2, [r4, #20]
    8b64:	e04c5003 	sub	r5, ip, r3
    8b68:	e0822082 	add	r2, r2, r2, lsl #1
    8b6c:	e0822fa2 	add	r2, r2, r2, lsr #31
    8b70:	e2851001 	add	r1, r5, #1
    8b74:	e1a020c2 	asr	r2, r2, #1
    8b78:	e0811007 	add	r1, r1, r7
    8b7c:	e1510002 	cmp	r1, r2
    8b80:	91a0a002 	movls	sl, r2
    8b84:	81a0a001 	movhi	sl, r1
    8b88:	81a02001 	movhi	r2, r1
    8b8c:	e31e0b01 	tst	lr, #1024	@ 0x400
    8b90:	0a0000c5 	beq	8eac <__sfvwrite_r+0x474>
    8b94:	e1a01002 	mov	r1, r2
    8b98:	e1a0000b 	mov	r0, fp
    8b9c:	eb000a4a 	bl	b4cc <_malloc_r>
    8ba0:	e2503000 	subs	r3, r0, #0
    8ba4:	0a0000d0 	beq	8eec <__sfvwrite_r+0x4b4>
    8ba8:	e1a02005 	mov	r2, r5
    8bac:	e5941010 	ldr	r1, [r4, #16]
    8bb0:	e58d3004 	str	r3, [sp, #4]
    8bb4:	eb000c25 	bl	bc50 <memcpy>
    8bb8:	e1d420bc 	ldrh	r2, [r4, #12]
    8bbc:	e3c22d12 	bic	r2, r2, #1152	@ 0x480
    8bc0:	e3822080 	orr	r2, r2, #128	@ 0x80
    8bc4:	e1c420bc 	strh	r2, [r4, #12]
    8bc8:	e59d3004 	ldr	r3, [sp, #4]
    8bcc:	e04ac005 	sub	ip, sl, r5
    8bd0:	e584a014 	str	sl, [r4, #20]
    8bd4:	e1a02007 	mov	r2, r7
    8bd8:	e1a0a007 	mov	sl, r7
    8bdc:	e0830005 	add	r0, r3, r5
    8be0:	e5843010 	str	r3, [r4, #16]
    8be4:	e584c008 	str	ip, [r4, #8]
    8be8:	e5840000 	str	r0, [r4]
    8bec:	e1a05007 	mov	r5, r7
    8bf0:	e3a07000 	mov	r7, #0
    8bf4:	e1a01009 	mov	r1, r9
    8bf8:	e58d2004 	str	r2, [sp, #4]
    8bfc:	eb0009dd 	bl	b378 <memmove>
    8c00:	e5943008 	ldr	r3, [r4, #8]
    8c04:	e594c000 	ldr	ip, [r4]
    8c08:	e59d2004 	ldr	r2, [sp, #4]
    8c0c:	e043a00a 	sub	sl, r3, sl
    8c10:	e08c2002 	add	r2, ip, r2
    8c14:	e584a008 	str	sl, [r4, #8]
    8c18:	e5842000 	str	r2, [r4]
    8c1c:	e5983008 	ldr	r3, [r8, #8]
    8c20:	e0433005 	sub	r3, r3, r5
    8c24:	e3530000 	cmp	r3, #0
    8c28:	e5883008 	str	r3, [r8, #8]
    8c2c:	e0899005 	add	r9, r9, r5
    8c30:	0a00000a 	beq	8c60 <__sfvwrite_r+0x228>
    8c34:	e594c000 	ldr	ip, [r4]
    8c38:	e5943008 	ldr	r3, [r4, #8]
    8c3c:	e3570000 	cmp	r7, #0
    8c40:	e1a0000c 	mov	r0, ip
    8c44:	e1a0a003 	mov	sl, r3
    8c48:	e1d4e0fc 	ldrsh	lr, [r4, #12]
    8c4c:	1affffbb 	bne	8b40 <__sfvwrite_r+0x108>
    8c50:	e5969000 	ldr	r9, [r6]
    8c54:	e5967004 	ldr	r7, [r6, #4]
    8c58:	e2866008 	add	r6, r6, #8
    8c5c:	eaffffb3 	b	8b30 <__sfvwrite_r+0xf8>
    8c60:	e3a00000 	mov	r0, #0
    8c64:	e28dd00c 	add	sp, sp, #12
    8c68:	e8bd4ff0 	pop	{r4, r5, r6, r7, r8, r9, sl, fp, lr}
    8c6c:	e12fff1e 	bx	lr
    8c70:	e1a01004 	mov	r1, r4
    8c74:	e1a0000b 	mov	r0, fp
    8c78:	eb000988 	bl	b2a0 <_fflush_r>
    8c7c:	e3500000 	cmp	r0, #0
    8c80:	0a00002b 	beq	8d34 <__sfvwrite_r+0x2fc>
    8c84:	e1d430fc 	ldrsh	r3, [r4, #12]
    8c88:	e3833040 	orr	r3, r3, #64	@ 0x40
    8c8c:	e1c430bc 	strh	r3, [r4, #12]
    8c90:	e3e00000 	mvn	r0, #0
    8c94:	e28dd00c 	add	sp, sp, #12
    8c98:	e8bd4ff0 	pop	{r4, r5, r6, r7, r8, r9, sl, fp, lr}
    8c9c:	e12fff1e 	bx	lr
    8ca0:	e3a00000 	mov	r0, #0
    8ca4:	e12fff1e 	bx	lr
    8ca8:	e1a09003 	mov	r9, r3
    8cac:	e1a00003 	mov	r0, r3
    8cb0:	e1a0a003 	mov	sl, r3
    8cb4:	e1a07003 	mov	r7, r3
    8cb8:	ea000024 	b	8d50 <__sfvwrite_r+0x318>
    8cbc:	e3500000 	cmp	r0, #0
    8cc0:	0a00002a 	beq	8d70 <__sfvwrite_r+0x338>
    8cc4:	e1a02009 	mov	r2, r9
    8cc8:	e1570002 	cmp	r7, r2
    8ccc:	31a02007 	movcc	r2, r7
    8cd0:	e5941010 	ldr	r1, [r4, #16]
    8cd4:	e5943014 	ldr	r3, [r4, #20]
    8cd8:	e5945008 	ldr	r5, [r4, #8]
    8cdc:	e5940000 	ldr	r0, [r4]
    8ce0:	e0835005 	add	r5, r3, r5
    8ce4:	e1500001 	cmp	r0, r1
    8ce8:	93a01000 	movls	r1, #0
    8cec:	83a01001 	movhi	r1, #1
    8cf0:	e1520005 	cmp	r2, r5
    8cf4:	d3a01000 	movle	r1, #0
    8cf8:	e3510000 	cmp	r1, #0
    8cfc:	1a00005e 	bne	8e7c <__sfvwrite_r+0x444>
    8d00:	e1530002 	cmp	r3, r2
    8d04:	ca000050 	bgt	8e4c <__sfvwrite_r+0x414>
    8d08:	e5945024 	ldr	r5, [r4, #36]	@ 0x24
    8d0c:	e1a0200a 	mov	r2, sl
    8d10:	e1a0000b 	mov	r0, fp
    8d14:	e594101c 	ldr	r1, [r4, #28]
    8d18:	e1a0e00f 	mov	lr, pc
    8d1c:	e12fff15 	bx	r5
    8d20:	e2505000 	subs	r5, r0, #0
    8d24:	daffffd6 	ble	8c84 <__sfvwrite_r+0x24c>
    8d28:	e0599005 	subs	r9, r9, r5
    8d2c:	13a00001 	movne	r0, #1
    8d30:	0affffce 	beq	8c70 <__sfvwrite_r+0x238>
    8d34:	e5983008 	ldr	r3, [r8, #8]
    8d38:	e0433005 	sub	r3, r3, r5
    8d3c:	e3530000 	cmp	r3, #0
    8d40:	e5883008 	str	r3, [r8, #8]
    8d44:	e08aa005 	add	sl, sl, r5
    8d48:	e0477005 	sub	r7, r7, r5
    8d4c:	0affffc3 	beq	8c60 <__sfvwrite_r+0x228>
    8d50:	e3570000 	cmp	r7, #0
    8d54:	1affffd8 	bne	8cbc <__sfvwrite_r+0x284>
    8d58:	e5967004 	ldr	r7, [r6, #4]
    8d5c:	e3570000 	cmp	r7, #0
    8d60:	e1a03006 	mov	r3, r6
    8d64:	e2866008 	add	r6, r6, #8
    8d68:	0afffffa 	beq	8d58 <__sfvwrite_r+0x320>
    8d6c:	e593a000 	ldr	sl, [r3]
    8d70:	e1a02007 	mov	r2, r7
    8d74:	e3a0100a 	mov	r1, #10
    8d78:	e1a0000a 	mov	r0, sl
    8d7c:	eb000092 	bl	8fcc <memchr>
    8d80:	e3500000 	cmp	r0, #0
    8d84:	0a000055 	beq	8ee0 <__sfvwrite_r+0x4a8>
    8d88:	e2800001 	add	r0, r0, #1
    8d8c:	e040900a 	sub	r9, r0, sl
    8d90:	eaffffcb 	b	8cc4 <__sfvwrite_r+0x28c>
    8d94:	e5942010 	ldr	r2, [r4, #16]
    8d98:	e152000c 	cmp	r2, ip
    8d9c:	3a000012 	bcc	8dec <__sfvwrite_r+0x3b4>
    8da0:	e5941014 	ldr	r1, [r4, #20]
    8da4:	e1510007 	cmp	r1, r7
    8da8:	8a00000f 	bhi	8dec <__sfvwrite_r+0x3b4>
    8dac:	e3770106 	cmn	r7, #-2147483647	@ 0x80000001
    8db0:	31a05007 	movcc	r5, r7
    8db4:	23e05102 	mvncs	r5, #-2147483648	@ 0x80000000
    8db8:	e1a00005 	mov	r0, r5
    8dbc:	eb002349 	bl	11ae8 <__aeabi_idivmod>
    8dc0:	e1a02009 	mov	r2, r9
    8dc4:	e0453001 	sub	r3, r5, r1
    8dc8:	e1a0000b 	mov	r0, fp
    8dcc:	e5945024 	ldr	r5, [r4, #36]	@ 0x24
    8dd0:	e594101c 	ldr	r1, [r4, #28]
    8dd4:	e1a0e00f 	mov	lr, pc
    8dd8:	e12fff15 	bx	r5
    8ddc:	e2505000 	subs	r5, r0, #0
    8de0:	daffffa7 	ble	8c84 <__sfvwrite_r+0x24c>
    8de4:	e0477005 	sub	r7, r7, r5
    8de8:	eaffff8b 	b	8c1c <__sfvwrite_r+0x1e4>
    8dec:	e1530007 	cmp	r3, r7
    8df0:	31a05003 	movcc	r5, r3
    8df4:	21a05007 	movcs	r5, r7
    8df8:	e1a0000c 	mov	r0, ip
    8dfc:	e1a01009 	mov	r1, r9
    8e00:	e1a02005 	mov	r2, r5
    8e04:	eb00095b 	bl	b378 <memmove>
    8e08:	e5943008 	ldr	r3, [r4, #8]
    8e0c:	e594c000 	ldr	ip, [r4]
    8e10:	e0433005 	sub	r3, r3, r5
    8e14:	e08cc005 	add	ip, ip, r5
    8e18:	e3530000 	cmp	r3, #0
    8e1c:	e5843008 	str	r3, [r4, #8]
    8e20:	e584c000 	str	ip, [r4]
    8e24:	1affffee 	bne	8de4 <__sfvwrite_r+0x3ac>
    8e28:	e1a01004 	mov	r1, r4
    8e2c:	e1a0000b 	mov	r0, fp
    8e30:	eb00091a 	bl	b2a0 <_fflush_r>
    8e34:	e3500000 	cmp	r0, #0
    8e38:	0affffe9 	beq	8de4 <__sfvwrite_r+0x3ac>
    8e3c:	eaffff90 	b	8c84 <__sfvwrite_r+0x24c>
    8e40:	e1a0a007 	mov	sl, r7
    8e44:	e1a02007 	mov	r2, r7
    8e48:	eaffff67 	b	8bec <__sfvwrite_r+0x1b4>
    8e4c:	e1a0100a 	mov	r1, sl
    8e50:	e58d2004 	str	r2, [sp, #4]
    8e54:	eb000947 	bl	b378 <memmove>
    8e58:	e59d2004 	ldr	r2, [sp, #4]
    8e5c:	e5943008 	ldr	r3, [r4, #8]
    8e60:	e0433002 	sub	r3, r3, r2
    8e64:	e5843008 	str	r3, [r4, #8]
    8e68:	e5943000 	ldr	r3, [r4]
    8e6c:	e0833002 	add	r3, r3, r2
    8e70:	e1a05002 	mov	r5, r2
    8e74:	e5843000 	str	r3, [r4]
    8e78:	eaffffaa 	b	8d28 <__sfvwrite_r+0x2f0>
    8e7c:	e1a02005 	mov	r2, r5
    8e80:	e1a0100a 	mov	r1, sl
    8e84:	eb00093b 	bl	b378 <memmove>
    8e88:	e5943000 	ldr	r3, [r4]
    8e8c:	e0833005 	add	r3, r3, r5
    8e90:	e1a01004 	mov	r1, r4
    8e94:	e1a0000b 	mov	r0, fp
    8e98:	e5843000 	str	r3, [r4]
    8e9c:	eb0008ff 	bl	b2a0 <_fflush_r>
    8ea0:	e3500000 	cmp	r0, #0
    8ea4:	0affff9f 	beq	8d28 <__sfvwrite_r+0x2f0>
    8ea8:	eaffff75 	b	8c84 <__sfvwrite_r+0x24c>
    8eac:	e1a01003 	mov	r1, r3
    8eb0:	e1a0000b 	mov	r0, fp
    8eb4:	eb001333 	bl	db88 <_realloc_r>
    8eb8:	e2503000 	subs	r3, r0, #0
    8ebc:	1affff42 	bne	8bcc <__sfvwrite_r+0x194>
    8ec0:	e1a0000b 	mov	r0, fp
    8ec4:	e5941010 	ldr	r1, [r4, #16]
    8ec8:	eb001268 	bl	d870 <_free_r>
    8ecc:	e3a0200c 	mov	r2, #12
    8ed0:	e1d430fc 	ldrsh	r3, [r4, #12]
    8ed4:	e58b2000 	str	r2, [fp]
    8ed8:	e3c33080 	bic	r3, r3, #128	@ 0x80
    8edc:	eaffff69 	b	8c88 <__sfvwrite_r+0x250>
    8ee0:	e2872001 	add	r2, r7, #1
    8ee4:	e1a09002 	mov	r9, r2
    8ee8:	eaffff76 	b	8cc8 <__sfvwrite_r+0x290>
    8eec:	e3a0200c 	mov	r2, #12
    8ef0:	e1d430fc 	ldrsh	r3, [r4, #12]
    8ef4:	e58b2000 	str	r2, [fp]
    8ef8:	eaffff62 	b	8c88 <__sfvwrite_r+0x250>
    8efc:	7ffffc00 	.word	0x7ffffc00

00008f00 <strlen>:
    8f00:	e3c01003 	bic	r1, r0, #3
    8f04:	e2100003 	ands	r0, r0, #3
    8f08:	e2600000 	rsb	r0, r0, #0
    8f0c:	e4913004 	ldr	r3, [r1], #4
    8f10:	e280c004 	add	ip, r0, #4
    8f14:	e1a0c18c 	lsl	ip, ip, #3
    8f18:	e3e02000 	mvn	r2, #0
    8f1c:	11833c32 	orrne	r3, r3, r2, lsr ip
    8f20:	e3a0c001 	mov	ip, #1
    8f24:	e18cc40c 	orr	ip, ip, ip, lsl #8
    8f28:	e18cc80c 	orr	ip, ip, ip, lsl #16
    8f2c:	e043200c 	sub	r2, r3, ip
    8f30:	e1c22003 	bic	r2, r2, r3
    8f34:	e012238c 	ands	r2, r2, ip, lsl #7
    8f38:	04913004 	ldreq	r3, [r1], #4
    8f3c:	02800004 	addeq	r0, r0, #4
    8f40:	0afffff9 	beq	8f2c <strlen+0x2c>
    8f44:	e31300ff 	tst	r3, #255	@ 0xff
    8f48:	12800001 	addne	r0, r0, #1
    8f4c:	13130cff 	tstne	r3, #65280	@ 0xff00
    8f50:	12800001 	addne	r0, r0, #1
    8f54:	131308ff 	tstne	r3, #16711680	@ 0xff0000
    8f58:	12800001 	addne	r0, r0, #1
    8f5c:	e12fff1e 	bx	lr

00008f60 <_printf_r>:
    8f60:	e92d000e 	push	{r1, r2, r3}
    8f64:	e52de004 	push	{lr}		@ (str lr, [sp, #-4]!)
    8f68:	e24dd008 	sub	sp, sp, #8
    8f6c:	e28d3010 	add	r3, sp, #16
    8f70:	e59d200c 	ldr	r2, [sp, #12]
    8f74:	e5901008 	ldr	r1, [r0, #8]
    8f78:	e58d3004 	str	r3, [sp, #4]
    8f7c:	eb00004e 	bl	90bc <_vfprintf_r>
    8f80:	e28dd008 	add	sp, sp, #8
    8f84:	e49de004 	pop	{lr}		@ (ldr lr, [sp], #4)
    8f88:	e28dd00c 	add	sp, sp, #12
    8f8c:	e12fff1e 	bx	lr

00008f90 <printf>:
    8f90:	e92d000f 	push	{r0, r1, r2, r3}
    8f94:	e52de004 	push	{lr}		@ (str lr, [sp, #-4]!)
    8f98:	e59f2028 	ldr	r2, [pc, #40]	@ 8fc8 <printf+0x38>
    8f9c:	e5920000 	ldr	r0, [r2]
    8fa0:	e24dd00c 	sub	sp, sp, #12
    8fa4:	e28d3014 	add	r3, sp, #20
    8fa8:	e59d2010 	ldr	r2, [sp, #16]
    8fac:	e5901008 	ldr	r1, [r0, #8]
    8fb0:	e58d3004 	str	r3, [sp, #4]
    8fb4:	eb000040 	bl	90bc <_vfprintf_r>
    8fb8:	e28dd00c 	add	sp, sp, #12
    8fbc:	e49de004 	pop	{lr}		@ (ldr lr, [sp], #4)
    8fc0:	e28dd010 	add	sp, sp, #16
    8fc4:	e12fff1e 	bx	lr
    8fc8:	00012970 	.word	0x00012970

00008fcc <memchr>:
    8fcc:	e3100003 	tst	r0, #3
    8fd0:	e20110ff 	and	r1, r1, #255	@ 0xff
    8fd4:	0a000034 	beq	90ac <memchr+0xe0>
    8fd8:	e3520000 	cmp	r2, #0
    8fdc:	e1a03000 	mov	r3, r0
    8fe0:	e242c001 	sub	ip, r2, #1
    8fe4:	1a000002 	bne	8ff4 <memchr+0x28>
    8fe8:	ea000019 	b	9054 <memchr+0x88>
    8fec:	e25cc001 	subs	ip, ip, #1
    8ff0:	3a000017 	bcc	9054 <memchr+0x88>
    8ff4:	e1a00003 	mov	r0, r3
    8ff8:	e5d02000 	ldrb	r2, [r0]
    8ffc:	e1520001 	cmp	r2, r1
    9000:	e2833001 	add	r3, r3, #1
    9004:	012fff1e 	bxeq	lr
    9008:	e3130003 	tst	r3, #3
    900c:	1afffff6 	bne	8fec <memchr+0x20>
    9010:	e1a00003 	mov	r0, r3
    9014:	e35c0003 	cmp	ip, #3
    9018:	e92d4070 	push	{r4, r5, r6, lr}
    901c:	8a00000e 	bhi	905c <memchr+0x90>
    9020:	e35c0000 	cmp	ip, #0
    9024:	0a00001d 	beq	90a0 <memchr+0xd4>
    9028:	e1a03000 	mov	r3, r0
    902c:	e080c00c 	add	ip, r0, ip
    9030:	ea000001 	b	903c <memchr+0x70>
    9034:	e153000c 	cmp	r3, ip
    9038:	0a000018 	beq	90a0 <memchr+0xd4>
    903c:	e1a00003 	mov	r0, r3
    9040:	e4d32001 	ldrb	r2, [r3], #1
    9044:	e1520001 	cmp	r2, r1
    9048:	1afffff9 	bne	9034 <memchr+0x68>
    904c:	e8bd4070 	pop	{r4, r5, r6, lr}
    9050:	e12fff1e 	bx	lr
    9054:	e3a00000 	mov	r0, #0
    9058:	e12fff1e 	bx	lr
    905c:	e1a02000 	mov	r2, r0
    9060:	e0814401 	add	r4, r1, r1, lsl #8
    9064:	e59f6048 	ldr	r6, [pc, #72]	@ 90b4 <memchr+0xe8>
    9068:	e59f5048 	ldr	r5, [pc, #72]	@ 90b8 <memchr+0xec>
    906c:	e0844804 	add	r4, r4, r4, lsl #16
    9070:	e1a00002 	mov	r0, r2
    9074:	e4923004 	ldr	r3, [r2], #4
    9078:	e0233004 	eor	r3, r3, r4
    907c:	e083e006 	add	lr, r3, r6
    9080:	e1ce3003 	bic	r3, lr, r3
    9084:	e1130005 	tst	r3, r5
    9088:	1affffe6 	bne	9028 <memchr+0x5c>
    908c:	e24cc004 	sub	ip, ip, #4
    9090:	e35c0003 	cmp	ip, #3
    9094:	8afffff5 	bhi	9070 <memchr+0xa4>
    9098:	e1a00002 	mov	r0, r2
    909c:	eaffffdf 	b	9020 <memchr+0x54>
    90a0:	e3a00000 	mov	r0, #0
    90a4:	e8bd4070 	pop	{r4, r5, r6, lr}
    90a8:	e12fff1e 	bx	lr
    90ac:	e1a0c002 	mov	ip, r2
    90b0:	eaffffd7 	b	9014 <memchr+0x48>
    90b4:	fefefeff 	.word	0xfefefeff
    90b8:	80808080 	.word	0x80808080

000090bc <_vfprintf_r>:
    90bc:	e92d4ff0 	push	{r4, r5, r6, r7, r8, r9, sl, fp, lr}
    90c0:	e24ddf43 	sub	sp, sp, #268	@ 0x10c
    90c4:	e1a04003 	mov	r4, r3
    90c8:	e1a05000 	mov	r5, r0
    90cc:	e1a0a002 	mov	sl, r2
    90d0:	e58d101c 	str	r1, [sp, #28]
    90d4:	e58d3030 	str	r3, [sp, #48]	@ 0x30
    90d8:	e58d002c 	str	r0, [sp, #44]	@ 0x2c
    90dc:	eb00192a 	bl	f58c <_localeconv_r>
    90e0:	e5903000 	ldr	r3, [r0]
    90e4:	e1a00003 	mov	r0, r3
    90e8:	e58d3050 	str	r3, [sp, #80]	@ 0x50
    90ec:	ebffff83 	bl	8f00 <strlen>
    90f0:	e3550000 	cmp	r5, #0
    90f4:	e58d004c 	str	r0, [sp, #76]	@ 0x4c
    90f8:	0a000002 	beq	9108 <_vfprintf_r+0x4c>
    90fc:	e5953034 	ldr	r3, [r5, #52]	@ 0x34
    9100:	e3530000 	cmp	r3, #0
    9104:	0a000606 	beq	a924 <_vfprintf_r+0x1868>
    9108:	e59d101c 	ldr	r1, [sp, #28]
    910c:	e1d120fc 	ldrsh	r2, [r1, #12]
    9110:	e5913064 	ldr	r3, [r1, #100]	@ 0x64
    9114:	e3120a02 	tst	r2, #8192	@ 0x2000
    9118:	03822a02 	orreq	r2, r2, #8192	@ 0x2000
    911c:	03c33a02 	biceq	r3, r3, #8192	@ 0x2000
    9120:	01c120bc 	strheq	r2, [r1, #12]
    9124:	05813064 	streq	r3, [r1, #100]	@ 0x64
    9128:	e3130a02 	tst	r3, #8192	@ 0x2000
    912c:	1a000717 	bne	ad90 <_vfprintf_r+0x1cd4>
    9130:	e59d201c 	ldr	r2, [sp, #28]
    9134:	e1d230fc 	ldrsh	r3, [r2, #12]
    9138:	e3130008 	tst	r3, #8
    913c:	0a0000a0 	beq	93c4 <_vfprintf_r+0x308>
    9140:	e5922010 	ldr	r2, [r2, #16]
    9144:	e3520000 	cmp	r2, #0
    9148:	0a00009d 	beq	93c4 <_vfprintf_r+0x308>
    914c:	e203301a 	and	r3, r3, #26
    9150:	e353000a 	cmp	r3, #10
    9154:	0a0000a4 	beq	93ec <_vfprintf_r+0x330>
    9158:	e3a03000 	mov	r3, #0
    915c:	e3a04000 	mov	r4, #0
    9160:	e1a0e003 	mov	lr, r3
    9164:	e58d309c 	str	r3, [sp, #156]	@ 0x9c
    9168:	e58d3098 	str	r3, [sp, #152]	@ 0x98
    916c:	e3a03000 	mov	r3, #0
    9170:	e28d20c8 	add	r2, sp, #200	@ 0xc8
    9174:	e1a0b002 	mov	fp, r2
    9178:	e58d3040 	str	r3, [sp, #64]	@ 0x40
    917c:	e58d4044 	str	r4, [sp, #68]	@ 0x44
    9180:	e58d2094 	str	r2, [sp, #148]	@ 0x94
    9184:	e58de058 	str	lr, [sp, #88]	@ 0x58
    9188:	e58de054 	str	lr, [sp, #84]	@ 0x54
    918c:	e58de024 	str	lr, [sp, #36]	@ 0x24
    9190:	e58de048 	str	lr, [sp, #72]	@ 0x48
    9194:	e5da3000 	ldrb	r3, [sl]
    9198:	e3530025 	cmp	r3, #37	@ 0x25
    919c:	13530000 	cmpne	r3, #0
    91a0:	e1a0400a 	mov	r4, sl
    91a4:	0a000015 	beq	9200 <_vfprintf_r+0x144>
    91a8:	e1a05004 	mov	r5, r4
    91ac:	e5f43001 	ldrb	r3, [r4, #1]!
    91b0:	e3530000 	cmp	r3, #0
    91b4:	13530025 	cmpne	r3, #37	@ 0x25
    91b8:	1afffffa 	bne	91a8 <_vfprintf_r+0xec>
    91bc:	e054600a 	subs	r6, r4, sl
    91c0:	0a00000e 	beq	9200 <_vfprintf_r+0x144>
    91c4:	e59d3098 	ldr	r3, [sp, #152]	@ 0x98
    91c8:	e2833001 	add	r3, r3, #1
    91cc:	e3530007 	cmp	r3, #7
    91d0:	e58d3098 	str	r3, [sp, #152]	@ 0x98
    91d4:	e59d309c 	ldr	r3, [sp, #156]	@ 0x9c
    91d8:	e0833006 	add	r3, r3, r6
    91dc:	e58ba000 	str	sl, [fp]
    91e0:	e58b6004 	str	r6, [fp, #4]
    91e4:	e58d309c 	str	r3, [sp, #156]	@ 0x9c
    91e8:	d28bb008 	addle	fp, fp, #8
    91ec:	ca000089 	bgt	9418 <_vfprintf_r+0x35c>
    91f0:	e59d3024 	ldr	r3, [sp, #36]	@ 0x24
    91f4:	e0833006 	add	r3, r3, r6
    91f8:	e58d3024 	str	r3, [sp, #36]	@ 0x24
    91fc:	e5d53001 	ldrb	r3, [r5, #1]
    9200:	e3530000 	cmp	r3, #0
    9204:	0a00008b 	beq	9438 <_vfprintf_r+0x37c>
    9208:	e3a03000 	mov	r3, #0
    920c:	e3a08000 	mov	r8, #0
    9210:	e3e09000 	mvn	r9, #0
    9214:	e5cd3077 	strb	r3, [sp, #119]	@ 0x77
    9218:	e58d8020 	str	r8, [sp, #32]
    921c:	e5d45001 	ldrb	r5, [r4, #1]
    9220:	e284a001 	add	sl, r4, #1
    9224:	e28aa001 	add	sl, sl, #1
    9228:	e2453020 	sub	r3, r5, #32
    922c:	e3530058 	cmp	r3, #88	@ 0x58
    9230:	979ff103 	ldrls	pc, [pc, r3, lsl #2]
    9234:	ea00008a 	b	9464 <_vfprintf_r+0x3a8>
    9238:	00009884 	.word	0x00009884
    923c:	00009464 	.word	0x00009464
    9240:	00009464 	.word	0x00009464
    9244:	00009878 	.word	0x00009878
    9248:	00009464 	.word	0x00009464
    924c:	00009464 	.word	0x00009464
    9250:	00009464 	.word	0x00009464
    9254:	00009464 	.word	0x00009464
    9258:	00009464 	.word	0x00009464
    925c:	00009464 	.word	0x00009464
    9260:	00009760 	.word	0x00009760
    9264:	00009868 	.word	0x00009868
    9268:	00009464 	.word	0x00009464
    926c:	00009784 	.word	0x00009784
    9270:	000097d0 	.word	0x000097d0
    9274:	00009464 	.word	0x00009464
    9278:	0000985c 	.word	0x0000985c
    927c:	0000939c 	.word	0x0000939c
    9280:	0000939c 	.word	0x0000939c
    9284:	0000939c 	.word	0x0000939c
    9288:	0000939c 	.word	0x0000939c
    928c:	0000939c 	.word	0x0000939c
    9290:	0000939c 	.word	0x0000939c
    9294:	0000939c 	.word	0x0000939c
    9298:	0000939c 	.word	0x0000939c
    929c:	0000939c 	.word	0x0000939c
    92a0:	00009464 	.word	0x00009464
    92a4:	00009464 	.word	0x00009464
    92a8:	00009464 	.word	0x00009464
    92ac:	00009464 	.word	0x00009464
    92b0:	00009464 	.word	0x00009464
    92b4:	00009464 	.word	0x00009464
    92b8:	00009464 	.word	0x00009464
    92bc:	00009464 	.word	0x00009464
    92c0:	00009464 	.word	0x00009464
    92c4:	00009464 	.word	0x00009464
    92c8:	0000981c 	.word	0x0000981c
    92cc:	000095d0 	.word	0x000095d0
    92d0:	00009464 	.word	0x00009464
    92d4:	000095d0 	.word	0x000095d0
    92d8:	00009464 	.word	0x00009464
    92dc:	00009464 	.word	0x00009464
    92e0:	00009464 	.word	0x00009464
    92e4:	00009464 	.word	0x00009464
    92e8:	00009958 	.word	0x00009958
    92ec:	00009464 	.word	0x00009464
    92f0:	00009464 	.word	0x00009464
    92f4:	00009920 	.word	0x00009920
    92f8:	00009464 	.word	0x00009464
    92fc:	00009464 	.word	0x00009464
    9300:	00009464 	.word	0x00009464
    9304:	00009464 	.word	0x00009464
    9308:	00009464 	.word	0x00009464
    930c:	0000989c 	.word	0x0000989c
    9310:	00009464 	.word	0x00009464
    9314:	00009464 	.word	0x00009464
    9318:	0000a63c 	.word	0x0000a63c
    931c:	00009464 	.word	0x00009464
    9320:	00009464 	.word	0x00009464
    9324:	00009464 	.word	0x00009464
    9328:	00009464 	.word	0x00009464
    932c:	00009464 	.word	0x00009464
    9330:	00009464 	.word	0x00009464
    9334:	00009464 	.word	0x00009464
    9338:	00009464 	.word	0x00009464
    933c:	00009464 	.word	0x00009464
    9340:	00009464 	.word	0x00009464
    9344:	0000979c 	.word	0x0000979c
    9348:	00009694 	.word	0x00009694
    934c:	000095d0 	.word	0x000095d0
    9350:	000095d0 	.word	0x000095d0
    9354:	000095d0 	.word	0x000095d0
    9358:	00009790 	.word	0x00009790
    935c:	00009694 	.word	0x00009694
    9360:	00009464 	.word	0x00009464
    9364:	00009464 	.word	0x00009464
    9368:	00009a3c 	.word	0x00009a3c
    936c:	00009464 	.word	0x00009464
    9370:	00009a0c 	.word	0x00009a0c
    9374:	0000a694 	.word	0x0000a694
    9378:	000099d8 	.word	0x000099d8
    937c:	000099cc 	.word	0x000099cc
    9380:	00009464 	.word	0x00009464
    9384:	00009964 	.word	0x00009964
    9388:	00009464 	.word	0x00009464
    938c:	0000a69c 	.word	0x0000a69c
    9390:	00009464 	.word	0x00009464
    9394:	00009464 	.word	0x00009464
    9398:	0000a6a4 	.word	0x0000a6a4
    939c:	e3a02000 	mov	r2, #0
    93a0:	e2453030 	sub	r3, r5, #48	@ 0x30
    93a4:	e4da5001 	ldrb	r5, [sl], #1
    93a8:	e0822102 	add	r2, r2, r2, lsl #2
    93ac:	e0832082 	add	r2, r3, r2, lsl #1
    93b0:	e2453030 	sub	r3, r5, #48	@ 0x30
    93b4:	e3530009 	cmp	r3, #9
    93b8:	9afffff9 	bls	93a4 <_vfprintf_r+0x2e8>
    93bc:	e58d2020 	str	r2, [sp, #32]
    93c0:	eaffff98 	b	9228 <_vfprintf_r+0x16c>
    93c4:	e59d501c 	ldr	r5, [sp, #28]
    93c8:	e59d002c 	ldr	r0, [sp, #44]	@ 0x2c
    93cc:	e1a01005 	mov	r1, r5
    93d0:	eb00108d 	bl	d60c <__swsetup_r>
    93d4:	e3500000 	cmp	r0, #0
    93d8:	1a00066c 	bne	ad90 <_vfprintf_r+0x1cd4>
    93dc:	e1d530fc 	ldrsh	r3, [r5, #12]
    93e0:	e203301a 	and	r3, r3, #26
    93e4:	e353000a 	cmp	r3, #10
    93e8:	1affff5a 	bne	9158 <_vfprintf_r+0x9c>
    93ec:	e59d301c 	ldr	r3, [sp, #28]
    93f0:	e1d330fe 	ldrsh	r3, [r3, #14]
    93f4:	e3530000 	cmp	r3, #0
    93f8:	baffff56 	blt	9158 <_vfprintf_r+0x9c>
    93fc:	e1a03004 	mov	r3, r4
    9400:	e1a0200a 	mov	r2, sl
    9404:	e59d101c 	ldr	r1, [sp, #28]
    9408:	e59d002c 	ldr	r0, [sp, #44]	@ 0x2c
    940c:	e28ddf43 	add	sp, sp, #268	@ 0x10c
    9410:	e8bd4ff0 	pop	{r4, r5, r6, r7, r8, r9, sl, fp, lr}
    9414:	ea0006f1 	b	afe0 <__sbprintf>
    9418:	e59d101c 	ldr	r1, [sp, #28]
    941c:	e59d002c 	ldr	r0, [sp, #44]	@ 0x2c
    9420:	e28d2094 	add	r2, sp, #148	@ 0x94
    9424:	eb001429 	bl	e4d0 <__sprint_r>
    9428:	e3500000 	cmp	r0, #0
    942c:	1a000004 	bne	9444 <_vfprintf_r+0x388>
    9430:	e28db0c8 	add	fp, sp, #200	@ 0xc8
    9434:	eaffff6d 	b	91f0 <_vfprintf_r+0x134>
    9438:	e59d309c 	ldr	r3, [sp, #156]	@ 0x9c
    943c:	e3530000 	cmp	r3, #0
    9440:	1a0005e4 	bne	abd8 <_vfprintf_r+0x1b1c>
    9444:	e59d301c 	ldr	r3, [sp, #28]
    9448:	e1d330bc 	ldrh	r3, [r3, #12]
    944c:	e3130040 	tst	r3, #64	@ 0x40
    9450:	1a00064e 	bne	ad90 <_vfprintf_r+0x1cd4>
    9454:	e59d0024 	ldr	r0, [sp, #36]	@ 0x24
    9458:	e28ddf43 	add	sp, sp, #268	@ 0x10c
    945c:	e8bd4ff0 	pop	{r4, r5, r6, r7, r8, r9, sl, fp, lr}
    9460:	e12fff1e 	bx	lr
    9464:	e3550000 	cmp	r5, #0
    9468:	e58d5038 	str	r5, [sp, #56]	@ 0x38
    946c:	0afffff1 	beq	9438 <_vfprintf_r+0x37c>
    9470:	e3a03000 	mov	r3, #0
    9474:	e5cd3077 	strb	r3, [sp, #119]	@ 0x77
    9478:	e3a03001 	mov	r3, #1
    947c:	e28d20a0 	add	r2, sp, #160	@ 0xa0
    9480:	e5cd50a0 	strb	r5, [sp, #160]	@ 0xa0
    9484:	e58d3018 	str	r3, [sp, #24]
    9488:	e58d2034 	str	r2, [sp, #52]	@ 0x34
    948c:	e58d3028 	str	r3, [sp, #40]	@ 0x28
    9490:	e3a09000 	mov	r9, #0
    9494:	e1a03009 	mov	r3, r9
    9498:	e58d903c 	str	r9, [sp, #60]	@ 0x3c
    949c:	e2185084 	ands	r5, r8, #132	@ 0x84
    94a0:	e59d409c 	ldr	r4, [sp, #156]	@ 0x9c
    94a4:	1a000004 	bne	94bc <_vfprintf_r+0x400>
    94a8:	e59d2020 	ldr	r2, [sp, #32]
    94ac:	e59d1018 	ldr	r1, [sp, #24]
    94b0:	e0426001 	sub	r6, r2, r1
    94b4:	e3560000 	cmp	r6, #0
    94b8:	ca000283 	bgt	9ecc <_vfprintf_r+0xe10>
    94bc:	e5dd2077 	ldrb	r2, [sp, #119]	@ 0x77
    94c0:	e3520000 	cmp	r2, #0
    94c4:	0a00000b 	beq	94f8 <_vfprintf_r+0x43c>
    94c8:	e3a02001 	mov	r2, #1
    94cc:	e58b2004 	str	r2, [fp, #4]
    94d0:	e59d2098 	ldr	r2, [sp, #152]	@ 0x98
    94d4:	e2822001 	add	r2, r2, #1
    94d8:	e3520007 	cmp	r2, #7
    94dc:	e58d2098 	str	r2, [sp, #152]	@ 0x98
    94e0:	e2844001 	add	r4, r4, #1
    94e4:	e28d2077 	add	r2, sp, #119	@ 0x77
    94e8:	e58b2000 	str	r2, [fp]
    94ec:	e58d409c 	str	r4, [sp, #156]	@ 0x9c
    94f0:	d28bb008 	addle	fp, fp, #8
    94f4:	ca0002b7 	bgt	9fd8 <_vfprintf_r+0xf1c>
    94f8:	e3530000 	cmp	r3, #0
    94fc:	0a00000b 	beq	9530 <_vfprintf_r+0x474>
    9500:	e3a02002 	mov	r2, #2
    9504:	e58b2004 	str	r2, [fp, #4]
    9508:	e59d2098 	ldr	r2, [sp, #152]	@ 0x98
    950c:	e2822001 	add	r2, r2, #1
    9510:	e3520007 	cmp	r2, #7
    9514:	e58d2098 	str	r2, [sp, #152]	@ 0x98
    9518:	e2844002 	add	r4, r4, #2
    951c:	e28d2078 	add	r2, sp, #120	@ 0x78
    9520:	e58b2000 	str	r2, [fp]
    9524:	e58d409c 	str	r4, [sp, #156]	@ 0x9c
    9528:	d28bb008 	addle	fp, fp, #8
    952c:	ca0002b4 	bgt	a004 <_vfprintf_r+0xf48>
    9530:	e3550080 	cmp	r5, #128	@ 0x80
    9534:	0a000190 	beq	9b7c <_vfprintf_r+0xac0>
    9538:	e59d3028 	ldr	r3, [sp, #40]	@ 0x28
    953c:	e0496003 	sub	r6, r9, r3
    9540:	e3560000 	cmp	r6, #0
    9544:	ca0001ca 	bgt	9c74 <_vfprintf_r+0xbb8>
    9548:	e3180c01 	tst	r8, #256	@ 0x100
    954c:	1a000141 	bne	9a58 <_vfprintf_r+0x99c>
    9550:	e59d3034 	ldr	r3, [sp, #52]	@ 0x34
    9554:	e58b3000 	str	r3, [fp]
    9558:	e59d3028 	ldr	r3, [sp, #40]	@ 0x28
    955c:	e0844003 	add	r4, r4, r3
    9560:	e58b3004 	str	r3, [fp, #4]
    9564:	e59d3098 	ldr	r3, [sp, #152]	@ 0x98
    9568:	e2833001 	add	r3, r3, #1
    956c:	e3530007 	cmp	r3, #7
    9570:	e58d409c 	str	r4, [sp, #156]	@ 0x9c
    9574:	e58d3098 	str	r3, [sp, #152]	@ 0x98
    9578:	ca00024a 	bgt	9ea8 <_vfprintf_r+0xdec>
    957c:	e28bb008 	add	fp, fp, #8
    9580:	e3180004 	tst	r8, #4
    9584:	0a000004 	beq	959c <_vfprintf_r+0x4e0>
    9588:	e59d3020 	ldr	r3, [sp, #32]
    958c:	e59d2018 	ldr	r2, [sp, #24]
    9590:	e0435002 	sub	r5, r3, r2
    9594:	e3550000 	cmp	r5, #0
    9598:	ca0002a2 	bgt	a028 <_vfprintf_r+0xf6c>
    959c:	e28d2020 	add	r2, sp, #32
    95a0:	e892000c 	ldm	r2, {r2, r3}
    95a4:	e59d1018 	ldr	r1, [sp, #24]
    95a8:	e1520001 	cmp	r2, r1
    95ac:	a0833002 	addge	r3, r3, r2
    95b0:	b0833001 	addlt	r3, r3, r1
    95b4:	e3540000 	cmp	r4, #0
    95b8:	e58d3024 	str	r3, [sp, #36]	@ 0x24
    95bc:	1a0001fa 	bne	9dac <_vfprintf_r+0xcf0>
    95c0:	e3a03000 	mov	r3, #0
    95c4:	e28db0c8 	add	fp, sp, #200	@ 0xc8
    95c8:	e58d3098 	str	r3, [sp, #152]	@ 0x98
    95cc:	eafffef0 	b	9194 <_vfprintf_r+0xd8>
    95d0:	e59d3030 	ldr	r3, [sp, #48]	@ 0x30
    95d4:	e2833007 	add	r3, r3, #7
    95d8:	e3c33007 	bic	r3, r3, #7
    95dc:	e58d5038 	str	r5, [sp, #56]	@ 0x38
    95e0:	e8b30030 	ldm	r3!, {r4, r5}
    95e4:	e58d3030 	str	r3, [sp, #48]	@ 0x30
    95e8:	e3c53102 	bic	r3, r5, #-2147483648	@ 0x80000000
    95ec:	e58d3064 	str	r3, [sp, #100]	@ 0x64
    95f0:	e58d4060 	str	r4, [sp, #96]	@ 0x60
    95f4:	e28d7060 	add	r7, sp, #96	@ 0x60
    95f8:	e89700c0 	ldm	r7, {r6, r7}
    95fc:	e3e02000 	mvn	r2, #0
    9600:	e1a00006 	mov	r0, r6
    9604:	e1a01007 	mov	r1, r7
    9608:	e59f3fdc 	ldr	r3, [pc, #4060]	@ a5ec <_vfprintf_r+0x1530>
    960c:	e58d4040 	str	r4, [sp, #64]	@ 0x40
    9610:	e58d5044 	str	r5, [sp, #68]	@ 0x44
    9614:	eb0023bd 	bl	12510 <__aeabi_dcmpun>
    9618:	e3500000 	cmp	r0, #0
    961c:	1a00036f 	bne	a3e0 <_vfprintf_r+0x1324>
    9620:	e3e02000 	mvn	r2, #0
    9624:	e1a00006 	mov	r0, r6
    9628:	e1a01007 	mov	r1, r7
    962c:	e59f3fb8 	ldr	r3, [pc, #4024]	@ a5ec <_vfprintf_r+0x1530>
    9630:	eb0023a4 	bl	124c8 <__aeabi_dcmple>
    9634:	e3500000 	cmp	r0, #0
    9638:	1a000368 	bne	a3e0 <_vfprintf_r+0x1324>
    963c:	e3a03000 	mov	r3, #0
    9640:	e3a02000 	mov	r2, #0
    9644:	e1a00004 	mov	r0, r4
    9648:	e1a01005 	mov	r1, r5
    964c:	eb002397 	bl	124b0 <__aeabi_dcmplt>
    9650:	e3500000 	cmp	r0, #0
    9654:	13a0302d 	movne	r3, #45	@ 0x2d
    9658:	15cd3077 	strbne	r3, [sp, #119]	@ 0x77
    965c:	05dd3077 	ldrbeq	r3, [sp, #119]	@ 0x77
    9660:	e3a00003 	mov	r0, #3
    9664:	e3a09000 	mov	r9, #0
    9668:	e58d0018 	str	r0, [sp, #24]
    966c:	e59f1f7c 	ldr	r1, [pc, #3964]	@ a5f0 <_vfprintf_r+0x1534>
    9670:	e59f2f7c 	ldr	r2, [pc, #3964]	@ a5f4 <_vfprintf_r+0x1538>
    9674:	e3c88080 	bic	r8, r8, #128	@ 0x80
    9678:	e59dc038 	ldr	ip, [sp, #56]	@ 0x38
    967c:	e35c0047 	cmp	ip, #71	@ 0x47
    9680:	d1a01002 	movle	r1, r2
    9684:	e58d0028 	str	r0, [sp, #40]	@ 0x28
    9688:	e58d1034 	str	r1, [sp, #52]	@ 0x34
    968c:	e58d903c 	str	r9, [sp, #60]	@ 0x3c
    9690:	ea000027 	b	9734 <_vfprintf_r+0x678>
    9694:	e3180020 	tst	r8, #32
    9698:	e58d5038 	str	r5, [sp, #56]	@ 0x38
    969c:	0a000062 	beq	982c <_vfprintf_r+0x770>
    96a0:	e59d3030 	ldr	r3, [sp, #48]	@ 0x30
    96a4:	e2833007 	add	r3, r3, #7
    96a8:	e3c33007 	bic	r3, r3, #7
    96ac:	e1a02003 	mov	r2, r3
    96b0:	e1a00002 	mov	r0, r2
    96b4:	e5933004 	ldr	r3, [r3, #4]
    96b8:	e1a01003 	mov	r1, r3
    96bc:	e4902008 	ldr	r2, [r0], #8
    96c0:	e58d0030 	str	r0, [sp, #48]	@ 0x30
    96c4:	e3530000 	cmp	r3, #0
    96c8:	ba00033c 	blt	a3c0 <_vfprintf_r+0x1304>
    96cc:	e3590000 	cmp	r9, #0
    96d0:	ba000007 	blt	96f4 <_vfprintf_r+0x638>
    96d4:	13a03001 	movne	r3, #1
    96d8:	03a03000 	moveq	r3, #0
    96dc:	e192c001 	orrs	ip, r2, r1
    96e0:	13833001 	orrne	r3, r3, #1
    96e4:	e3530000 	cmp	r3, #0
    96e8:	e3c80080 	bic	r0, r8, #128	@ 0x80
    96ec:	0a000085 	beq	9908 <_vfprintf_r+0x84c>
    96f0:	e1a08000 	mov	r8, r0
    96f4:	e352000a 	cmp	r2, #10
    96f8:	e2d13000 	sbcs	r3, r1, #0
    96fc:	2a000494 	bcs	a954 <_vfprintf_r+0x1898>
    9700:	e3a03001 	mov	r3, #1
    9704:	e2822030 	add	r2, r2, #48	@ 0x30
    9708:	e58d3028 	str	r3, [sp, #40]	@ 0x28
    970c:	e28d30c7 	add	r3, sp, #199	@ 0xc7
    9710:	e5cd20c7 	strb	r2, [sp, #199]	@ 0xc7
    9714:	e58d3034 	str	r3, [sp, #52]	@ 0x34
    9718:	e59d3028 	ldr	r3, [sp, #40]	@ 0x28
    971c:	e1590003 	cmp	r9, r3
    9720:	a1a03009 	movge	r3, r9
    9724:	e58d3018 	str	r3, [sp, #24]
    9728:	e3a03000 	mov	r3, #0
    972c:	e58d303c 	str	r3, [sp, #60]	@ 0x3c
    9730:	e5dd3077 	ldrb	r3, [sp, #119]	@ 0x77
    9734:	e3530000 	cmp	r3, #0
    9738:	0a000002 	beq	9748 <_vfprintf_r+0x68c>
    973c:	e59d3018 	ldr	r3, [sp, #24]
    9740:	e2833001 	add	r3, r3, #1
    9744:	e58d3018 	str	r3, [sp, #24]
    9748:	e2183002 	ands	r3, r8, #2
    974c:	159d3018 	ldrne	r3, [sp, #24]
    9750:	12833002 	addne	r3, r3, #2
    9754:	158d3018 	strne	r3, [sp, #24]
    9758:	13a03002 	movne	r3, #2
    975c:	eaffff4e 	b	949c <_vfprintf_r+0x3e0>
    9760:	e59d3030 	ldr	r3, [sp, #48]	@ 0x30
    9764:	e4932004 	ldr	r2, [r3], #4
    9768:	e3520000 	cmp	r2, #0
    976c:	e58d2020 	str	r2, [sp, #32]
    9770:	e58d3030 	str	r3, [sp, #48]	@ 0x30
    9774:	aa000003 	bge	9788 <_vfprintf_r+0x6cc>
    9778:	e59d3020 	ldr	r3, [sp, #32]
    977c:	e2633000 	rsb	r3, r3, #0
    9780:	e58d3020 	str	r3, [sp, #32]
    9784:	e3888004 	orr	r8, r8, #4
    9788:	e5da5000 	ldrb	r5, [sl]
    978c:	eafffea4 	b	9224 <_vfprintf_r+0x168>
    9790:	e5da5000 	ldrb	r5, [sl]
    9794:	e3888040 	orr	r8, r8, #64	@ 0x40
    9798:	eafffea1 	b	9224 <_vfprintf_r+0x168>
    979c:	e3a02000 	mov	r2, #0
    97a0:	e3a01001 	mov	r1, #1
    97a4:	e59d3030 	ldr	r3, [sp, #48]	@ 0x30
    97a8:	e5cd2077 	strb	r2, [sp, #119]	@ 0x77
    97ac:	e4932004 	ldr	r2, [r3], #4
    97b0:	e58d3030 	str	r3, [sp, #48]	@ 0x30
    97b4:	e28d30a0 	add	r3, sp, #160	@ 0xa0
    97b8:	e58d5038 	str	r5, [sp, #56]	@ 0x38
    97bc:	e58d1018 	str	r1, [sp, #24]
    97c0:	e5cd20a0 	strb	r2, [sp, #160]	@ 0xa0
    97c4:	e58d3034 	str	r3, [sp, #52]	@ 0x34
    97c8:	e58d1028 	str	r1, [sp, #40]	@ 0x28
    97cc:	eaffff2f 	b	9490 <_vfprintf_r+0x3d4>
    97d0:	e1a0200a 	mov	r2, sl
    97d4:	e4d25001 	ldrb	r5, [r2], #1
    97d8:	e355002a 	cmp	r5, #42	@ 0x2a
    97dc:	0a0005da 	beq	af4c <_vfprintf_r+0x1e90>
    97e0:	e2453030 	sub	r3, r5, #48	@ 0x30
    97e4:	e3530009 	cmp	r3, #9
    97e8:	81a0a002 	movhi	sl, r2
    97ec:	83a09000 	movhi	r9, #0
    97f0:	8afffe8c 	bhi	9228 <_vfprintf_r+0x16c>
    97f4:	e3a09000 	mov	r9, #0
    97f8:	e4d25001 	ldrb	r5, [r2], #1
    97fc:	e0899109 	add	r9, r9, r9, lsl #2
    9800:	e0839089 	add	r9, r3, r9, lsl #1
    9804:	e2453030 	sub	r3, r5, #48	@ 0x30
    9808:	e3530009 	cmp	r3, #9
    980c:	9afffff9 	bls	97f8 <_vfprintf_r+0x73c>
    9810:	e1a0a002 	mov	sl, r2
    9814:	e1899fc9 	orr	r9, r9, r9, asr #31
    9818:	eafffe82 	b	9228 <_vfprintf_r+0x16c>
    981c:	e3888010 	orr	r8, r8, #16
    9820:	e3180020 	tst	r8, #32
    9824:	e58d5038 	str	r5, [sp, #56]	@ 0x38
    9828:	1affff9c 	bne	96a0 <_vfprintf_r+0x5e4>
    982c:	e59d3030 	ldr	r3, [sp, #48]	@ 0x30
    9830:	e4932004 	ldr	r2, [r3], #4
    9834:	e3180010 	tst	r8, #16
    9838:	e58d3030 	str	r3, [sp, #48]	@ 0x30
    983c:	1a0002db 	bne	a3b0 <_vfprintf_r+0x12f4>
    9840:	e3180040 	tst	r8, #64	@ 0x40
    9844:	0a0002d9 	beq	a3b0 <_vfprintf_r+0x12f4>
    9848:	e1a02802 	lsl	r2, r2, #16
    984c:	e1a01fc2 	asr	r1, r2, #31
    9850:	e1a03001 	mov	r3, r1
    9854:	e1a02842 	asr	r2, r2, #16
    9858:	eaffff99 	b	96c4 <_vfprintf_r+0x608>
    985c:	e5da5000 	ldrb	r5, [sl]
    9860:	e3888080 	orr	r8, r8, #128	@ 0x80
    9864:	eafffe6e 	b	9224 <_vfprintf_r+0x168>
    9868:	e3a0302b 	mov	r3, #43	@ 0x2b
    986c:	e5da5000 	ldrb	r5, [sl]
    9870:	e5cd3077 	strb	r3, [sp, #119]	@ 0x77
    9874:	eafffe6a 	b	9224 <_vfprintf_r+0x168>
    9878:	e5da5000 	ldrb	r5, [sl]
    987c:	e3888001 	orr	r8, r8, #1
    9880:	eafffe67 	b	9224 <_vfprintf_r+0x168>
    9884:	e5dd3077 	ldrb	r3, [sp, #119]	@ 0x77
    9888:	e3530000 	cmp	r3, #0
    988c:	03a03020 	moveq	r3, #32
    9890:	e5da5000 	ldrb	r5, [sl]
    9894:	05cd3077 	strbeq	r3, [sp, #119]	@ 0x77
    9898:	eafffe61 	b	9224 <_vfprintf_r+0x168>
    989c:	e58d5038 	str	r5, [sp, #56]	@ 0x38
    98a0:	e3888010 	orr	r8, r8, #16
    98a4:	e2181020 	ands	r1, r8, #32
    98a8:	0a0002b9 	beq	a394 <_vfprintf_r+0x12d8>
    98ac:	e59d3030 	ldr	r3, [sp, #48]	@ 0x30
    98b0:	e2833007 	add	r3, r3, #7
    98b4:	e3c33007 	bic	r3, r3, #7
    98b8:	e1a02003 	mov	r2, r3
    98bc:	e1a00002 	mov	r0, r2
    98c0:	e5931004 	ldr	r1, [r3, #4]
    98c4:	e3a03001 	mov	r3, #1
    98c8:	e4902008 	ldr	r2, [r0], #8
    98cc:	e58d0030 	str	r0, [sp, #48]	@ 0x30
    98d0:	e3a00000 	mov	r0, #0
    98d4:	e3590000 	cmp	r9, #0
    98d8:	e5cd0077 	strb	r0, [sp, #119]	@ 0x77
    98dc:	ba000119 	blt	9d48 <_vfprintf_r+0xc8c>
    98e0:	e1820001 	orr	r0, r2, r1
    98e4:	e3500000 	cmp	r0, #0
    98e8:	03590000 	cmpeq	r9, #0
    98ec:	e3c80080 	bic	r0, r8, #128	@ 0x80
    98f0:	1a000113 	bne	9d44 <_vfprintf_r+0xc88>
    98f4:	e3530000 	cmp	r3, #0
    98f8:	1a000002 	bne	9908 <_vfprintf_r+0x84c>
    98fc:	e2182001 	ands	r2, r8, #1
    9900:	e58d2028 	str	r2, [sp, #40]	@ 0x28
    9904:	1a00025d 	bne	a280 <_vfprintf_r+0x11c4>
    9908:	e3a09000 	mov	r9, #0
    990c:	e28d30c8 	add	r3, sp, #200	@ 0xc8
    9910:	e1a08000 	mov	r8, r0
    9914:	e58d3034 	str	r3, [sp, #52]	@ 0x34
    9918:	e58d9028 	str	r9, [sp, #40]	@ 0x28
    991c:	eaffff7d 	b	9718 <_vfprintf_r+0x65c>
    9920:	e58d5038 	str	r5, [sp, #56]	@ 0x38
    9924:	e3888010 	orr	r8, r8, #16
    9928:	e2181020 	ands	r1, r8, #32
    992c:	0a000291 	beq	a378 <_vfprintf_r+0x12bc>
    9930:	e59d3030 	ldr	r3, [sp, #48]	@ 0x30
    9934:	e2833007 	add	r3, r3, #7
    9938:	e3c33007 	bic	r3, r3, #7
    993c:	e1a02003 	mov	r2, r3
    9940:	e1a00002 	mov	r0, r2
    9944:	e4902008 	ldr	r2, [r0], #8
    9948:	e5931004 	ldr	r1, [r3, #4]
    994c:	e58d0030 	str	r0, [sp, #48]	@ 0x30
    9950:	e3a03000 	mov	r3, #0
    9954:	eaffffdd 	b	98d0 <_vfprintf_r+0x814>
    9958:	e5da5000 	ldrb	r5, [sl]
    995c:	e3888008 	orr	r8, r8, #8
    9960:	eafffe2f 	b	9224 <_vfprintf_r+0x168>
    9964:	e3a06000 	mov	r6, #0
    9968:	e59d4030 	ldr	r4, [sp, #48]	@ 0x30
    996c:	e4943004 	ldr	r3, [r4], #4
    9970:	e1530006 	cmp	r3, r6
    9974:	e58d5038 	str	r5, [sp, #56]	@ 0x38
    9978:	e5cd6077 	strb	r6, [sp, #119]	@ 0x77
    997c:	e58d3034 	str	r3, [sp, #52]	@ 0x34
    9980:	0a000354 	beq	a6d8 <_vfprintf_r+0x161c>
    9984:	e3590000 	cmp	r9, #0
    9988:	ba000418 	blt	a9f0 <_vfprintf_r+0x1934>
    998c:	e1a02009 	mov	r2, r9
    9990:	e1a01006 	mov	r1, r6
    9994:	e59d0034 	ldr	r0, [sp, #52]	@ 0x34
    9998:	ebfffd8b 	bl	8fcc <memchr>
    999c:	e3500000 	cmp	r0, #0
    99a0:	0a0004f3 	beq	ad74 <_vfprintf_r+0x1cb8>
    99a4:	e59d3034 	ldr	r3, [sp, #52]	@ 0x34
    99a8:	e0402003 	sub	r2, r0, r3
    99ac:	e58d2028 	str	r2, [sp, #40]	@ 0x28
    99b0:	e1c22fc2 	bic	r2, r2, r2, asr #31
    99b4:	e1a09006 	mov	r9, r6
    99b8:	e58d4030 	str	r4, [sp, #48]	@ 0x30
    99bc:	e5dd3077 	ldrb	r3, [sp, #119]	@ 0x77
    99c0:	e58d2018 	str	r2, [sp, #24]
    99c4:	e58d603c 	str	r6, [sp, #60]	@ 0x3c
    99c8:	eaffff59 	b	9734 <_vfprintf_r+0x678>
    99cc:	e5da5000 	ldrb	r5, [sl]
    99d0:	e3888020 	orr	r8, r8, #32
    99d4:	eafffe12 	b	9224 <_vfprintf_r+0x168>
    99d8:	e3a02078 	mov	r2, #120	@ 0x78
    99dc:	e59d0030 	ldr	r0, [sp, #48]	@ 0x30
    99e0:	e58d2038 	str	r2, [sp, #56]	@ 0x38
    99e4:	e59f2c18 	ldr	r2, [pc, #3096]	@ a604 <_vfprintf_r+0x1548>
    99e8:	e59f3c08 	ldr	r3, [pc, #3080]	@ a5f8 <_vfprintf_r+0x153c>
    99ec:	e58d2058 	str	r2, [sp, #88]	@ 0x58
    99f0:	e4902004 	ldr	r2, [r0], #4
    99f4:	e1cd37b8 	strh	r3, [sp, #120]	@ 0x78
    99f8:	e3a01000 	mov	r1, #0
    99fc:	e3a03002 	mov	r3, #2
    9a00:	e58d0030 	str	r0, [sp, #48]	@ 0x30
    9a04:	e3888002 	orr	r8, r8, #2
    9a08:	eaffffb0 	b	98d0 <_vfprintf_r+0x814>
    9a0c:	e3180020 	tst	r8, #32
    9a10:	0a0002e6 	beq	a5b0 <_vfprintf_r+0x14f4>
    9a14:	e59d3030 	ldr	r3, [sp, #48]	@ 0x30
    9a18:	e59d2024 	ldr	r2, [sp, #36]	@ 0x24
    9a1c:	e5933000 	ldr	r3, [r3]
    9a20:	e5832000 	str	r2, [r3]
    9a24:	e1a02fc2 	asr	r2, r2, #31
    9a28:	e5832004 	str	r2, [r3, #4]
    9a2c:	e59d3030 	ldr	r3, [sp, #48]	@ 0x30
    9a30:	e2833004 	add	r3, r3, #4
    9a34:	e58d3030 	str	r3, [sp, #48]	@ 0x30
    9a38:	eafffdd5 	b	9194 <_vfprintf_r+0xd8>
    9a3c:	e5da5000 	ldrb	r5, [sl]
    9a40:	e355006c 	cmp	r5, #108	@ 0x6c
    9a44:	05da5001 	ldrbeq	r5, [sl, #1]
    9a48:	03888020 	orreq	r8, r8, #32
    9a4c:	028aa001 	addeq	sl, sl, #1
    9a50:	13888010 	orrne	r8, r8, #16
    9a54:	eafffdf2 	b	9224 <_vfprintf_r+0x168>
    9a58:	e59d3038 	ldr	r3, [sp, #56]	@ 0x38
    9a5c:	e3530065 	cmp	r3, #101	@ 0x65
    9a60:	da0000d8 	ble	9dc8 <_vfprintf_r+0xd0c>
    9a64:	e3a02000 	mov	r2, #0
    9a68:	e3a03000 	mov	r3, #0
    9a6c:	e28d1040 	add	r1, sp, #64	@ 0x40
    9a70:	e8910003 	ldm	r1, {r0, r1}
    9a74:	eb002287 	bl	12498 <__aeabi_dcmpeq>
    9a78:	e3500000 	cmp	r0, #0
    9a7c:	0a0001a8 	beq	a124 <_vfprintf_r+0x1068>
    9a80:	e3a03001 	mov	r3, #1
    9a84:	e58b3004 	str	r3, [fp, #4]
    9a88:	e59d3098 	ldr	r3, [sp, #152]	@ 0x98
    9a8c:	e2833001 	add	r3, r3, #1
    9a90:	e3530007 	cmp	r3, #7
    9a94:	e58d3098 	str	r3, [sp, #152]	@ 0x98
    9a98:	e59f3b6c 	ldr	r3, [pc, #2924]	@ a60c <_vfprintf_r+0x1550>
    9a9c:	e2844001 	add	r4, r4, #1
    9aa0:	e58b3000 	str	r3, [fp]
    9aa4:	e58d409c 	str	r4, [sp, #156]	@ 0x9c
    9aa8:	d28bb008 	addle	fp, fp, #8
    9aac:	ca00039f 	bgt	a930 <_vfprintf_r+0x1874>
    9ab0:	e59d307c 	ldr	r3, [sp, #124]	@ 0x7c
    9ab4:	e59d2048 	ldr	r2, [sp, #72]	@ 0x48
    9ab8:	e1530002 	cmp	r3, r2
    9abc:	aa000244 	bge	a3d4 <_vfprintf_r+0x1318>
    9ac0:	e59d304c 	ldr	r3, [sp, #76]	@ 0x4c
    9ac4:	e59d2050 	ldr	r2, [sp, #80]	@ 0x50
    9ac8:	e0844003 	add	r4, r4, r3
    9acc:	e88b000c 	stm	fp, {r2, r3}
    9ad0:	e59d3098 	ldr	r3, [sp, #152]	@ 0x98
    9ad4:	e2833001 	add	r3, r3, #1
    9ad8:	e3530007 	cmp	r3, #7
    9adc:	e58d409c 	str	r4, [sp, #156]	@ 0x9c
    9ae0:	e58d3098 	str	r3, [sp, #152]	@ 0x98
    9ae4:	d28bb008 	addle	fp, fp, #8
    9ae8:	ca0002f1 	bgt	a6b4 <_vfprintf_r+0x15f8>
    9aec:	e59d3048 	ldr	r3, [sp, #72]	@ 0x48
    9af0:	e2435001 	sub	r5, r3, #1
    9af4:	e3550000 	cmp	r5, #0
    9af8:	dafffea0 	ble	9580 <_vfprintf_r+0x4c4>
    9afc:	e3550010 	cmp	r5, #16
    9b00:	e59d3098 	ldr	r3, [sp, #152]	@ 0x98
    9b04:	d59f7b0c 	ldrle	r7, [pc, #2828]	@ a618 <_vfprintf_r+0x155c>
    9b08:	da0003c9 	ble	aa34 <_vfprintf_r+0x1978>
    9b0c:	e1a02004 	mov	r2, r4
    9b10:	e3a06010 	mov	r6, #16
    9b14:	e59f7afc 	ldr	r7, [pc, #2812]	@ a618 <_vfprintf_r+0x155c>
    9b18:	e59d902c 	ldr	r9, [sp, #44]	@ 0x2c
    9b1c:	e59d401c 	ldr	r4, [sp, #28]
    9b20:	ea000002 	b	9b30 <_vfprintf_r+0xa74>
    9b24:	e2455010 	sub	r5, r5, #16
    9b28:	e3550010 	cmp	r5, #16
    9b2c:	da0003bf 	ble	aa30 <_vfprintf_r+0x1974>
    9b30:	e2833001 	add	r3, r3, #1
    9b34:	e2822010 	add	r2, r2, #16
    9b38:	e3530007 	cmp	r3, #7
    9b3c:	e58b7000 	str	r7, [fp]
    9b40:	e58b6004 	str	r6, [fp, #4]
    9b44:	e58d209c 	str	r2, [sp, #156]	@ 0x9c
    9b48:	e58d3098 	str	r3, [sp, #152]	@ 0x98
    9b4c:	d28bb008 	addle	fp, fp, #8
    9b50:	dafffff3 	ble	9b24 <_vfprintf_r+0xa68>
    9b54:	e1a01004 	mov	r1, r4
    9b58:	e1a00009 	mov	r0, r9
    9b5c:	e28d2094 	add	r2, sp, #148	@ 0x94
    9b60:	eb00125a 	bl	e4d0 <__sprint_r>
    9b64:	e3500000 	cmp	r0, #0
    9b68:	1afffe35 	bne	9444 <_vfprintf_r+0x388>
    9b6c:	e59d209c 	ldr	r2, [sp, #156]	@ 0x9c
    9b70:	e59d3098 	ldr	r3, [sp, #152]	@ 0x98
    9b74:	e28db0c8 	add	fp, sp, #200	@ 0xc8
    9b78:	eaffffe9 	b	9b24 <_vfprintf_r+0xa68>
    9b7c:	e59d3020 	ldr	r3, [sp, #32]
    9b80:	e59d2018 	ldr	r2, [sp, #24]
    9b84:	e0436002 	sub	r6, r3, r2
    9b88:	e3560000 	cmp	r6, #0
    9b8c:	dafffe69 	ble	9538 <_vfprintf_r+0x47c>
    9b90:	e3560010 	cmp	r6, #16
    9b94:	e59d3098 	ldr	r3, [sp, #152]	@ 0x98
    9b98:	d59f7a78 	ldrle	r7, [pc, #2680]	@ a618 <_vfprintf_r+0x155c>
    9b9c:	da000022 	ble	9c2c <_vfprintf_r+0xb70>
    9ba0:	e59f7a70 	ldr	r7, [pc, #2672]	@ a618 <_vfprintf_r+0x155c>
    9ba4:	e1a0200b 	mov	r2, fp
    9ba8:	e1a01004 	mov	r1, r4
    9bac:	e1a0b007 	mov	fp, r7
    9bb0:	e3a05010 	mov	r5, #16
    9bb4:	e59d402c 	ldr	r4, [sp, #44]	@ 0x2c
    9bb8:	e59d701c 	ldr	r7, [sp, #28]
    9bbc:	ea000002 	b	9bcc <_vfprintf_r+0xb10>
    9bc0:	e2466010 	sub	r6, r6, #16
    9bc4:	e3560010 	cmp	r6, #16
    9bc8:	da000014 	ble	9c20 <_vfprintf_r+0xb64>
    9bcc:	e2833001 	add	r3, r3, #1
    9bd0:	e2811010 	add	r1, r1, #16
    9bd4:	e3530007 	cmp	r3, #7
    9bd8:	e582b000 	str	fp, [r2]
    9bdc:	e5825004 	str	r5, [r2, #4]
    9be0:	e58d109c 	str	r1, [sp, #156]	@ 0x9c
    9be4:	e58d3098 	str	r3, [sp, #152]	@ 0x98
    9be8:	d2822008 	addle	r2, r2, #8
    9bec:	dafffff3 	ble	9bc0 <_vfprintf_r+0xb04>
    9bf0:	e1a01007 	mov	r1, r7
    9bf4:	e1a00004 	mov	r0, r4
    9bf8:	e28d2094 	add	r2, sp, #148	@ 0x94
    9bfc:	eb001233 	bl	e4d0 <__sprint_r>
    9c00:	e3500000 	cmp	r0, #0
    9c04:	1afffe0e 	bne	9444 <_vfprintf_r+0x388>
    9c08:	e2466010 	sub	r6, r6, #16
    9c0c:	e3560010 	cmp	r6, #16
    9c10:	e59d109c 	ldr	r1, [sp, #156]	@ 0x9c
    9c14:	e59d3098 	ldr	r3, [sp, #152]	@ 0x98
    9c18:	e28d20c8 	add	r2, sp, #200	@ 0xc8
    9c1c:	caffffea 	bgt	9bcc <_vfprintf_r+0xb10>
    9c20:	e1a0700b 	mov	r7, fp
    9c24:	e1a04001 	mov	r4, r1
    9c28:	e1a0b002 	mov	fp, r2
    9c2c:	e2833001 	add	r3, r3, #1
    9c30:	e0844006 	add	r4, r4, r6
    9c34:	e3530007 	cmp	r3, #7
    9c38:	e58b7000 	str	r7, [fp]
    9c3c:	e58b6004 	str	r6, [fp, #4]
    9c40:	e58d3098 	str	r3, [sp, #152]	@ 0x98
    9c44:	e58d409c 	str	r4, [sp, #156]	@ 0x9c
    9c48:	d28bb008 	addle	fp, fp, #8
    9c4c:	dafffe39 	ble	9538 <_vfprintf_r+0x47c>
    9c50:	e59d101c 	ldr	r1, [sp, #28]
    9c54:	e59d002c 	ldr	r0, [sp, #44]	@ 0x2c
    9c58:	e28d2094 	add	r2, sp, #148	@ 0x94
    9c5c:	eb00121b 	bl	e4d0 <__sprint_r>
    9c60:	e3500000 	cmp	r0, #0
    9c64:	1afffdf6 	bne	9444 <_vfprintf_r+0x388>
    9c68:	e59d409c 	ldr	r4, [sp, #156]	@ 0x9c
    9c6c:	e28db0c8 	add	fp, sp, #200	@ 0xc8
    9c70:	eafffe30 	b	9538 <_vfprintf_r+0x47c>
    9c74:	e3560010 	cmp	r6, #16
    9c78:	e59f7998 	ldr	r7, [pc, #2456]	@ a618 <_vfprintf_r+0x155c>
    9c7c:	e59d3098 	ldr	r3, [sp, #152]	@ 0x98
    9c80:	da00001d 	ble	9cfc <_vfprintf_r+0xc40>
    9c84:	e1a02004 	mov	r2, r4
    9c88:	e3a09010 	mov	r9, #16
    9c8c:	e59d502c 	ldr	r5, [sp, #44]	@ 0x2c
    9c90:	e59d401c 	ldr	r4, [sp, #28]
    9c94:	ea000002 	b	9ca4 <_vfprintf_r+0xbe8>
    9c98:	e2466010 	sub	r6, r6, #16
    9c9c:	e3560010 	cmp	r6, #16
    9ca0:	da000014 	ble	9cf8 <_vfprintf_r+0xc3c>
    9ca4:	e2833001 	add	r3, r3, #1
    9ca8:	e59f1968 	ldr	r1, [pc, #2408]	@ a618 <_vfprintf_r+0x155c>
    9cac:	e2822010 	add	r2, r2, #16
    9cb0:	e3530007 	cmp	r3, #7
    9cb4:	e88b0202 	stm	fp, {r1, r9}
    9cb8:	e58d209c 	str	r2, [sp, #156]	@ 0x9c
    9cbc:	e58d3098 	str	r3, [sp, #152]	@ 0x98
    9cc0:	d28bb008 	addle	fp, fp, #8
    9cc4:	dafffff3 	ble	9c98 <_vfprintf_r+0xbdc>
    9cc8:	e1a01004 	mov	r1, r4
    9ccc:	e1a00005 	mov	r0, r5
    9cd0:	e28d2094 	add	r2, sp, #148	@ 0x94
    9cd4:	eb0011fd 	bl	e4d0 <__sprint_r>
    9cd8:	e3500000 	cmp	r0, #0
    9cdc:	1afffdd8 	bne	9444 <_vfprintf_r+0x388>
    9ce0:	e2466010 	sub	r6, r6, #16
    9ce4:	e3560010 	cmp	r6, #16
    9ce8:	e59d209c 	ldr	r2, [sp, #156]	@ 0x9c
    9cec:	e59d3098 	ldr	r3, [sp, #152]	@ 0x98
    9cf0:	e28db0c8 	add	fp, sp, #200	@ 0xc8
    9cf4:	caffffea 	bgt	9ca4 <_vfprintf_r+0xbe8>
    9cf8:	e1a04002 	mov	r4, r2
    9cfc:	e2833001 	add	r3, r3, #1
    9d00:	e0844006 	add	r4, r4, r6
    9d04:	e3530007 	cmp	r3, #7
    9d08:	e58b7000 	str	r7, [fp]
    9d0c:	e58b6004 	str	r6, [fp, #4]
    9d10:	e58d3098 	str	r3, [sp, #152]	@ 0x98
    9d14:	e58d409c 	str	r4, [sp, #156]	@ 0x9c
    9d18:	d28bb008 	addle	fp, fp, #8
    9d1c:	dafffe09 	ble	9548 <_vfprintf_r+0x48c>
    9d20:	e59d101c 	ldr	r1, [sp, #28]
    9d24:	e59d002c 	ldr	r0, [sp, #44]	@ 0x2c
    9d28:	e28d2094 	add	r2, sp, #148	@ 0x94
    9d2c:	eb0011e7 	bl	e4d0 <__sprint_r>
    9d30:	e3500000 	cmp	r0, #0
    9d34:	1afffdc2 	bne	9444 <_vfprintf_r+0x388>
    9d38:	e59d409c 	ldr	r4, [sp, #156]	@ 0x9c
    9d3c:	e28db0c8 	add	fp, sp, #200	@ 0xc8
    9d40:	eafffe00 	b	9548 <_vfprintf_r+0x48c>
    9d44:	e1a08000 	mov	r8, r0
    9d48:	e3530001 	cmp	r3, #1
    9d4c:	0afffe68 	beq	96f4 <_vfprintf_r+0x638>
    9d50:	e3530002 	cmp	r3, #2
    9d54:	e28d30c8 	add	r3, sp, #200	@ 0xc8
    9d58:	0a0000e3 	beq	a0ec <_vfprintf_r+0x1030>
    9d5c:	e1a0c003 	mov	ip, r3
    9d60:	e1a001a2 	lsr	r0, r2, #3
    9d64:	e2023007 	and	r3, r2, #7
    9d68:	e1802e81 	orr	r2, r0, r1, lsl #29
    9d6c:	e1a011a1 	lsr	r1, r1, #3
    9d70:	e2833030 	add	r3, r3, #48	@ 0x30
    9d74:	e1920001 	orrs	r0, r2, r1
    9d78:	e1a0000c 	mov	r0, ip
    9d7c:	e56c3001 	strb	r3, [ip, #-1]!
    9d80:	1afffff6 	bne	9d60 <_vfprintf_r+0xca4>
    9d84:	e3530030 	cmp	r3, #48	@ 0x30
    9d88:	03a02000 	moveq	r2, #0
    9d8c:	12082001 	andne	r2, r8, #1
    9d90:	e3520000 	cmp	r2, #0
    9d94:	e58dc034 	str	ip, [sp, #52]	@ 0x34
    9d98:	1a0002d8 	bne	a900 <_vfprintf_r+0x1844>
    9d9c:	e28d30c8 	add	r3, sp, #200	@ 0xc8
    9da0:	e043300c 	sub	r3, r3, ip
    9da4:	e58d3028 	str	r3, [sp, #40]	@ 0x28
    9da8:	eafffe5a 	b	9718 <_vfprintf_r+0x65c>
    9dac:	e59d101c 	ldr	r1, [sp, #28]
    9db0:	e59d002c 	ldr	r0, [sp, #44]	@ 0x2c
    9db4:	e28d2094 	add	r2, sp, #148	@ 0x94
    9db8:	eb0011c4 	bl	e4d0 <__sprint_r>
    9dbc:	e3500000 	cmp	r0, #0
    9dc0:	0afffdfe 	beq	95c0 <_vfprintf_r+0x504>
    9dc4:	eafffd9e 	b	9444 <_vfprintf_r+0x388>
    9dc8:	e59d3048 	ldr	r3, [sp, #72]	@ 0x48
    9dcc:	e59d5098 	ldr	r5, [sp, #152]	@ 0x98
    9dd0:	e3530001 	cmp	r3, #1
    9dd4:	e2844001 	add	r4, r4, #1
    9dd8:	e2855001 	add	r5, r5, #1
    9ddc:	e28b6008 	add	r6, fp, #8
    9de0:	da00012d 	ble	a29c <_vfprintf_r+0x11e0>
    9de4:	e59d3034 	ldr	r3, [sp, #52]	@ 0x34
    9de8:	e58b3000 	str	r3, [fp]
    9dec:	e3a03001 	mov	r3, #1
    9df0:	e3550007 	cmp	r5, #7
    9df4:	e58d409c 	str	r4, [sp, #156]	@ 0x9c
    9df8:	e58d5098 	str	r5, [sp, #152]	@ 0x98
    9dfc:	e58b3004 	str	r3, [fp, #4]
    9e00:	ca000283 	bgt	a814 <_vfprintf_r+0x1758>
    9e04:	e59d304c 	ldr	r3, [sp, #76]	@ 0x4c
    9e08:	e2855001 	add	r5, r5, #1
    9e0c:	e59d2050 	ldr	r2, [sp, #80]	@ 0x50
    9e10:	e0844003 	add	r4, r4, r3
    9e14:	e3550007 	cmp	r5, #7
    9e18:	e886000c 	stm	r6, {r2, r3}
    9e1c:	e58d409c 	str	r4, [sp, #156]	@ 0x9c
    9e20:	e58d5098 	str	r5, [sp, #152]	@ 0x98
    9e24:	d2866008 	addle	r6, r6, #8
    9e28:	ca000283 	bgt	a83c <_vfprintf_r+0x1780>
    9e2c:	e59d3048 	ldr	r3, [sp, #72]	@ 0x48
    9e30:	e3a02000 	mov	r2, #0
    9e34:	e28d1040 	add	r1, sp, #64	@ 0x40
    9e38:	e8910003 	ldm	r1, {r0, r1}
    9e3c:	e243b001 	sub	fp, r3, #1
    9e40:	e3a03000 	mov	r3, #0
    9e44:	eb002193 	bl	12498 <__aeabi_dcmpeq>
    9e48:	e3500000 	cmp	r0, #0
    9e4c:	1a000126 	bne	a2ec <_vfprintf_r+0x1230>
    9e50:	e59d3034 	ldr	r3, [sp, #52]	@ 0x34
    9e54:	e2833001 	add	r3, r3, #1
    9e58:	e5863000 	str	r3, [r6]
    9e5c:	e2855001 	add	r5, r5, #1
    9e60:	e084400b 	add	r4, r4, fp
    9e64:	e3550007 	cmp	r5, #7
    9e68:	e586b004 	str	fp, [r6, #4]
    9e6c:	e58d409c 	str	r4, [sp, #156]	@ 0x9c
    9e70:	e58d5098 	str	r5, [sp, #152]	@ 0x98
    9e74:	d2866008 	addle	r6, r6, #8
    9e78:	ca000111 	bgt	a2c4 <_vfprintf_r+0x1208>
    9e7c:	e59d3054 	ldr	r3, [sp, #84]	@ 0x54
    9e80:	e2855001 	add	r5, r5, #1
    9e84:	e0834004 	add	r4, r3, r4
    9e88:	e5863004 	str	r3, [r6, #4]
    9e8c:	e3550007 	cmp	r5, #7
    9e90:	e28d3084 	add	r3, sp, #132	@ 0x84
    9e94:	e58d5098 	str	r5, [sp, #152]	@ 0x98
    9e98:	e58d409c 	str	r4, [sp, #156]	@ 0x9c
    9e9c:	e5863000 	str	r3, [r6]
    9ea0:	d286b008 	addle	fp, r6, #8
    9ea4:	dafffdb5 	ble	9580 <_vfprintf_r+0x4c4>
    9ea8:	e59d101c 	ldr	r1, [sp, #28]
    9eac:	e59d002c 	ldr	r0, [sp, #44]	@ 0x2c
    9eb0:	e28d2094 	add	r2, sp, #148	@ 0x94
    9eb4:	eb001185 	bl	e4d0 <__sprint_r>
    9eb8:	e3500000 	cmp	r0, #0
    9ebc:	1afffd60 	bne	9444 <_vfprintf_r+0x388>
    9ec0:	e59d409c 	ldr	r4, [sp, #156]	@ 0x9c
    9ec4:	e28db0c8 	add	fp, sp, #200	@ 0xc8
    9ec8:	eafffdac 	b	9580 <_vfprintf_r+0x4c4>
    9ecc:	e3560010 	cmp	r6, #16
    9ed0:	e59f7724 	ldr	r7, [pc, #1828]	@ a5fc <_vfprintf_r+0x1540>
    9ed4:	e59d2098 	ldr	r2, [sp, #152]	@ 0x98
    9ed8:	da00002a 	ble	9f88 <_vfprintf_r+0xecc>
    9edc:	e1a0100b 	mov	r1, fp
    9ee0:	e1a00004 	mov	r0, r4
    9ee4:	e1a0b00a 	mov	fp, sl
    9ee8:	e59d402c 	ldr	r4, [sp, #44]	@ 0x2c
    9eec:	e1a0a009 	mov	sl, r9
    9ef0:	e1a09008 	mov	r9, r8
    9ef4:	e1a08005 	mov	r8, r5
    9ef8:	e1a05007 	mov	r5, r7
    9efc:	e1a07003 	mov	r7, r3
    9f00:	ea000002 	b	9f10 <_vfprintf_r+0xe54>
    9f04:	e2466010 	sub	r6, r6, #16
    9f08:	e3560010 	cmp	r6, #16
    9f0c:	da000015 	ble	9f68 <_vfprintf_r+0xeac>
    9f10:	e3a03010 	mov	r3, #16
    9f14:	e2822001 	add	r2, r2, #1
    9f18:	e2800010 	add	r0, r0, #16
    9f1c:	e3520007 	cmp	r2, #7
    9f20:	e5815000 	str	r5, [r1]
    9f24:	e5813004 	str	r3, [r1, #4]
    9f28:	e58d009c 	str	r0, [sp, #156]	@ 0x9c
    9f2c:	e58d2098 	str	r2, [sp, #152]	@ 0x98
    9f30:	d2811008 	addle	r1, r1, #8
    9f34:	dafffff2 	ble	9f04 <_vfprintf_r+0xe48>
    9f38:	e1a00004 	mov	r0, r4
    9f3c:	e59d101c 	ldr	r1, [sp, #28]
    9f40:	e28d2094 	add	r2, sp, #148	@ 0x94
    9f44:	eb001161 	bl	e4d0 <__sprint_r>
    9f48:	e3500000 	cmp	r0, #0
    9f4c:	1afffd3c 	bne	9444 <_vfprintf_r+0x388>
    9f50:	e2466010 	sub	r6, r6, #16
    9f54:	e3560010 	cmp	r6, #16
    9f58:	e59d009c 	ldr	r0, [sp, #156]	@ 0x9c
    9f5c:	e59d2098 	ldr	r2, [sp, #152]	@ 0x98
    9f60:	e28d10c8 	add	r1, sp, #200	@ 0xc8
    9f64:	caffffe9 	bgt	9f10 <_vfprintf_r+0xe54>
    9f68:	e1a03007 	mov	r3, r7
    9f6c:	e1a04000 	mov	r4, r0
    9f70:	e1a07005 	mov	r7, r5
    9f74:	e1a05008 	mov	r5, r8
    9f78:	e1a08009 	mov	r8, r9
    9f7c:	e1a0900a 	mov	r9, sl
    9f80:	e1a0a00b 	mov	sl, fp
    9f84:	e1a0b001 	mov	fp, r1
    9f88:	e2822001 	add	r2, r2, #1
    9f8c:	e0844006 	add	r4, r4, r6
    9f90:	e3520007 	cmp	r2, #7
    9f94:	e58b7000 	str	r7, [fp]
    9f98:	e58b6004 	str	r6, [fp, #4]
    9f9c:	e58d2098 	str	r2, [sp, #152]	@ 0x98
    9fa0:	e58d409c 	str	r4, [sp, #156]	@ 0x9c
    9fa4:	d28bb008 	addle	fp, fp, #8
    9fa8:	dafffd43 	ble	94bc <_vfprintf_r+0x400>
    9fac:	e59d101c 	ldr	r1, [sp, #28]
    9fb0:	e59d002c 	ldr	r0, [sp, #44]	@ 0x2c
    9fb4:	e28d2094 	add	r2, sp, #148	@ 0x94
    9fb8:	e58d305c 	str	r3, [sp, #92]	@ 0x5c
    9fbc:	eb001143 	bl	e4d0 <__sprint_r>
    9fc0:	e3500000 	cmp	r0, #0
    9fc4:	1afffd1e 	bne	9444 <_vfprintf_r+0x388>
    9fc8:	e59d409c 	ldr	r4, [sp, #156]	@ 0x9c
    9fcc:	e59d305c 	ldr	r3, [sp, #92]	@ 0x5c
    9fd0:	e28db0c8 	add	fp, sp, #200	@ 0xc8
    9fd4:	eafffd38 	b	94bc <_vfprintf_r+0x400>
    9fd8:	e59d101c 	ldr	r1, [sp, #28]
    9fdc:	e59d002c 	ldr	r0, [sp, #44]	@ 0x2c
    9fe0:	e28d2094 	add	r2, sp, #148	@ 0x94
    9fe4:	e58d305c 	str	r3, [sp, #92]	@ 0x5c
    9fe8:	eb001138 	bl	e4d0 <__sprint_r>
    9fec:	e3500000 	cmp	r0, #0
    9ff0:	1afffd13 	bne	9444 <_vfprintf_r+0x388>
    9ff4:	e59d409c 	ldr	r4, [sp, #156]	@ 0x9c
    9ff8:	e59d305c 	ldr	r3, [sp, #92]	@ 0x5c
    9ffc:	e28db0c8 	add	fp, sp, #200	@ 0xc8
    a000:	eafffd3c 	b	94f8 <_vfprintf_r+0x43c>
    a004:	e59d101c 	ldr	r1, [sp, #28]
    a008:	e59d002c 	ldr	r0, [sp, #44]	@ 0x2c
    a00c:	e28d2094 	add	r2, sp, #148	@ 0x94
    a010:	eb00112e 	bl	e4d0 <__sprint_r>
    a014:	e3500000 	cmp	r0, #0
    a018:	1afffd09 	bne	9444 <_vfprintf_r+0x388>
    a01c:	e59d409c 	ldr	r4, [sp, #156]	@ 0x9c
    a020:	e28db0c8 	add	fp, sp, #200	@ 0xc8
    a024:	eafffd41 	b	9530 <_vfprintf_r+0x474>
    a028:	e3550010 	cmp	r5, #16
    a02c:	e59d3098 	ldr	r3, [sp, #152]	@ 0x98
    a030:	d59f75c4 	ldrle	r7, [pc, #1476]	@ a5fc <_vfprintf_r+0x1540>
    a034:	da00001c 	ble	a0ac <_vfprintf_r+0xff0>
    a038:	e3a06010 	mov	r6, #16
    a03c:	e59f75b8 	ldr	r7, [pc, #1464]	@ a5fc <_vfprintf_r+0x1540>
    a040:	e59d802c 	ldr	r8, [sp, #44]	@ 0x2c
    a044:	e59d901c 	ldr	r9, [sp, #28]
    a048:	ea000002 	b	a058 <_vfprintf_r+0xf9c>
    a04c:	e2455010 	sub	r5, r5, #16
    a050:	e3550010 	cmp	r5, #16
    a054:	da000014 	ble	a0ac <_vfprintf_r+0xff0>
    a058:	e2833001 	add	r3, r3, #1
    a05c:	e2844010 	add	r4, r4, #16
    a060:	e3530007 	cmp	r3, #7
    a064:	e58b7000 	str	r7, [fp]
    a068:	e58b6004 	str	r6, [fp, #4]
    a06c:	e58d409c 	str	r4, [sp, #156]	@ 0x9c
    a070:	e58d3098 	str	r3, [sp, #152]	@ 0x98
    a074:	d28bb008 	addle	fp, fp, #8
    a078:	dafffff3 	ble	a04c <_vfprintf_r+0xf90>
    a07c:	e1a01009 	mov	r1, r9
    a080:	e1a00008 	mov	r0, r8
    a084:	e28d2094 	add	r2, sp, #148	@ 0x94
    a088:	eb001110 	bl	e4d0 <__sprint_r>
    a08c:	e3500000 	cmp	r0, #0
    a090:	1afffceb 	bne	9444 <_vfprintf_r+0x388>
    a094:	e2455010 	sub	r5, r5, #16
    a098:	e28d3098 	add	r3, sp, #152	@ 0x98
    a09c:	e3550010 	cmp	r5, #16
    a0a0:	e8930018 	ldm	r3, {r3, r4}
    a0a4:	e28db0c8 	add	fp, sp, #200	@ 0xc8
    a0a8:	caffffea 	bgt	a058 <_vfprintf_r+0xf9c>
    a0ac:	e2833001 	add	r3, r3, #1
    a0b0:	e0844005 	add	r4, r4, r5
    a0b4:	e3530007 	cmp	r3, #7
    a0b8:	e58b7000 	str	r7, [fp]
    a0bc:	e58b5004 	str	r5, [fp, #4]
    a0c0:	e58d3098 	str	r3, [sp, #152]	@ 0x98
    a0c4:	e58d409c 	str	r4, [sp, #156]	@ 0x9c
    a0c8:	dafffd33 	ble	959c <_vfprintf_r+0x4e0>
    a0cc:	e59d101c 	ldr	r1, [sp, #28]
    a0d0:	e59d002c 	ldr	r0, [sp, #44]	@ 0x2c
    a0d4:	e28d2094 	add	r2, sp, #148	@ 0x94
    a0d8:	eb0010fc 	bl	e4d0 <__sprint_r>
    a0dc:	e3500000 	cmp	r0, #0
    a0e0:	1afffcd7 	bne	9444 <_vfprintf_r+0x388>
    a0e4:	e59d409c 	ldr	r4, [sp, #156]	@ 0x9c
    a0e8:	eafffd2b 	b	959c <_vfprintf_r+0x4e0>
    a0ec:	e59dc058 	ldr	ip, [sp, #88]	@ 0x58
    a0f0:	e202000f 	and	r0, r2, #15
    a0f4:	e7dc0000 	ldrb	r0, [ip, r0]
    a0f8:	e1a02222 	lsr	r2, r2, #4
    a0fc:	e1822e01 	orr	r2, r2, r1, lsl #28
    a100:	e1a01221 	lsr	r1, r1, #4
    a104:	e5630001 	strb	r0, [r3, #-1]!
    a108:	e1920001 	orrs	r0, r2, r1
    a10c:	1afffff7 	bne	a0f0 <_vfprintf_r+0x1034>
    a110:	e28d20c8 	add	r2, sp, #200	@ 0xc8
    a114:	e58d3034 	str	r3, [sp, #52]	@ 0x34
    a118:	e0423003 	sub	r3, r2, r3
    a11c:	e58d3028 	str	r3, [sp, #40]	@ 0x28
    a120:	eafffd7c 	b	9718 <_vfprintf_r+0x65c>
    a124:	e59d507c 	ldr	r5, [sp, #124]	@ 0x7c
    a128:	e3550000 	cmp	r5, #0
    a12c:	da0001cc 	ble	a864 <_vfprintf_r+0x17a8>
    a130:	e59d303c 	ldr	r3, [sp, #60]	@ 0x3c
    a134:	e59d2048 	ldr	r2, [sp, #72]	@ 0x48
    a138:	e1530002 	cmp	r3, r2
    a13c:	b1a06003 	movlt	r6, r3
    a140:	a1a06002 	movge	r6, r2
    a144:	e3560000 	cmp	r6, #0
    a148:	da000009 	ble	a174 <_vfprintf_r+0x10b8>
    a14c:	e59d3034 	ldr	r3, [sp, #52]	@ 0x34
    a150:	e88b0048 	stm	fp, {r3, r6}
    a154:	e59d3098 	ldr	r3, [sp, #152]	@ 0x98
    a158:	e2833001 	add	r3, r3, #1
    a15c:	e0844006 	add	r4, r4, r6
    a160:	e3530007 	cmp	r3, #7
    a164:	e58d409c 	str	r4, [sp, #156]	@ 0x9c
    a168:	e58d3098 	str	r3, [sp, #152]	@ 0x98
    a16c:	d28bb008 	addle	fp, fp, #8
    a170:	ca00025f 	bgt	aaf4 <_vfprintf_r+0x1a38>
    a174:	e59d503c 	ldr	r5, [sp, #60]	@ 0x3c
    a178:	e3560000 	cmp	r6, #0
    a17c:	a0455006 	subge	r5, r5, r6
    a180:	e3550000 	cmp	r5, #0
    a184:	ca00015c 	bgt	a6fc <_vfprintf_r+0x1640>
    a188:	e59d607c 	ldr	r6, [sp, #124]	@ 0x7c
    a18c:	e59d3048 	ldr	r3, [sp, #72]	@ 0x48
    a190:	e1560003 	cmp	r6, r3
    a194:	ba000178 	blt	a77c <_vfprintf_r+0x16c0>
    a198:	e3180001 	tst	r8, #1
    a19c:	1a000176 	bne	a77c <_vfprintf_r+0x16c0>
    a1a0:	e59d3048 	ldr	r3, [sp, #72]	@ 0x48
    a1a4:	e59d203c 	ldr	r2, [sp, #60]	@ 0x3c
    a1a8:	e0436006 	sub	r6, r3, r6
    a1ac:	e0435002 	sub	r5, r3, r2
    a1b0:	e1550006 	cmp	r5, r6
    a1b4:	a1a05006 	movge	r5, r6
    a1b8:	e3550000 	cmp	r5, #0
    a1bc:	da00000b 	ble	a1f0 <_vfprintf_r+0x1134>
    a1c0:	e59d3034 	ldr	r3, [sp, #52]	@ 0x34
    a1c4:	e0833002 	add	r3, r3, r2
    a1c8:	e58b3000 	str	r3, [fp]
    a1cc:	e59d3098 	ldr	r3, [sp, #152]	@ 0x98
    a1d0:	e2833001 	add	r3, r3, #1
    a1d4:	e0844005 	add	r4, r4, r5
    a1d8:	e3530007 	cmp	r3, #7
    a1dc:	e58b5004 	str	r5, [fp, #4]
    a1e0:	e58d409c 	str	r4, [sp, #156]	@ 0x9c
    a1e4:	e58d3098 	str	r3, [sp, #152]	@ 0x98
    a1e8:	d28bb008 	addle	fp, fp, #8
    a1ec:	ca0002d0 	bgt	ad34 <_vfprintf_r+0x1c78>
    a1f0:	e3550000 	cmp	r5, #0
    a1f4:	a0466005 	subge	r6, r6, r5
    a1f8:	e3560000 	cmp	r6, #0
    a1fc:	dafffcdf 	ble	9580 <_vfprintf_r+0x4c4>
    a200:	e3560010 	cmp	r6, #16
    a204:	e59d3098 	ldr	r3, [sp, #152]	@ 0x98
    a208:	d59f7408 	ldrle	r7, [pc, #1032]	@ a618 <_vfprintf_r+0x155c>
    a20c:	da000225 	ble	aaa8 <_vfprintf_r+0x19ec>
    a210:	e1a02004 	mov	r2, r4
    a214:	e3a05010 	mov	r5, #16
    a218:	e59f73f8 	ldr	r7, [pc, #1016]	@ a618 <_vfprintf_r+0x155c>
    a21c:	e59d902c 	ldr	r9, [sp, #44]	@ 0x2c
    a220:	e59d401c 	ldr	r4, [sp, #28]
    a224:	ea000002 	b	a234 <_vfprintf_r+0x1178>
    a228:	e2466010 	sub	r6, r6, #16
    a22c:	e3560010 	cmp	r6, #16
    a230:	da00021b 	ble	aaa4 <_vfprintf_r+0x19e8>
    a234:	e2833001 	add	r3, r3, #1
    a238:	e2822010 	add	r2, r2, #16
    a23c:	e3530007 	cmp	r3, #7
    a240:	e58b7000 	str	r7, [fp]
    a244:	e58b5004 	str	r5, [fp, #4]
    a248:	e58d209c 	str	r2, [sp, #156]	@ 0x9c
    a24c:	e58d3098 	str	r3, [sp, #152]	@ 0x98
    a250:	d28bb008 	addle	fp, fp, #8
    a254:	dafffff3 	ble	a228 <_vfprintf_r+0x116c>
    a258:	e1a01004 	mov	r1, r4
    a25c:	e1a00009 	mov	r0, r9
    a260:	e28d2094 	add	r2, sp, #148	@ 0x94
    a264:	eb001099 	bl	e4d0 <__sprint_r>
    a268:	e3500000 	cmp	r0, #0
    a26c:	1afffc74 	bne	9444 <_vfprintf_r+0x388>
    a270:	e59d209c 	ldr	r2, [sp, #156]	@ 0x9c
    a274:	e59d3098 	ldr	r3, [sp, #152]	@ 0x98
    a278:	e28db0c8 	add	fp, sp, #200	@ 0xc8
    a27c:	eaffffe9 	b	a228 <_vfprintf_r+0x116c>
    a280:	e1a09003 	mov	r9, r3
    a284:	e3a03030 	mov	r3, #48	@ 0x30
    a288:	e5cd30c7 	strb	r3, [sp, #199]	@ 0xc7
    a28c:	e28d30c7 	add	r3, sp, #199	@ 0xc7
    a290:	e1a08000 	mov	r8, r0
    a294:	e58d3034 	str	r3, [sp, #52]	@ 0x34
    a298:	eafffd1e 	b	9718 <_vfprintf_r+0x65c>
    a29c:	e3180001 	tst	r8, #1
    a2a0:	1afffecf 	bne	9de4 <_vfprintf_r+0xd28>
    a2a4:	e59d3034 	ldr	r3, [sp, #52]	@ 0x34
    a2a8:	e58b3000 	str	r3, [fp]
    a2ac:	e3a03001 	mov	r3, #1
    a2b0:	e3550007 	cmp	r5, #7
    a2b4:	e58d409c 	str	r4, [sp, #156]	@ 0x9c
    a2b8:	e58d5098 	str	r5, [sp, #152]	@ 0x98
    a2bc:	e58b3004 	str	r3, [fp, #4]
    a2c0:	dafffeed 	ble	9e7c <_vfprintf_r+0xdc0>
    a2c4:	e59d101c 	ldr	r1, [sp, #28]
    a2c8:	e59d002c 	ldr	r0, [sp, #44]	@ 0x2c
    a2cc:	e28d2094 	add	r2, sp, #148	@ 0x94
    a2d0:	eb00107e 	bl	e4d0 <__sprint_r>
    a2d4:	e3500000 	cmp	r0, #0
    a2d8:	1afffc59 	bne	9444 <_vfprintf_r+0x388>
    a2dc:	e59d409c 	ldr	r4, [sp, #156]	@ 0x9c
    a2e0:	e59d5098 	ldr	r5, [sp, #152]	@ 0x98
    a2e4:	e28d60c8 	add	r6, sp, #200	@ 0xc8
    a2e8:	eafffee3 	b	9e7c <_vfprintf_r+0xdc0>
    a2ec:	e59d3048 	ldr	r3, [sp, #72]	@ 0x48
    a2f0:	e3530001 	cmp	r3, #1
    a2f4:	dafffee0 	ble	9e7c <_vfprintf_r+0xdc0>
    a2f8:	e3530011 	cmp	r3, #17
    a2fc:	d59f7314 	ldrle	r7, [pc, #788]	@ a618 <_vfprintf_r+0x155c>
    a300:	da0001c7 	ble	aa24 <_vfprintf_r+0x1968>
    a304:	e59f730c 	ldr	r7, [pc, #780]	@ a618 <_vfprintf_r+0x155c>
    a308:	e1a02004 	mov	r2, r4
    a30c:	e58d8028 	str	r8, [sp, #40]	@ 0x28
    a310:	e3a09010 	mov	r9, #16
    a314:	e1a08007 	mov	r8, r7
    a318:	e59d402c 	ldr	r4, [sp, #44]	@ 0x2c
    a31c:	e59d701c 	ldr	r7, [sp, #28]
    a320:	ea000002 	b	a330 <_vfprintf_r+0x1274>
    a324:	e24bb010 	sub	fp, fp, #16
    a328:	e35b0010 	cmp	fp, #16
    a32c:	da0001b9 	ble	aa18 <_vfprintf_r+0x195c>
    a330:	e2855001 	add	r5, r5, #1
    a334:	e2822010 	add	r2, r2, #16
    a338:	e3550007 	cmp	r5, #7
    a33c:	e8860300 	stm	r6, {r8, r9}
    a340:	e58d209c 	str	r2, [sp, #156]	@ 0x9c
    a344:	e58d5098 	str	r5, [sp, #152]	@ 0x98
    a348:	d2866008 	addle	r6, r6, #8
    a34c:	dafffff4 	ble	a324 <_vfprintf_r+0x1268>
    a350:	e1a01007 	mov	r1, r7
    a354:	e1a00004 	mov	r0, r4
    a358:	e28d2094 	add	r2, sp, #148	@ 0x94
    a35c:	eb00105b 	bl	e4d0 <__sprint_r>
    a360:	e3500000 	cmp	r0, #0
    a364:	1afffc36 	bne	9444 <_vfprintf_r+0x388>
    a368:	e59d209c 	ldr	r2, [sp, #156]	@ 0x9c
    a36c:	e59d5098 	ldr	r5, [sp, #152]	@ 0x98
    a370:	e28d60c8 	add	r6, sp, #200	@ 0xc8
    a374:	eaffffea 	b	a324 <_vfprintf_r+0x1268>
    a378:	e59d0030 	ldr	r0, [sp, #48]	@ 0x30
    a37c:	e4902004 	ldr	r2, [r0], #4
    a380:	e2183010 	ands	r3, r8, #16
    a384:	e58d0030 	str	r0, [sp, #48]	@ 0x30
    a388:	0a0000a5 	beq	a624 <_vfprintf_r+0x1568>
    a38c:	e1a03001 	mov	r3, r1
    a390:	eafffd4e 	b	98d0 <_vfprintf_r+0x814>
    a394:	e59d0030 	ldr	r0, [sp, #48]	@ 0x30
    a398:	e4902004 	ldr	r2, [r0], #4
    a39c:	e2183010 	ands	r3, r8, #16
    a3a0:	e58d0030 	str	r0, [sp, #48]	@ 0x30
    a3a4:	0a00008a 	beq	a5d4 <_vfprintf_r+0x1518>
    a3a8:	e3a03001 	mov	r3, #1
    a3ac:	eafffd47 	b	98d0 <_vfprintf_r+0x814>
    a3b0:	e1a01fc2 	asr	r1, r2, #31
    a3b4:	e1a03001 	mov	r3, r1
    a3b8:	e3530000 	cmp	r3, #0
    a3bc:	aafffcc2 	bge	96cc <_vfprintf_r+0x610>
    a3c0:	e2722000 	rsbs	r2, r2, #0
    a3c4:	e3a0002d 	mov	r0, #45	@ 0x2d
    a3c8:	e3a03001 	mov	r3, #1
    a3cc:	e2e11000 	rsc	r1, r1, #0
    a3d0:	eafffd3f 	b	98d4 <_vfprintf_r+0x818>
    a3d4:	e3180001 	tst	r8, #1
    a3d8:	0afffc68 	beq	9580 <_vfprintf_r+0x4c4>
    a3dc:	eafffdb7 	b	9ac0 <_vfprintf_r+0xa04>
    a3e0:	e28d1040 	add	r1, sp, #64	@ 0x40
    a3e4:	e8910003 	ldm	r1, {r0, r1}
    a3e8:	e1a02000 	mov	r2, r0
    a3ec:	e1a03001 	mov	r3, r1
    a3f0:	eb002046 	bl	12510 <__aeabi_dcmpun>
    a3f4:	e3500000 	cmp	r0, #0
    a3f8:	1a0002b0 	bne	aec0 <_vfprintf_r+0x1e04>
    a3fc:	e59d3038 	ldr	r3, [sp, #56]	@ 0x38
    a400:	e3790001 	cmn	r9, #1
    a404:	03a09006 	moveq	r9, #6
    a408:	e3c36020 	bic	r6, r3, #32
    a40c:	0a000002 	beq	a41c <_vfprintf_r+0x1360>
    a410:	e3590000 	cmp	r9, #0
    a414:	03560047 	cmpeq	r6, #71	@ 0x47
    a418:	03a09001 	moveq	r9, #1
    a41c:	e28d2040 	add	r2, sp, #64	@ 0x40
    a420:	e8920006 	ldm	r2, {r1, r2}
    a424:	e3520000 	cmp	r2, #0
    a428:	e3885c01 	orr	r5, r8, #256	@ 0x100
    a42c:	ba00020d 	blt	ac68 <_vfprintf_r+0x1bac>
    a430:	e3a07000 	mov	r7, #0
    a434:	e28d4040 	add	r4, sp, #64	@ 0x40
    a438:	e8940018 	ldm	r4, {r3, r4}
    a43c:	e58d3068 	str	r3, [sp, #104]	@ 0x68
    a440:	e58d406c 	str	r4, [sp, #108]	@ 0x6c
    a444:	e59d3038 	ldr	r3, [sp, #56]	@ 0x38
    a448:	e3530065 	cmp	r3, #101	@ 0x65
    a44c:	0a0001e6 	beq	abec <_vfprintf_r+0x1b30>
    a450:	ca000223 	bgt	ace4 <_vfprintf_r+0x1c28>
    a454:	e3530045 	cmp	r3, #69	@ 0x45
    a458:	0a0001e3 	beq	abec <_vfprintf_r+0x1b30>
    a45c:	e3a03002 	mov	r3, #2
    a460:	e58d3000 	str	r3, [sp]
    a464:	e28d308c 	add	r3, sp, #140	@ 0x8c
    a468:	e58d3010 	str	r3, [sp, #16]
    a46c:	e28d3080 	add	r3, sp, #128	@ 0x80
    a470:	e58d300c 	str	r3, [sp, #12]
    a474:	e28d307c 	add	r3, sp, #124	@ 0x7c
    a478:	e58d3008 	str	r3, [sp, #8]
    a47c:	e58d9004 	str	r9, [sp, #4]
    a480:	e59d002c 	ldr	r0, [sp, #44]	@ 0x2c
    a484:	e28d3068 	add	r3, sp, #104	@ 0x68
    a488:	e893000c 	ldm	r3, {r2, r3}
    a48c:	eb0006ab 	bl	bf40 <_dtoa_r>
    a490:	e3180001 	tst	r8, #1
    a494:	e58d0034 	str	r0, [sp, #52]	@ 0x34
    a498:	1a00019e 	bne	ab18 <_vfprintf_r+0x1a5c>
    a49c:	e59d308c 	ldr	r3, [sp, #140]	@ 0x8c
    a4a0:	e59d2034 	ldr	r2, [sp, #52]	@ 0x34
    a4a4:	e0433002 	sub	r3, r3, r2
    a4a8:	e58d3048 	str	r3, [sp, #72]	@ 0x48
    a4ac:	e59d307c 	ldr	r3, [sp, #124]	@ 0x7c
    a4b0:	e58d303c 	str	r3, [sp, #60]	@ 0x3c
    a4b4:	e59d303c 	ldr	r3, [sp, #60]	@ 0x3c
    a4b8:	e3730003 	cmn	r3, #3
    a4bc:	a1590003 	cmpge	r9, r3
    a4c0:	aa0001ed 	bge	ac7c <_vfprintf_r+0x1bc0>
    a4c4:	e59d3038 	ldr	r3, [sp, #56]	@ 0x38
    a4c8:	e2433002 	sub	r3, r3, #2
    a4cc:	e58d3038 	str	r3, [sp, #56]	@ 0x38
    a4d0:	e59d203c 	ldr	r2, [sp, #60]	@ 0x3c
    a4d4:	e59d3038 	ldr	r3, [sp, #56]	@ 0x38
    a4d8:	e5cd3084 	strb	r3, [sp, #132]	@ 0x84
    a4dc:	e2423001 	sub	r3, r2, #1
    a4e0:	e3530000 	cmp	r3, #0
    a4e4:	a3a0202b 	movge	r2, #43	@ 0x2b
    a4e8:	e58d307c 	str	r3, [sp, #124]	@ 0x7c
    a4ec:	b2623001 	rsblt	r3, r2, #1
    a4f0:	b3a0202d 	movlt	r2, #45	@ 0x2d
    a4f4:	e3530009 	cmp	r3, #9
    a4f8:	e5cd2085 	strb	r2, [sp, #133]	@ 0x85
    a4fc:	da000251 	ble	ae48 <_vfprintf_r+0x1d8c>
    a500:	e28d0093 	add	r0, sp, #147	@ 0x93
    a504:	e1a02000 	mov	r2, r0
    a508:	e1a0e003 	mov	lr, r3
    a50c:	e59fc0fc 	ldr	ip, [pc, #252]	@ a610 <_vfprintf_r+0x1554>
    a510:	e1a01002 	mov	r1, r2
    a514:	e0823e9c 	umull	r3, r2, ip, lr
    a518:	e1a021a2 	lsr	r2, r2, #3
    a51c:	e0823102 	add	r3, r2, r2, lsl #2
    a520:	e04e3083 	sub	r3, lr, r3, lsl #1
    a524:	e35e0063 	cmp	lr, #99	@ 0x63
    a528:	e2833030 	add	r3, r3, #48	@ 0x30
    a52c:	e1a0e002 	mov	lr, r2
    a530:	e5413001 	strb	r3, [r1, #-1]
    a534:	e2412001 	sub	r2, r1, #1
    a538:	cafffff4 	bgt	a510 <_vfprintf_r+0x1454>
    a53c:	e28e3030 	add	r3, lr, #48	@ 0x30
    a540:	e5423001 	strb	r3, [r2, #-1]
    a544:	e2413002 	sub	r3, r1, #2
    a548:	e1530000 	cmp	r3, r0
    a54c:	2a000289 	bcs	af78 <_vfprintf_r+0x1ebc>
    a550:	e28d2085 	add	r2, sp, #133	@ 0x85
    a554:	e4d3c001 	ldrb	ip, [r3], #1
    a558:	e1530000 	cmp	r3, r0
    a55c:	e5e2c001 	strb	ip, [r2, #1]!
    a560:	1afffffb 	bne	a554 <_vfprintf_r+0x1498>
    a564:	e28d3f42 	add	r3, sp, #264	@ 0x108
    a568:	e0431001 	sub	r1, r3, r1
    a56c:	e2413071 	sub	r3, r1, #113	@ 0x71
    a570:	e58d3054 	str	r3, [sp, #84]	@ 0x54
    a574:	e59d3048 	ldr	r3, [sp, #72]	@ 0x48
    a578:	e59d2054 	ldr	r2, [sp, #84]	@ 0x54
    a57c:	e3530001 	cmp	r3, #1
    a580:	e0833002 	add	r3, r3, r2
    a584:	e58d3028 	str	r3, [sp, #40]	@ 0x28
    a588:	da000248 	ble	aeb0 <_vfprintf_r+0x1df4>
    a58c:	e59d3028 	ldr	r3, [sp, #40]	@ 0x28
    a590:	e59d204c 	ldr	r2, [sp, #76]	@ 0x4c
    a594:	e0833002 	add	r3, r3, r2
    a598:	e3a02000 	mov	r2, #0
    a59c:	e58d3028 	str	r3, [sp, #40]	@ 0x28
    a5a0:	e1c33fc3 	bic	r3, r3, r3, asr #31
    a5a4:	e58d203c 	str	r2, [sp, #60]	@ 0x3c
    a5a8:	e58d3018 	str	r3, [sp, #24]
    a5ac:	ea000182 	b	abbc <_vfprintf_r+0x1b00>
    a5b0:	e3180010 	tst	r8, #16
    a5b4:	1a000085 	bne	a7d0 <_vfprintf_r+0x1714>
    a5b8:	e3180040 	tst	r8, #64	@ 0x40
    a5bc:	0a000083 	beq	a7d0 <_vfprintf_r+0x1714>
    a5c0:	e59d3030 	ldr	r3, [sp, #48]	@ 0x30
    a5c4:	e59d2024 	ldr	r2, [sp, #36]	@ 0x24
    a5c8:	e5933000 	ldr	r3, [r3]
    a5cc:	e1c320b0 	strh	r2, [r3]
    a5d0:	eafffd15 	b	9a2c <_vfprintf_r+0x970>
    a5d4:	e2181040 	ands	r1, r8, #64	@ 0x40
    a5d8:	11a02802 	lslne	r2, r2, #16
    a5dc:	11a01003 	movne	r1, r3
    a5e0:	11a02822 	lsrne	r2, r2, #16
    a5e4:	e3a03001 	mov	r3, #1
    a5e8:	eafffcb8 	b	98d0 <_vfprintf_r+0x814>
    a5ec:	7fefffff 	.word	0x7fefffff
    a5f0:	0001286c 	.word	0x0001286c
    a5f4:	00012868 	.word	0x00012868
    a5f8:	00007830 	.word	0x00007830
    a5fc:	000125f4 	.word	0x000125f4
    a600:	00012878 	.word	0x00012878
    a604:	0001288c 	.word	0x0001288c
    a608:	000128a0 	.word	0x000128a0
    a60c:	000128a8 	.word	0x000128a8
    a610:	cccccccd 	.word	0xcccccccd
    a614:	cccccccc 	.word	0xcccccccc
    a618:	00012604 	.word	0x00012604
    a61c:	00012874 	.word	0x00012874
    a620:	00012870 	.word	0x00012870
    a624:	e2181040 	ands	r1, r8, #64	@ 0x40
    a628:	11a01003 	movne	r1, r3
    a62c:	11a02802 	lslne	r2, r2, #16
    a630:	e1a03001 	mov	r3, r1
    a634:	11a02822 	lsrne	r2, r2, #16
    a638:	eafffca4 	b	98d0 <_vfprintf_r+0x814>
    a63c:	e51f3044 	ldr	r3, [pc, #-68]	@ a600 <_vfprintf_r+0x1544>
    a640:	e58d5038 	str	r5, [sp, #56]	@ 0x38
    a644:	e58d3058 	str	r3, [sp, #88]	@ 0x58
    a648:	e2181020 	ands	r1, r8, #32
    a64c:	0a000066 	beq	a7ec <_vfprintf_r+0x1730>
    a650:	e59d3030 	ldr	r3, [sp, #48]	@ 0x30
    a654:	e2833007 	add	r3, r3, #7
    a658:	e3c33007 	bic	r3, r3, #7
    a65c:	e5931004 	ldr	r1, [r3, #4]
    a660:	e4932008 	ldr	r2, [r3], #8
    a664:	e58d3030 	str	r3, [sp, #48]	@ 0x30
    a668:	e3180001 	tst	r8, #1
    a66c:	0a00005c 	beq	a7e4 <_vfprintf_r+0x1728>
    a670:	e1923001 	orrs	r3, r2, r1
    a674:	0a00005a 	beq	a7e4 <_vfprintf_r+0x1728>
    a678:	e59d3038 	ldr	r3, [sp, #56]	@ 0x38
    a67c:	e5cd3079 	strb	r3, [sp, #121]	@ 0x79
    a680:	e3a03030 	mov	r3, #48	@ 0x30
    a684:	e3888002 	orr	r8, r8, #2
    a688:	e5cd3078 	strb	r3, [sp, #120]	@ 0x78
    a68c:	e3a03002 	mov	r3, #2
    a690:	eafffc8e 	b	98d0 <_vfprintf_r+0x814>
    a694:	e58d5038 	str	r5, [sp, #56]	@ 0x38
    a698:	eafffca2 	b	9928 <_vfprintf_r+0x86c>
    a69c:	e58d5038 	str	r5, [sp, #56]	@ 0x38
    a6a0:	eafffc7f 	b	98a4 <_vfprintf_r+0x7e8>
    a6a4:	e51f30a8 	ldr	r3, [pc, #-168]	@ a604 <_vfprintf_r+0x1548>
    a6a8:	e58d5038 	str	r5, [sp, #56]	@ 0x38
    a6ac:	e58d3058 	str	r3, [sp, #88]	@ 0x58
    a6b0:	eaffffe4 	b	a648 <_vfprintf_r+0x158c>
    a6b4:	e59d101c 	ldr	r1, [sp, #28]
    a6b8:	e59d002c 	ldr	r0, [sp, #44]	@ 0x2c
    a6bc:	e28d2094 	add	r2, sp, #148	@ 0x94
    a6c0:	eb000f82 	bl	e4d0 <__sprint_r>
    a6c4:	e3500000 	cmp	r0, #0
    a6c8:	1afffb5d 	bne	9444 <_vfprintf_r+0x388>
    a6cc:	e59d409c 	ldr	r4, [sp, #156]	@ 0x9c
    a6d0:	e28db0c8 	add	fp, sp, #200	@ 0xc8
    a6d4:	eafffd04 	b	9aec <_vfprintf_r+0xa30>
    a6d8:	e3590006 	cmp	r9, #6
    a6dc:	31a03009 	movcc	r3, r9
    a6e0:	23a03006 	movcs	r3, #6
    a6e4:	e51f20e4 	ldr	r2, [pc, #-228]	@ a608 <_vfprintf_r+0x154c>
    a6e8:	e58d3028 	str	r3, [sp, #40]	@ 0x28
    a6ec:	e58d4030 	str	r4, [sp, #48]	@ 0x30
    a6f0:	e58d2034 	str	r2, [sp, #52]	@ 0x34
    a6f4:	e58d3018 	str	r3, [sp, #24]
    a6f8:	eafffb64 	b	9490 <_vfprintf_r+0x3d4>
    a6fc:	e3550010 	cmp	r5, #16
    a700:	e59d3098 	ldr	r3, [sp, #152]	@ 0x98
    a704:	d51f70f4 	ldrle	r7, [pc, #-244]	@ a618 <_vfprintf_r+0x155c>
    a708:	da0000d3 	ble	aa5c <_vfprintf_r+0x19a0>
    a70c:	e1a02004 	mov	r2, r4
    a710:	e3a06010 	mov	r6, #16
    a714:	e51f7104 	ldr	r7, [pc, #-260]	@ a618 <_vfprintf_r+0x155c>
    a718:	e59d902c 	ldr	r9, [sp, #44]	@ 0x2c
    a71c:	e59d401c 	ldr	r4, [sp, #28]
    a720:	ea000002 	b	a730 <_vfprintf_r+0x1674>
    a724:	e2455010 	sub	r5, r5, #16
    a728:	e3550010 	cmp	r5, #16
    a72c:	da0000c9 	ble	aa58 <_vfprintf_r+0x199c>
    a730:	e2833001 	add	r3, r3, #1
    a734:	e2822010 	add	r2, r2, #16
    a738:	e3530007 	cmp	r3, #7
    a73c:	e58b7000 	str	r7, [fp]
    a740:	e58b6004 	str	r6, [fp, #4]
    a744:	e58d209c 	str	r2, [sp, #156]	@ 0x9c
    a748:	e58d3098 	str	r3, [sp, #152]	@ 0x98
    a74c:	d28bb008 	addle	fp, fp, #8
    a750:	dafffff3 	ble	a724 <_vfprintf_r+0x1668>
    a754:	e1a01004 	mov	r1, r4
    a758:	e1a00009 	mov	r0, r9
    a75c:	e28d2094 	add	r2, sp, #148	@ 0x94
    a760:	eb000f5a 	bl	e4d0 <__sprint_r>
    a764:	e3500000 	cmp	r0, #0
    a768:	1afffb35 	bne	9444 <_vfprintf_r+0x388>
    a76c:	e59d209c 	ldr	r2, [sp, #156]	@ 0x9c
    a770:	e59d3098 	ldr	r3, [sp, #152]	@ 0x98
    a774:	e28db0c8 	add	fp, sp, #200	@ 0xc8
    a778:	eaffffe9 	b	a724 <_vfprintf_r+0x1668>
    a77c:	e59d304c 	ldr	r3, [sp, #76]	@ 0x4c
    a780:	e59d2050 	ldr	r2, [sp, #80]	@ 0x50
    a784:	e0844003 	add	r4, r4, r3
    a788:	e88b000c 	stm	fp, {r2, r3}
    a78c:	e59d3098 	ldr	r3, [sp, #152]	@ 0x98
    a790:	e2833001 	add	r3, r3, #1
    a794:	e3530007 	cmp	r3, #7
    a798:	e58d409c 	str	r4, [sp, #156]	@ 0x9c
    a79c:	e58d3098 	str	r3, [sp, #152]	@ 0x98
    a7a0:	d28bb008 	addle	fp, fp, #8
    a7a4:	dafffe7d 	ble	a1a0 <_vfprintf_r+0x10e4>
    a7a8:	e59d101c 	ldr	r1, [sp, #28]
    a7ac:	e59d002c 	ldr	r0, [sp, #44]	@ 0x2c
    a7b0:	e28d2094 	add	r2, sp, #148	@ 0x94
    a7b4:	eb000f45 	bl	e4d0 <__sprint_r>
    a7b8:	e3500000 	cmp	r0, #0
    a7bc:	1afffb20 	bne	9444 <_vfprintf_r+0x388>
    a7c0:	e59d607c 	ldr	r6, [sp, #124]	@ 0x7c
    a7c4:	e59d409c 	ldr	r4, [sp, #156]	@ 0x9c
    a7c8:	e28db0c8 	add	fp, sp, #200	@ 0xc8
    a7cc:	eafffe73 	b	a1a0 <_vfprintf_r+0x10e4>
    a7d0:	e59d3030 	ldr	r3, [sp, #48]	@ 0x30
    a7d4:	e59d2024 	ldr	r2, [sp, #36]	@ 0x24
    a7d8:	e5933000 	ldr	r3, [r3]
    a7dc:	e5832000 	str	r2, [r3]
    a7e0:	eafffc91 	b	9a2c <_vfprintf_r+0x970>
    a7e4:	e3a03002 	mov	r3, #2
    a7e8:	eafffc38 	b	98d0 <_vfprintf_r+0x814>
    a7ec:	e59d0030 	ldr	r0, [sp, #48]	@ 0x30
    a7f0:	e4902004 	ldr	r2, [r0], #4
    a7f4:	e2183010 	ands	r3, r8, #16
    a7f8:	e58d0030 	str	r0, [sp, #48]	@ 0x30
    a7fc:	1affff99 	bne	a668 <_vfprintf_r+0x15ac>
    a800:	e2181040 	ands	r1, r8, #64	@ 0x40
    a804:	11a02802 	lslne	r2, r2, #16
    a808:	11a01003 	movne	r1, r3
    a80c:	11a02822 	lsrne	r2, r2, #16
    a810:	eaffff94 	b	a668 <_vfprintf_r+0x15ac>
    a814:	e59d101c 	ldr	r1, [sp, #28]
    a818:	e59d002c 	ldr	r0, [sp, #44]	@ 0x2c
    a81c:	e28d2094 	add	r2, sp, #148	@ 0x94
    a820:	eb000f2a 	bl	e4d0 <__sprint_r>
    a824:	e3500000 	cmp	r0, #0
    a828:	1afffb05 	bne	9444 <_vfprintf_r+0x388>
    a82c:	e59d409c 	ldr	r4, [sp, #156]	@ 0x9c
    a830:	e59d5098 	ldr	r5, [sp, #152]	@ 0x98
    a834:	e28d60c8 	add	r6, sp, #200	@ 0xc8
    a838:	eafffd71 	b	9e04 <_vfprintf_r+0xd48>
    a83c:	e59d101c 	ldr	r1, [sp, #28]
    a840:	e59d002c 	ldr	r0, [sp, #44]	@ 0x2c
    a844:	e28d2094 	add	r2, sp, #148	@ 0x94
    a848:	eb000f20 	bl	e4d0 <__sprint_r>
    a84c:	e3500000 	cmp	r0, #0
    a850:	1afffafb 	bne	9444 <_vfprintf_r+0x388>
    a854:	e59d409c 	ldr	r4, [sp, #156]	@ 0x9c
    a858:	e59d5098 	ldr	r5, [sp, #152]	@ 0x98
    a85c:	e28d60c8 	add	r6, sp, #200	@ 0xc8
    a860:	eafffd71 	b	9e2c <_vfprintf_r+0xd70>
    a864:	e3a03001 	mov	r3, #1
    a868:	e58b3004 	str	r3, [fp, #4]
    a86c:	e59d3098 	ldr	r3, [sp, #152]	@ 0x98
    a870:	e2833001 	add	r3, r3, #1
    a874:	e3530007 	cmp	r3, #7
    a878:	e58d3098 	str	r3, [sp, #152]	@ 0x98
    a87c:	e51f3278 	ldr	r3, [pc, #-632]	@ a60c <_vfprintf_r+0x1550>
    a880:	e2844001 	add	r4, r4, #1
    a884:	e58b3000 	str	r3, [fp]
    a888:	e58d409c 	str	r4, [sp, #156]	@ 0x9c
    a88c:	d28bb008 	addle	fp, fp, #8
    a890:	ca00008d 	bgt	aacc <_vfprintf_r+0x1a10>
    a894:	e59d3048 	ldr	r3, [sp, #72]	@ 0x48
    a898:	e1933005 	orrs	r3, r3, r5
    a89c:	0a000116 	beq	acfc <_vfprintf_r+0x1c40>
    a8a0:	e59d304c 	ldr	r3, [sp, #76]	@ 0x4c
    a8a4:	e59d2050 	ldr	r2, [sp, #80]	@ 0x50
    a8a8:	e0834004 	add	r4, r3, r4
    a8ac:	e88b000c 	stm	fp, {r2, r3}
    a8b0:	e59d3098 	ldr	r3, [sp, #152]	@ 0x98
    a8b4:	e2833001 	add	r3, r3, #1
    a8b8:	e3530007 	cmp	r3, #7
    a8bc:	e58d409c 	str	r4, [sp, #156]	@ 0x9c
    a8c0:	e58d3098 	str	r3, [sp, #152]	@ 0x98
    a8c4:	d28bb008 	addle	fp, fp, #8
    a8c8:	ca0000fa 	bgt	acb8 <_vfprintf_r+0x1bfc>
    a8cc:	e3550000 	cmp	r5, #0
    a8d0:	ba000131 	blt	ad9c <_vfprintf_r+0x1ce0>
    a8d4:	e59d2034 	ldr	r2, [sp, #52]	@ 0x34
    a8d8:	e58b2000 	str	r2, [fp]
    a8dc:	e59d2048 	ldr	r2, [sp, #72]	@ 0x48
    a8e0:	e2833001 	add	r3, r3, #1
    a8e4:	e0824004 	add	r4, r2, r4
    a8e8:	e3530007 	cmp	r3, #7
    a8ec:	e58d3098 	str	r3, [sp, #152]	@ 0x98
    a8f0:	e58b2004 	str	r2, [fp, #4]
    a8f4:	e58d409c 	str	r4, [sp, #156]	@ 0x9c
    a8f8:	dafffb1f 	ble	957c <_vfprintf_r+0x4c0>
    a8fc:	eafffd69 	b	9ea8 <_vfprintf_r+0xdec>
    a900:	e3a03030 	mov	r3, #48	@ 0x30
    a904:	e59d2034 	ldr	r2, [sp, #52]	@ 0x34
    a908:	e2400002 	sub	r0, r0, #2
    a90c:	e5423001 	strb	r3, [r2, #-1]
    a910:	e28d30c8 	add	r3, sp, #200	@ 0xc8
    a914:	e0433000 	sub	r3, r3, r0
    a918:	e58d3028 	str	r3, [sp, #40]	@ 0x28
    a91c:	e58d0034 	str	r0, [sp, #52]	@ 0x34
    a920:	eafffb7c 	b	9718 <_vfprintf_r+0x65c>
    a924:	e59d002c 	ldr	r0, [sp, #44]	@ 0x2c
    a928:	eb000e78 	bl	e310 <__sinit>
    a92c:	eafff9f5 	b	9108 <_vfprintf_r+0x4c>
    a930:	e59d101c 	ldr	r1, [sp, #28]
    a934:	e59d002c 	ldr	r0, [sp, #44]	@ 0x2c
    a938:	e28d2094 	add	r2, sp, #148	@ 0x94
    a93c:	eb000ee3 	bl	e4d0 <__sprint_r>
    a940:	e3500000 	cmp	r0, #0
    a944:	1afffabe 	bne	9444 <_vfprintf_r+0x388>
    a948:	e59d409c 	ldr	r4, [sp, #156]	@ 0x9c
    a94c:	e28db0c8 	add	fp, sp, #200	@ 0xc8
    a950:	eafffc56 	b	9ab0 <_vfprintf_r+0x9f4>
    a954:	e28d30c8 	add	r3, sp, #200	@ 0xc8
    a958:	e1a04003 	mov	r4, r3
    a95c:	e51f7354 	ldr	r7, [pc, #-852]	@ a610 <_vfprintf_r+0x1554>
    a960:	e51f6354 	ldr	r6, [pc, #-852]	@ a614 <_vfprintf_r+0x1558>
    a964:	e58d8018 	str	r8, [sp, #24]
    a968:	e58d9028 	str	r9, [sp, #40]	@ 0x28
    a96c:	e0920001 	adds	r0, r2, r1
    a970:	e2a00000 	adc	r0, r0, #0
    a974:	e08e3097 	umull	r3, lr, r7, r0
    a978:	e3ce3003 	bic	r3, lr, #3
    a97c:	e083312e 	add	r3, r3, lr, lsr #2
    a980:	e0400003 	sub	r0, r0, r3
    a984:	e1a05002 	mov	r5, r2
    a988:	e0522000 	subs	r2, r2, r0
    a98c:	e2c13000 	sbc	r3, r1, #0
    a990:	e1a0c001 	mov	ip, r1
    a994:	e0010296 	mul	r1, r6, r2
    a998:	e3a09005 	mov	r9, #5
    a99c:	e0211397 	mla	r1, r7, r3, r1
    a9a0:	e08e3792 	umull	r3, lr, r2, r7
    a9a4:	e081100e 	add	r1, r1, lr
    a9a8:	e203e001 	and	lr, r3, #1
    a9ac:	e088299e 	umull	r2, r8, lr, r9
    a9b0:	e0920000 	adds	r0, r2, r0
    a9b4:	e355000a 	cmp	r5, #10
    a9b8:	e1a030a3 	lsr	r3, r3, #1
    a9bc:	e2800030 	add	r0, r0, #48	@ 0x30
    a9c0:	e2dcc000 	sbcs	ip, ip, #0
    a9c4:	e1832f81 	orr	r2, r3, r1, lsl #31
    a9c8:	e5640001 	strb	r0, [r4, #-1]!
    a9cc:	e1a010a1 	lsr	r1, r1, #1
    a9d0:	2affffe5 	bcs	a96c <_vfprintf_r+0x18b0>
    a9d4:	e28d30c8 	add	r3, sp, #200	@ 0xc8
    a9d8:	e0433004 	sub	r3, r3, r4
    a9dc:	e59d9028 	ldr	r9, [sp, #40]	@ 0x28
    a9e0:	e58d4034 	str	r4, [sp, #52]	@ 0x34
    a9e4:	e59d8018 	ldr	r8, [sp, #24]
    a9e8:	e58d3028 	str	r3, [sp, #40]	@ 0x28
    a9ec:	eafffb49 	b	9718 <_vfprintf_r+0x65c>
    a9f0:	e59d0034 	ldr	r0, [sp, #52]	@ 0x34
    a9f4:	ebfff941 	bl	8f00 <strlen>
    a9f8:	e1c02fc0 	bic	r2, r0, r0, asr #31
    a9fc:	e1a09006 	mov	r9, r6
    aa00:	e58d0028 	str	r0, [sp, #40]	@ 0x28
    aa04:	e58d4030 	str	r4, [sp, #48]	@ 0x30
    aa08:	e5dd3077 	ldrb	r3, [sp, #119]	@ 0x77
    aa0c:	e58d603c 	str	r6, [sp, #60]	@ 0x3c
    aa10:	e58d2018 	str	r2, [sp, #24]
    aa14:	eafffb46 	b	9734 <_vfprintf_r+0x678>
    aa18:	e1a04002 	mov	r4, r2
    aa1c:	e1a07008 	mov	r7, r8
    aa20:	e59d8028 	ldr	r8, [sp, #40]	@ 0x28
    aa24:	e5867000 	str	r7, [r6]
    aa28:	e2855001 	add	r5, r5, #1
    aa2c:	eafffd0b 	b	9e60 <_vfprintf_r+0xda4>
    aa30:	e1a04002 	mov	r4, r2
    aa34:	e2833001 	add	r3, r3, #1
    aa38:	e0844005 	add	r4, r4, r5
    aa3c:	e3530007 	cmp	r3, #7
    aa40:	e58b7000 	str	r7, [fp]
    aa44:	e58b5004 	str	r5, [fp, #4]
    aa48:	e58d3098 	str	r3, [sp, #152]	@ 0x98
    aa4c:	e58d409c 	str	r4, [sp, #156]	@ 0x9c
    aa50:	dafffac9 	ble	957c <_vfprintf_r+0x4c0>
    aa54:	eafffd13 	b	9ea8 <_vfprintf_r+0xdec>
    aa58:	e1a04002 	mov	r4, r2
    aa5c:	e2833001 	add	r3, r3, #1
    aa60:	e0844005 	add	r4, r4, r5
    aa64:	e3530007 	cmp	r3, #7
    aa68:	e58b7000 	str	r7, [fp]
    aa6c:	e58b5004 	str	r5, [fp, #4]
    aa70:	e58d3098 	str	r3, [sp, #152]	@ 0x98
    aa74:	e58d409c 	str	r4, [sp, #156]	@ 0x9c
    aa78:	d28bb008 	addle	fp, fp, #8
    aa7c:	dafffdc1 	ble	a188 <_vfprintf_r+0x10cc>
    aa80:	e59d101c 	ldr	r1, [sp, #28]
    aa84:	e59d002c 	ldr	r0, [sp, #44]	@ 0x2c
    aa88:	e28d2094 	add	r2, sp, #148	@ 0x94
    aa8c:	eb000e8f 	bl	e4d0 <__sprint_r>
    aa90:	e3500000 	cmp	r0, #0
    aa94:	1afffa6a 	bne	9444 <_vfprintf_r+0x388>
    aa98:	e59d409c 	ldr	r4, [sp, #156]	@ 0x9c
    aa9c:	e28db0c8 	add	fp, sp, #200	@ 0xc8
    aaa0:	eafffdb8 	b	a188 <_vfprintf_r+0x10cc>
    aaa4:	e1a04002 	mov	r4, r2
    aaa8:	e2833001 	add	r3, r3, #1
    aaac:	e0844006 	add	r4, r4, r6
    aab0:	e3530007 	cmp	r3, #7
    aab4:	e58b7000 	str	r7, [fp]
    aab8:	e58b6004 	str	r6, [fp, #4]
    aabc:	e58d3098 	str	r3, [sp, #152]	@ 0x98
    aac0:	e58d409c 	str	r4, [sp, #156]	@ 0x9c
    aac4:	dafffaac 	ble	957c <_vfprintf_r+0x4c0>
    aac8:	eafffcf6 	b	9ea8 <_vfprintf_r+0xdec>
    aacc:	e59d101c 	ldr	r1, [sp, #28]
    aad0:	e59d002c 	ldr	r0, [sp, #44]	@ 0x2c
    aad4:	e28d2094 	add	r2, sp, #148	@ 0x94
    aad8:	eb000e7c 	bl	e4d0 <__sprint_r>
    aadc:	e3500000 	cmp	r0, #0
    aae0:	1afffa57 	bne	9444 <_vfprintf_r+0x388>
    aae4:	e59d507c 	ldr	r5, [sp, #124]	@ 0x7c
    aae8:	e59d409c 	ldr	r4, [sp, #156]	@ 0x9c
    aaec:	e28db0c8 	add	fp, sp, #200	@ 0xc8
    aaf0:	eaffff67 	b	a894 <_vfprintf_r+0x17d8>
    aaf4:	e59d101c 	ldr	r1, [sp, #28]
    aaf8:	e59d002c 	ldr	r0, [sp, #44]	@ 0x2c
    aafc:	e28d2094 	add	r2, sp, #148	@ 0x94
    ab00:	eb000e72 	bl	e4d0 <__sprint_r>
    ab04:	e3500000 	cmp	r0, #0
    ab08:	1afffa4d 	bne	9444 <_vfprintf_r+0x388>
    ab0c:	e59d409c 	ldr	r4, [sp, #156]	@ 0x9c
    ab10:	e28db0c8 	add	fp, sp, #200	@ 0xc8
    ab14:	eafffd96 	b	a174 <_vfprintf_r+0x10b8>
    ab18:	e59d3034 	ldr	r3, [sp, #52]	@ 0x34
    ab1c:	e0834009 	add	r4, r3, r9
    ab20:	e3a02000 	mov	r2, #0
    ab24:	e3a03000 	mov	r3, #0
    ab28:	e28d1068 	add	r1, sp, #104	@ 0x68
    ab2c:	e8910003 	ldm	r1, {r0, r1}
    ab30:	eb001e58 	bl	12498 <__aeabi_dcmpeq>
    ab34:	e3500000 	cmp	r0, #0
    ab38:	1a000089 	bne	ad64 <_vfprintf_r+0x1ca8>
    ab3c:	e59d308c 	ldr	r3, [sp, #140]	@ 0x8c
    ab40:	e1530004 	cmp	r3, r4
    ab44:	2a000006 	bcs	ab64 <_vfprintf_r+0x1aa8>
    ab48:	e3a01030 	mov	r1, #48	@ 0x30
    ab4c:	e2832001 	add	r2, r3, #1
    ab50:	e58d208c 	str	r2, [sp, #140]	@ 0x8c
    ab54:	e5c31000 	strb	r1, [r3]
    ab58:	e59d308c 	ldr	r3, [sp, #140]	@ 0x8c
    ab5c:	e1540003 	cmp	r4, r3
    ab60:	8afffff9 	bhi	ab4c <_vfprintf_r+0x1a90>
    ab64:	e59d207c 	ldr	r2, [sp, #124]	@ 0x7c
    ab68:	e58d203c 	str	r2, [sp, #60]	@ 0x3c
    ab6c:	e59d2034 	ldr	r2, [sp, #52]	@ 0x34
    ab70:	e3560047 	cmp	r6, #71	@ 0x47
    ab74:	e0433002 	sub	r3, r3, r2
    ab78:	e58d3048 	str	r3, [sp, #72]	@ 0x48
    ab7c:	0afffe4c 	beq	a4b4 <_vfprintf_r+0x13f8>
    ab80:	e59d3038 	ldr	r3, [sp, #56]	@ 0x38
    ab84:	e3530066 	cmp	r3, #102	@ 0x66
    ab88:	1afffe50 	bne	a4d0 <_vfprintf_r+0x1414>
    ab8c:	e59d203c 	ldr	r2, [sp, #60]	@ 0x3c
    ab90:	e2083001 	and	r3, r8, #1
    ab94:	e3520000 	cmp	r2, #0
    ab98:	e1833009 	orr	r3, r3, r9
    ab9c:	da0000f8 	ble	af84 <_vfprintf_r+0x1ec8>
    aba0:	e3530000 	cmp	r3, #0
    aba4:	1a0000df 	bne	af28 <_vfprintf_r+0x1e6c>
    aba8:	e59d303c 	ldr	r3, [sp, #60]	@ 0x3c
    abac:	e58d3018 	str	r3, [sp, #24]
    abb0:	e58d3028 	str	r3, [sp, #40]	@ 0x28
    abb4:	e3a03066 	mov	r3, #102	@ 0x66
    abb8:	e58d3038 	str	r3, [sp, #56]	@ 0x38
    abbc:	e3570000 	cmp	r7, #0
    abc0:	e1a08005 	mov	r8, r5
    abc4:	0a000024 	beq	ac5c <_vfprintf_r+0x1ba0>
    abc8:	e3a0302d 	mov	r3, #45	@ 0x2d
    abcc:	e3a09000 	mov	r9, #0
    abd0:	e5cd3077 	strb	r3, [sp, #119]	@ 0x77
    abd4:	eafffad8 	b	973c <_vfprintf_r+0x680>
    abd8:	e59d101c 	ldr	r1, [sp, #28]
    abdc:	e59d002c 	ldr	r0, [sp, #44]	@ 0x2c
    abe0:	e28d2094 	add	r2, sp, #148	@ 0x94
    abe4:	eb000e39 	bl	e4d0 <__sprint_r>
    abe8:	eafffa15 	b	9444 <_vfprintf_r+0x388>
    abec:	e3a03002 	mov	r3, #2
    abf0:	e2892001 	add	r2, r9, #1
    abf4:	e58d2018 	str	r2, [sp, #24]
    abf8:	e58d3000 	str	r3, [sp]
    abfc:	e28d308c 	add	r3, sp, #140	@ 0x8c
    ac00:	e59d4018 	ldr	r4, [sp, #24]
    ac04:	e58d3010 	str	r3, [sp, #16]
    ac08:	e28d3080 	add	r3, sp, #128	@ 0x80
    ac0c:	e58d300c 	str	r3, [sp, #12]
    ac10:	e28d307c 	add	r3, sp, #124	@ 0x7c
    ac14:	e58d4004 	str	r4, [sp, #4]
    ac18:	e58d3008 	str	r3, [sp, #8]
    ac1c:	e59d002c 	ldr	r0, [sp, #44]	@ 0x2c
    ac20:	e28d3068 	add	r3, sp, #104	@ 0x68
    ac24:	e893000c 	ldm	r3, {r2, r3}
    ac28:	eb0004c4 	bl	bf40 <_dtoa_r>
    ac2c:	e59d3038 	ldr	r3, [sp, #56]	@ 0x38
    ac30:	e3530066 	cmp	r3, #102	@ 0x66
    ac34:	e58d0034 	str	r0, [sp, #52]	@ 0x34
    ac38:	e0804004 	add	r4, r0, r4
    ac3c:	1affffb7 	bne	ab20 <_vfprintf_r+0x1a64>
    ac40:	e59d3034 	ldr	r3, [sp, #52]	@ 0x34
    ac44:	e5d33000 	ldrb	r3, [r3]
    ac48:	e3530030 	cmp	r3, #48	@ 0x30
    ac4c:	0a0000a7 	beq	aef0 <_vfprintf_r+0x1e34>
    ac50:	e59d307c 	ldr	r3, [sp, #124]	@ 0x7c
    ac54:	e0844003 	add	r4, r4, r3
    ac58:	eaffffb0 	b	ab20 <_vfprintf_r+0x1a64>
    ac5c:	e1a09007 	mov	r9, r7
    ac60:	e5dd3077 	ldrb	r3, [sp, #119]	@ 0x77
    ac64:	eafffab2 	b	9734 <_vfprintf_r+0x678>
    ac68:	e2823102 	add	r3, r2, #-2147483648	@ 0x80000000
    ac6c:	e3a0702d 	mov	r7, #45	@ 0x2d
    ac70:	e58d1068 	str	r1, [sp, #104]	@ 0x68
    ac74:	e58d306c 	str	r3, [sp, #108]	@ 0x6c
    ac78:	eafffdf1 	b	a444 <_vfprintf_r+0x1388>
    ac7c:	e59d3048 	ldr	r3, [sp, #72]	@ 0x48
    ac80:	e59d203c 	ldr	r2, [sp, #60]	@ 0x3c
    ac84:	e1530002 	cmp	r3, r2
    ac88:	ca000063 	bgt	ae1c <_vfprintf_r+0x1d60>
    ac8c:	e3180001 	tst	r8, #1
    ac90:	e59d303c 	ldr	r3, [sp, #60]	@ 0x3c
    ac94:	0a000001 	beq	aca0 <_vfprintf_r+0x1be4>
    ac98:	e59d204c 	ldr	r2, [sp, #76]	@ 0x4c
    ac9c:	e0823003 	add	r3, r2, r3
    aca0:	e58d3028 	str	r3, [sp, #40]	@ 0x28
    aca4:	e3a02067 	mov	r2, #103	@ 0x67
    aca8:	e58d2038 	str	r2, [sp, #56]	@ 0x38
    acac:	e1c33fc3 	bic	r3, r3, r3, asr #31
    acb0:	e58d3018 	str	r3, [sp, #24]
    acb4:	eaffffc0 	b	abbc <_vfprintf_r+0x1b00>
    acb8:	e59d101c 	ldr	r1, [sp, #28]
    acbc:	e59d002c 	ldr	r0, [sp, #44]	@ 0x2c
    acc0:	e28d2094 	add	r2, sp, #148	@ 0x94
    acc4:	eb000e01 	bl	e4d0 <__sprint_r>
    acc8:	e3500000 	cmp	r0, #0
    accc:	1afff9dc 	bne	9444 <_vfprintf_r+0x388>
    acd0:	e28d3098 	add	r3, sp, #152	@ 0x98
    acd4:	e59d507c 	ldr	r5, [sp, #124]	@ 0x7c
    acd8:	e8930018 	ldm	r3, {r3, r4}
    acdc:	e28db0c8 	add	fp, sp, #200	@ 0xc8
    ace0:	eafffef9 	b	a8cc <_vfprintf_r+0x1810>
    ace4:	e59d3038 	ldr	r3, [sp, #56]	@ 0x38
    ace8:	e3530066 	cmp	r3, #102	@ 0x66
    acec:	1afffdda 	bne	a45c <_vfprintf_r+0x13a0>
    acf0:	e3a03003 	mov	r3, #3
    acf4:	e58d9018 	str	r9, [sp, #24]
    acf8:	eaffffbe 	b	abf8 <_vfprintf_r+0x1b3c>
    acfc:	e3180001 	tst	r8, #1
    ad00:	0afffa1e 	beq	9580 <_vfprintf_r+0x4c4>
    ad04:	e59d304c 	ldr	r3, [sp, #76]	@ 0x4c
    ad08:	e59d2050 	ldr	r2, [sp, #80]	@ 0x50
    ad0c:	e0834004 	add	r4, r3, r4
    ad10:	e88b000c 	stm	fp, {r2, r3}
    ad14:	e59d3098 	ldr	r3, [sp, #152]	@ 0x98
    ad18:	e2833001 	add	r3, r3, #1
    ad1c:	e3530007 	cmp	r3, #7
    ad20:	e58d409c 	str	r4, [sp, #156]	@ 0x9c
    ad24:	e58d3098 	str	r3, [sp, #152]	@ 0x98
    ad28:	caffffe2 	bgt	acb8 <_vfprintf_r+0x1bfc>
    ad2c:	e28bb008 	add	fp, fp, #8
    ad30:	eafffee7 	b	a8d4 <_vfprintf_r+0x1818>
    ad34:	e59d101c 	ldr	r1, [sp, #28]
    ad38:	e59d002c 	ldr	r0, [sp, #44]	@ 0x2c
    ad3c:	e28d2094 	add	r2, sp, #148	@ 0x94
    ad40:	eb000de2 	bl	e4d0 <__sprint_r>
    ad44:	e3500000 	cmp	r0, #0
    ad48:	1afff9bd 	bne	9444 <_vfprintf_r+0x388>
    ad4c:	e59d607c 	ldr	r6, [sp, #124]	@ 0x7c
    ad50:	e59d3048 	ldr	r3, [sp, #72]	@ 0x48
    ad54:	e59d409c 	ldr	r4, [sp, #156]	@ 0x9c
    ad58:	e28db0c8 	add	fp, sp, #200	@ 0xc8
    ad5c:	e0436006 	sub	r6, r3, r6
    ad60:	eafffd22 	b	a1f0 <_vfprintf_r+0x1134>
    ad64:	e59d207c 	ldr	r2, [sp, #124]	@ 0x7c
    ad68:	e1a03004 	mov	r3, r4
    ad6c:	e58d203c 	str	r2, [sp, #60]	@ 0x3c
    ad70:	eaffff7d 	b	ab6c <_vfprintf_r+0x1ab0>
    ad74:	e58d9018 	str	r9, [sp, #24]
    ad78:	e58d9028 	str	r9, [sp, #40]	@ 0x28
    ad7c:	e58d4030 	str	r4, [sp, #48]	@ 0x30
    ad80:	e1a09000 	mov	r9, r0
    ad84:	e5dd3077 	ldrb	r3, [sp, #119]	@ 0x77
    ad88:	e58d003c 	str	r0, [sp, #60]	@ 0x3c
    ad8c:	eafffa68 	b	9734 <_vfprintf_r+0x678>
    ad90:	e3e03000 	mvn	r3, #0
    ad94:	e58d3024 	str	r3, [sp, #36]	@ 0x24
    ad98:	eafff9ad 	b	9454 <_vfprintf_r+0x398>
    ad9c:	e3750010 	cmn	r5, #16
    ada0:	a51f7790 	ldrge	r7, [pc, #-1936]	@ a618 <_vfprintf_r+0x155c>
    ada4:	e2655000 	rsb	r5, r5, #0
    ada8:	aa00002e 	bge	ae68 <_vfprintf_r+0x1dac>
    adac:	e1a02004 	mov	r2, r4
    adb0:	e3a06010 	mov	r6, #16
    adb4:	e51f77a4 	ldr	r7, [pc, #-1956]	@ a618 <_vfprintf_r+0x155c>
    adb8:	e59d902c 	ldr	r9, [sp, #44]	@ 0x2c
    adbc:	e59d401c 	ldr	r4, [sp, #28]
    adc0:	ea000002 	b	add0 <_vfprintf_r+0x1d14>
    adc4:	e2455010 	sub	r5, r5, #16
    adc8:	e3550010 	cmp	r5, #16
    adcc:	da000024 	ble	ae64 <_vfprintf_r+0x1da8>
    add0:	e2833001 	add	r3, r3, #1
    add4:	e2822010 	add	r2, r2, #16
    add8:	e3530007 	cmp	r3, #7
    addc:	e58b7000 	str	r7, [fp]
    ade0:	e58b6004 	str	r6, [fp, #4]
    ade4:	e58d209c 	str	r2, [sp, #156]	@ 0x9c
    ade8:	e58d3098 	str	r3, [sp, #152]	@ 0x98
    adec:	d28bb008 	addle	fp, fp, #8
    adf0:	dafffff3 	ble	adc4 <_vfprintf_r+0x1d08>
    adf4:	e1a01004 	mov	r1, r4
    adf8:	e1a00009 	mov	r0, r9
    adfc:	e28d2094 	add	r2, sp, #148	@ 0x94
    ae00:	eb000db2 	bl	e4d0 <__sprint_r>
    ae04:	e3500000 	cmp	r0, #0
    ae08:	1afff98d 	bne	9444 <_vfprintf_r+0x388>
    ae0c:	e59d209c 	ldr	r2, [sp, #156]	@ 0x9c
    ae10:	e59d3098 	ldr	r3, [sp, #152]	@ 0x98
    ae14:	e28db0c8 	add	fp, sp, #200	@ 0xc8
    ae18:	eaffffe9 	b	adc4 <_vfprintf_r+0x1d08>
    ae1c:	e59d303c 	ldr	r3, [sp, #60]	@ 0x3c
    ae20:	e28d2048 	add	r2, sp, #72	@ 0x48
    ae24:	e3530000 	cmp	r3, #0
    ae28:	e892000c 	ldm	r2, {r2, r3}
    ae2c:	e0833002 	add	r3, r3, r2
    ae30:	e58d3028 	str	r3, [sp, #40]	@ 0x28
    ae34:	caffff9a 	bgt	aca4 <_vfprintf_r+0x1be8>
    ae38:	e59d303c 	ldr	r3, [sp, #60]	@ 0x3c
    ae3c:	e59d2028 	ldr	r2, [sp, #40]	@ 0x28
    ae40:	e2633001 	rsb	r3, r3, #1
    ae44:	eaffff94 	b	ac9c <_vfprintf_r+0x1be0>
    ae48:	e2833030 	add	r3, r3, #48	@ 0x30
    ae4c:	e5cd3087 	strb	r3, [sp, #135]	@ 0x87
    ae50:	e3a03030 	mov	r3, #48	@ 0x30
    ae54:	e5cd3086 	strb	r3, [sp, #134]	@ 0x86
    ae58:	e3a03004 	mov	r3, #4
    ae5c:	e58d3054 	str	r3, [sp, #84]	@ 0x54
    ae60:	eafffdc3 	b	a574 <_vfprintf_r+0x14b8>
    ae64:	e1a04002 	mov	r4, r2
    ae68:	e2833001 	add	r3, r3, #1
    ae6c:	e0844005 	add	r4, r4, r5
    ae70:	e3530007 	cmp	r3, #7
    ae74:	e58b7000 	str	r7, [fp]
    ae78:	e58b5004 	str	r5, [fp, #4]
    ae7c:	e58d409c 	str	r4, [sp, #156]	@ 0x9c
    ae80:	e58d3098 	str	r3, [sp, #152]	@ 0x98
    ae84:	daffffa8 	ble	ad2c <_vfprintf_r+0x1c70>
    ae88:	e59d101c 	ldr	r1, [sp, #28]
    ae8c:	e59d002c 	ldr	r0, [sp, #44]	@ 0x2c
    ae90:	e28d2094 	add	r2, sp, #148	@ 0x94
    ae94:	eb000d8d 	bl	e4d0 <__sprint_r>
    ae98:	e3500000 	cmp	r0, #0
    ae9c:	1afff968 	bne	9444 <_vfprintf_r+0x388>
    aea0:	e28d3098 	add	r3, sp, #152	@ 0x98
    aea4:	e8930018 	ldm	r3, {r3, r4}
    aea8:	e28db0c8 	add	fp, sp, #200	@ 0xc8
    aeac:	eafffe88 	b	a8d4 <_vfprintf_r+0x1818>
    aeb0:	e2182001 	ands	r2, r8, #1
    aeb4:	e58d203c 	str	r2, [sp, #60]	@ 0x3c
    aeb8:	1afffdb3 	bne	a58c <_vfprintf_r+0x14d0>
    aebc:	eaffff7a 	b	acac <_vfprintf_r+0x1bf0>
    aec0:	e59d3044 	ldr	r3, [sp, #68]	@ 0x44
    aec4:	e3530000 	cmp	r3, #0
    aec8:	b3a0302d 	movlt	r3, #45	@ 0x2d
    aecc:	e3a00003 	mov	r0, #3
    aed0:	e3a09000 	mov	r9, #0
    aed4:	a5dd3077 	ldrbge	r3, [sp, #119]	@ 0x77
    aed8:	b5cd3077 	strblt	r3, [sp, #119]	@ 0x77
    aedc:	e58d0018 	str	r0, [sp, #24]
    aee0:	e51f18cc 	ldr	r1, [pc, #-2252]	@ a61c <_vfprintf_r+0x1560>
    aee4:	e51f28cc 	ldr	r2, [pc, #-2252]	@ a620 <_vfprintf_r+0x1564>
    aee8:	e3c88080 	bic	r8, r8, #128	@ 0x80
    aeec:	eafff9e1 	b	9678 <_vfprintf_r+0x5bc>
    aef0:	e3a02000 	mov	r2, #0
    aef4:	e3a03000 	mov	r3, #0
    aef8:	e28d1068 	add	r1, sp, #104	@ 0x68
    aefc:	e8910003 	ldm	r1, {r0, r1}
    af00:	eb001d64 	bl	12498 <__aeabi_dcmpeq>
    af04:	e3500000 	cmp	r0, #0
    af08:	0a000016 	beq	af68 <_vfprintf_r+0x1eac>
    af0c:	e59d307c 	ldr	r3, [sp, #124]	@ 0x7c
    af10:	e0844003 	add	r4, r4, r3
    af14:	e58d303c 	str	r3, [sp, #60]	@ 0x3c
    af18:	e59d3034 	ldr	r3, [sp, #52]	@ 0x34
    af1c:	e0443003 	sub	r3, r4, r3
    af20:	e58d3048 	str	r3, [sp, #72]	@ 0x48
    af24:	eaffff18 	b	ab8c <_vfprintf_r+0x1ad0>
    af28:	e59d304c 	ldr	r3, [sp, #76]	@ 0x4c
    af2c:	e0893003 	add	r3, r9, r3
    af30:	e0833002 	add	r3, r3, r2
    af34:	e3a02066 	mov	r2, #102	@ 0x66
    af38:	e58d3028 	str	r3, [sp, #40]	@ 0x28
    af3c:	e1c33fc3 	bic	r3, r3, r3, asr #31
    af40:	e58d2038 	str	r2, [sp, #56]	@ 0x38
    af44:	e58d3018 	str	r3, [sp, #24]
    af48:	eaffff1b 	b	abbc <_vfprintf_r+0x1b00>
    af4c:	e59d3030 	ldr	r3, [sp, #48]	@ 0x30
    af50:	e4939004 	ldr	r9, [r3], #4
    af54:	e5da5001 	ldrb	r5, [sl, #1]
    af58:	e58d3030 	str	r3, [sp, #48]	@ 0x30
    af5c:	e1a0a002 	mov	sl, r2
    af60:	e1899fc9 	orr	r9, r9, r9, asr #31
    af64:	eafff8ae 	b	9224 <_vfprintf_r+0x168>
    af68:	e59d3018 	ldr	r3, [sp, #24]
    af6c:	e2633001 	rsb	r3, r3, #1
    af70:	e58d307c 	str	r3, [sp, #124]	@ 0x7c
    af74:	eaffff36 	b	ac54 <_vfprintf_r+0x1b98>
    af78:	e3a03002 	mov	r3, #2
    af7c:	e58d3054 	str	r3, [sp, #84]	@ 0x54
    af80:	eafffd7b 	b	a574 <_vfprintf_r+0x14b8>
    af84:	e3530000 	cmp	r3, #0
    af88:	1a000005 	bne	afa4 <_vfprintf_r+0x1ee8>
    af8c:	e3a03001 	mov	r3, #1
    af90:	e3a02066 	mov	r2, #102	@ 0x66
    af94:	e58d3018 	str	r3, [sp, #24]
    af98:	e58d2038 	str	r2, [sp, #56]	@ 0x38
    af9c:	e58d3028 	str	r3, [sp, #40]	@ 0x28
    afa0:	eaffff05 	b	abbc <_vfprintf_r+0x1b00>
    afa4:	e59d304c 	ldr	r3, [sp, #76]	@ 0x4c
    afa8:	e2833001 	add	r3, r3, #1
    afac:	e0833009 	add	r3, r3, r9
    afb0:	eaffffdf 	b	af34 <_vfprintf_r+0x1e78>

0000afb4 <vfprintf>:
    afb4:	e1a0c001 	mov	ip, r1
    afb8:	e52de004 	push	{lr}		@ (str lr, [sp, #-4]!)
    afbc:	e1a0e000 	mov	lr, r0
    afc0:	e1a03002 	mov	r3, r2
    afc4:	e59f2010 	ldr	r2, [pc, #16]	@ afdc <vfprintf+0x28>
    afc8:	e1a0100e 	mov	r1, lr
    afcc:	e5920000 	ldr	r0, [r2]
    afd0:	e49de004 	pop	{lr}		@ (ldr lr, [sp], #4)
    afd4:	e1a0200c 	mov	r2, ip
    afd8:	eafff837 	b	90bc <_vfprintf_r>
    afdc:	00012970 	.word	0x00012970

0000afe0 <__sbprintf>:
    afe0:	e92d40f0 	push	{r4, r5, r6, r7, lr}
    afe4:	e3a0cb01 	mov	ip, #1024	@ 0x400
    afe8:	e1a04001 	mov	r4, r1
    afec:	e24dde46 	sub	sp, sp, #1120	@ 0x460
    aff0:	e24dd00c 	sub	sp, sp, #12
    aff4:	e1a0600d 	mov	r6, sp
    aff8:	e3a0e000 	mov	lr, #0
    affc:	e58dc008 	str	ip, [sp, #8]
    b000:	e58dc014 	str	ip, [sp, #20]
    b004:	e1d4c0bc 	ldrh	ip, [r4, #12]
    b008:	e3ccc002 	bic	ip, ip, #2
    b00c:	e1c6c0bc 	strh	ip, [r6, #12]
    b010:	e594c064 	ldr	ip, [r4, #100]	@ 0x64
    b014:	e58dc064 	str	ip, [sp, #100]	@ 0x64
    b018:	e1d4c0be 	ldrh	ip, [r4, #14]
    b01c:	e1c6c0be 	strh	ip, [r6, #14]
    b020:	e594c01c 	ldr	ip, [r4, #28]
    b024:	e28d1068 	add	r1, sp, #104	@ 0x68
    b028:	e58dc01c 	str	ip, [sp, #28]
    b02c:	e594c024 	ldr	ip, [r4, #36]	@ 0x24
    b030:	e58d1000 	str	r1, [sp]
    b034:	e58d1010 	str	r1, [sp, #16]
    b038:	e1a01006 	mov	r1, r6
    b03c:	e1a07000 	mov	r7, r0
    b040:	e58de018 	str	lr, [sp, #24]
    b044:	e58dc024 	str	ip, [sp, #36]	@ 0x24
    b048:	ebfff81b 	bl	90bc <_vfprintf_r>
    b04c:	e2505000 	subs	r5, r0, #0
    b050:	ba000004 	blt	b068 <__sbprintf+0x88>
    b054:	e1a01006 	mov	r1, r6
    b058:	e1a00007 	mov	r0, r7
    b05c:	eb00008f 	bl	b2a0 <_fflush_r>
    b060:	e3500000 	cmp	r0, #0
    b064:	13e05000 	mvnne	r5, #0
    b068:	e1a00005 	mov	r0, r5
    b06c:	e1dd30bc 	ldrh	r3, [sp, #12]
    b070:	e3130040 	tst	r3, #64	@ 0x40
    b074:	11d430bc 	ldrhne	r3, [r4, #12]
    b078:	13833040 	orrne	r3, r3, #64	@ 0x40
    b07c:	11c430bc 	strhne	r3, [r4, #12]
    b080:	e28dde46 	add	sp, sp, #1120	@ 0x460
    b084:	e28dd00c 	add	sp, sp, #12
    b088:	e8bd40f0 	pop	{r4, r5, r6, r7, lr}
    b08c:	e12fff1e 	bx	lr

0000b090 <__sflush_r>:
    b090:	e1d120fc 	ldrsh	r2, [r1, #12]
    b094:	e3120008 	tst	r2, #8
    b098:	e92d41f0 	push	{r4, r5, r6, r7, r8, lr}
    b09c:	e1a04001 	mov	r4, r1
    b0a0:	e1a07000 	mov	r7, r0
    b0a4:	1a000044 	bne	b1bc <__sflush_r+0x12c>
    b0a8:	e5911004 	ldr	r1, [r1, #4]
    b0ac:	e3823b02 	orr	r3, r2, #2048	@ 0x800
    b0b0:	e3510000 	cmp	r1, #0
    b0b4:	e1c430bc 	strh	r3, [r4, #12]
    b0b8:	da00005f 	ble	b23c <__sflush_r+0x1ac>
    b0bc:	e5945028 	ldr	r5, [r4, #40]	@ 0x28
    b0c0:	e3550000 	cmp	r5, #0
    b0c4:	0a000039 	beq	b1b0 <__sflush_r+0x120>
    b0c8:	e3a01000 	mov	r1, #0
    b0cc:	e2122a01 	ands	r2, r2, #4096	@ 0x1000
    b0d0:	e5976000 	ldr	r6, [r7]
    b0d4:	e5871000 	str	r1, [r7]
    b0d8:	e594101c 	ldr	r1, [r4, #28]
    b0dc:	1a00005a 	bne	b24c <__sflush_r+0x1bc>
    b0e0:	e3a03001 	mov	r3, #1
    b0e4:	e1a00007 	mov	r0, r7
    b0e8:	e1a0e00f 	mov	lr, pc
    b0ec:	e12fff15 	bx	r5
    b0f0:	e3700001 	cmn	r0, #1
    b0f4:	e1a02000 	mov	r2, r0
    b0f8:	0a00005f 	beq	b27c <__sflush_r+0x1ec>
    b0fc:	e1d430fc 	ldrsh	r3, [r4, #12]
    b100:	e5945028 	ldr	r5, [r4, #40]	@ 0x28
    b104:	e594101c 	ldr	r1, [r4, #28]
    b108:	e3130004 	tst	r3, #4
    b10c:	0a000005 	beq	b128 <__sflush_r+0x98>
    b110:	e5943030 	ldr	r3, [r4, #48]	@ 0x30
    b114:	e3530000 	cmp	r3, #0
    b118:	e5943004 	ldr	r3, [r4, #4]
    b11c:	e0422003 	sub	r2, r2, r3
    b120:	1594303c 	ldrne	r3, [r4, #60]	@ 0x3c
    b124:	10422003 	subne	r2, r2, r3
    b128:	e3a03000 	mov	r3, #0
    b12c:	e1a00007 	mov	r0, r7
    b130:	e1a0e00f 	mov	lr, pc
    b134:	e12fff15 	bx	r5
    b138:	e3700001 	cmn	r0, #1
    b13c:	1a000044 	bne	b254 <__sflush_r+0x1c4>
    b140:	e5971000 	ldr	r1, [r7]
    b144:	e351001d 	cmp	r1, #29
    b148:	e1d430fc 	ldrsh	r3, [r4, #12]
    b14c:	8a000035 	bhi	b228 <__sflush_r+0x198>
    b150:	e59f2144 	ldr	r2, [pc, #324]	@ b29c <__sflush_r+0x20c>
    b154:	e1a02132 	lsr	r2, r2, r1
    b158:	e3120001 	tst	r2, #1
    b15c:	0a000031 	beq	b228 <__sflush_r+0x198>
    b160:	e3130a01 	tst	r3, #4096	@ 0x1000
    b164:	e3c33b02 	bic	r3, r3, #2048	@ 0x800
    b168:	e1c430bc 	strh	r3, [r4, #12]
    b16c:	e3a03000 	mov	r3, #0
    b170:	e5843004 	str	r3, [r4, #4]
    b174:	e5943010 	ldr	r3, [r4, #16]
    b178:	e5843000 	str	r3, [r4]
    b17c:	0a000001 	beq	b188 <__sflush_r+0xf8>
    b180:	e3510000 	cmp	r1, #0
    b184:	0a00003a 	beq	b274 <__sflush_r+0x1e4>
    b188:	e5941030 	ldr	r1, [r4, #48]	@ 0x30
    b18c:	e3510000 	cmp	r1, #0
    b190:	e5876000 	str	r6, [r7]
    b194:	0a000005 	beq	b1b0 <__sflush_r+0x120>
    b198:	e2843040 	add	r3, r4, #64	@ 0x40
    b19c:	e1510003 	cmp	r1, r3
    b1a0:	11a00007 	movne	r0, r7
    b1a4:	1b0009b1 	blne	d870 <_free_r>
    b1a8:	e3a03000 	mov	r3, #0
    b1ac:	e5843030 	str	r3, [r4, #48]	@ 0x30
    b1b0:	e3a00000 	mov	r0, #0
    b1b4:	e8bd41f0 	pop	{r4, r5, r6, r7, r8, lr}
    b1b8:	e12fff1e 	bx	lr
    b1bc:	e5916010 	ldr	r6, [r1, #16]
    b1c0:	e3560000 	cmp	r6, #0
    b1c4:	0afffff9 	beq	b1b0 <__sflush_r+0x120>
    b1c8:	e3120003 	tst	r2, #3
    b1cc:	13a03000 	movne	r3, #0
    b1d0:	e5915000 	ldr	r5, [r1]
    b1d4:	05913014 	ldreq	r3, [r1, #20]
    b1d8:	e0455006 	sub	r5, r5, r6
    b1dc:	e3550000 	cmp	r5, #0
    b1e0:	e5816000 	str	r6, [r1]
    b1e4:	e5813008 	str	r3, [r1, #8]
    b1e8:	ca000003 	bgt	b1fc <__sflush_r+0x16c>
    b1ec:	eaffffef 	b	b1b0 <__sflush_r+0x120>
    b1f0:	e3550000 	cmp	r5, #0
    b1f4:	e0866000 	add	r6, r6, r0
    b1f8:	daffffec 	ble	b1b0 <__sflush_r+0x120>
    b1fc:	e1a03005 	mov	r3, r5
    b200:	e1a02006 	mov	r2, r6
    b204:	e1a00007 	mov	r0, r7
    b208:	e594101c 	ldr	r1, [r4, #28]
    b20c:	e594c024 	ldr	ip, [r4, #36]	@ 0x24
    b210:	e1a0e00f 	mov	lr, pc
    b214:	e12fff1c 	bx	ip
    b218:	e3500000 	cmp	r0, #0
    b21c:	e0455000 	sub	r5, r5, r0
    b220:	cafffff2 	bgt	b1f0 <__sflush_r+0x160>
    b224:	e1d430fc 	ldrsh	r3, [r4, #12]
    b228:	e3833040 	orr	r3, r3, #64	@ 0x40
    b22c:	e3e00000 	mvn	r0, #0
    b230:	e1c430bc 	strh	r3, [r4, #12]
    b234:	e8bd41f0 	pop	{r4, r5, r6, r7, r8, lr}
    b238:	e12fff1e 	bx	lr
    b23c:	e594103c 	ldr	r1, [r4, #60]	@ 0x3c
    b240:	e3510000 	cmp	r1, #0
    b244:	caffff9c 	bgt	b0bc <__sflush_r+0x2c>
    b248:	eaffffd8 	b	b1b0 <__sflush_r+0x120>
    b24c:	e5942050 	ldr	r2, [r4, #80]	@ 0x50
    b250:	eaffffac 	b	b108 <__sflush_r+0x78>
    b254:	e1d430fc 	ldrsh	r3, [r4, #12]
    b258:	e3130a01 	tst	r3, #4096	@ 0x1000
    b25c:	e3c33b02 	bic	r3, r3, #2048	@ 0x800
    b260:	e1c430bc 	strh	r3, [r4, #12]
    b264:	e3a03000 	mov	r3, #0
    b268:	e5942010 	ldr	r2, [r4, #16]
    b26c:	e884000c 	stm	r4, {r2, r3}
    b270:	0affffc4 	beq	b188 <__sflush_r+0xf8>
    b274:	e5840050 	str	r0, [r4, #80]	@ 0x50
    b278:	eaffffc2 	b	b188 <__sflush_r+0xf8>
    b27c:	e5973000 	ldr	r3, [r7]
    b280:	e3530000 	cmp	r3, #0
    b284:	0affff9c 	beq	b0fc <__sflush_r+0x6c>
    b288:	e3530016 	cmp	r3, #22
    b28c:	1353001d 	cmpne	r3, #29
    b290:	05876000 	streq	r6, [r7]
    b294:	0affffc5 	beq	b1b0 <__sflush_r+0x120>
    b298:	eaffffe1 	b	b224 <__sflush_r+0x194>
    b29c:	20400001 	.word	0x20400001

0000b2a0 <_fflush_r>:
    b2a0:	e92d4010 	push	{r4, lr}
    b2a4:	e2504000 	subs	r4, r0, #0
    b2a8:	e24dd008 	sub	sp, sp, #8
    b2ac:	0a000002 	beq	b2bc <_fflush_r+0x1c>
    b2b0:	e5943034 	ldr	r3, [r4, #52]	@ 0x34
    b2b4:	e3530000 	cmp	r3, #0
    b2b8:	0a000009 	beq	b2e4 <_fflush_r+0x44>
    b2bc:	e1d100fc 	ldrsh	r0, [r1, #12]
    b2c0:	e3500000 	cmp	r0, #0
    b2c4:	1a000002 	bne	b2d4 <_fflush_r+0x34>
    b2c8:	e28dd008 	add	sp, sp, #8
    b2cc:	e8bd4010 	pop	{r4, lr}
    b2d0:	e12fff1e 	bx	lr
    b2d4:	e1a00004 	mov	r0, r4
    b2d8:	e28dd008 	add	sp, sp, #8
    b2dc:	e8bd4010 	pop	{r4, lr}
    b2e0:	eaffff6a 	b	b090 <__sflush_r>
    b2e4:	e58d1004 	str	r1, [sp, #4]
    b2e8:	eb000c08 	bl	e310 <__sinit>
    b2ec:	e59d1004 	ldr	r1, [sp, #4]
    b2f0:	eafffff1 	b	b2bc <_fflush_r+0x1c>

0000b2f4 <fflush>:
    b2f4:	e92d4070 	push	{r4, r5, r6, lr}
    b2f8:	e2504000 	subs	r4, r0, #0
    b2fc:	0a000013 	beq	b350 <fflush+0x5c>
    b300:	e59f3060 	ldr	r3, [pc, #96]	@ b368 <fflush+0x74>
    b304:	e5935000 	ldr	r5, [r3]
    b308:	e3550000 	cmp	r5, #0
    b30c:	0a000002 	beq	b31c <fflush+0x28>
    b310:	e5953034 	ldr	r3, [r5, #52]	@ 0x34
    b314:	e3530000 	cmp	r3, #0
    b318:	0a000009 	beq	b344 <fflush+0x50>
    b31c:	e1d430fc 	ldrsh	r3, [r4, #12]
    b320:	e3530000 	cmp	r3, #0
    b324:	01a00003 	moveq	r0, r3
    b328:	1a000001 	bne	b334 <fflush+0x40>
    b32c:	e8bd4070 	pop	{r4, r5, r6, lr}
    b330:	e12fff1e 	bx	lr
    b334:	e1a01004 	mov	r1, r4
    b338:	e1a00005 	mov	r0, r5
    b33c:	e8bd4070 	pop	{r4, r5, r6, lr}
    b340:	eaffff52 	b	b090 <__sflush_r>
    b344:	e1a00005 	mov	r0, r5
    b348:	eb000bf0 	bl	e310 <__sinit>
    b34c:	eafffff2 	b	b31c <fflush+0x28>
    b350:	e59f2014 	ldr	r2, [pc, #20]	@ b36c <fflush+0x78>
    b354:	e59f1014 	ldr	r1, [pc, #20]	@ b370 <fflush+0x7c>
    b358:	e59f0014 	ldr	r0, [pc, #20]	@ b374 <fflush+0x80>
    b35c:	eb00106a 	bl	f50c <_fwalk_sglue>
    b360:	e8bd4070 	pop	{r4, r5, r6, lr}
    b364:	e12fff1e 	bx	lr
    b368:	00012970 	.word	0x00012970
    b36c:	00012ea8 	.word	0x00012ea8
    b370:	0000b2a0 	.word	0x0000b2a0
    b374:	00012978 	.word	0x00012978

0000b378 <memmove>:
    b378:	e1500001 	cmp	r0, r1
    b37c:	9a00000a 	bls	b3ac <memmove+0x34>
    b380:	e0813002 	add	r3, r1, r2
    b384:	e1530000 	cmp	r3, r0
    b388:	9a000007 	bls	b3ac <memmove+0x34>
    b38c:	e3520000 	cmp	r2, #0
    b390:	e0802002 	add	r2, r0, r2
    b394:	012fff1e 	bxeq	lr
    b398:	e573c001 	ldrb	ip, [r3, #-1]!
    b39c:	e1510003 	cmp	r1, r3
    b3a0:	e562c001 	strb	ip, [r2, #-1]!
    b3a4:	1afffffb 	bne	b398 <memmove+0x20>
    b3a8:	e12fff1e 	bx	lr
    b3ac:	e352000f 	cmp	r2, #15
    b3b0:	8a00000b 	bhi	b3e4 <memmove+0x6c>
    b3b4:	e3520000 	cmp	r2, #0
    b3b8:	e1a03000 	mov	r3, r0
    b3bc:	e2422001 	sub	r2, r2, #1
    b3c0:	012fff1e 	bxeq	lr
    b3c4:	e2822001 	add	r2, r2, #1
    b3c8:	e2433001 	sub	r3, r3, #1
    b3cc:	e0812002 	add	r2, r1, r2
    b3d0:	e4d1c001 	ldrb	ip, [r1], #1
    b3d4:	e1510002 	cmp	r1, r2
    b3d8:	e5e3c001 	strb	ip, [r3, #1]!
    b3dc:	1afffffb 	bne	b3d0 <memmove+0x58>
    b3e0:	e12fff1e 	bx	lr
    b3e4:	e1803001 	orr	r3, r0, r1
    b3e8:	e3130003 	tst	r3, #3
    b3ec:	11a03000 	movne	r3, r0
    b3f0:	12422001 	subne	r2, r2, #1
    b3f4:	1afffff2 	bne	b3c4 <memmove+0x4c>
    b3f8:	e2423010 	sub	r3, r2, #16
    b3fc:	e92d4070 	push	{r4, r5, r6, lr}
    b400:	e3c3c00f 	bic	ip, r3, #15
    b404:	e281e020 	add	lr, r1, #32
    b408:	e2814010 	add	r4, r1, #16
    b40c:	e2805010 	add	r5, r0, #16
    b410:	e08ee00c 	add	lr, lr, ip
    b414:	e1a03223 	lsr	r3, r3, #4
    b418:	e514c010 	ldr	ip, [r4, #-16]
    b41c:	e505c010 	str	ip, [r5, #-16]
    b420:	e514c00c 	ldr	ip, [r4, #-12]
    b424:	e505c00c 	str	ip, [r5, #-12]
    b428:	e514c008 	ldr	ip, [r4, #-8]
    b42c:	e505c008 	str	ip, [r5, #-8]
    b430:	e2844010 	add	r4, r4, #16
    b434:	e514c014 	ldr	ip, [r4, #-20]	@ 0xffffffec
    b438:	e154000e 	cmp	r4, lr
    b43c:	e505c004 	str	ip, [r5, #-4]
    b440:	e2855010 	add	r5, r5, #16
    b444:	1afffff3 	bne	b418 <memmove+0xa0>
    b448:	e2833001 	add	r3, r3, #1
    b44c:	e312000c 	tst	r2, #12
    b450:	e202c00f 	and	ip, r2, #15
    b454:	e0811203 	add	r1, r1, r3, lsl #4
    b458:	01a0200c 	moveq	r2, ip
    b45c:	e0803203 	add	r3, r0, r3, lsl #4
    b460:	0a00000d 	beq	b49c <memmove+0x124>
    b464:	e1a04001 	mov	r4, r1
    b468:	e24cc004 	sub	ip, ip, #4
    b46c:	e3cc6003 	bic	r6, ip, #3
    b470:	e1a0e12c 	lsr	lr, ip, #2
    b474:	e0836006 	add	r6, r3, r6
    b478:	e243c004 	sub	ip, r3, #4
    b47c:	e4945004 	ldr	r5, [r4], #4
    b480:	e5ac5004 	str	r5, [ip, #4]!
    b484:	e15c0006 	cmp	ip, r6
    b488:	1afffffb 	bne	b47c <memmove+0x104>
    b48c:	e28ec001 	add	ip, lr, #1
    b490:	e2022003 	and	r2, r2, #3
    b494:	e083310c 	add	r3, r3, ip, lsl #2
    b498:	e081110c 	add	r1, r1, ip, lsl #2
    b49c:	e3520000 	cmp	r2, #0
    b4a0:	e2422001 	sub	r2, r2, #1
    b4a4:	12822001 	addne	r2, r2, #1
    b4a8:	12433001 	subne	r3, r3, #1
    b4ac:	10812002 	addne	r2, r1, r2
    b4b0:	0a000003 	beq	b4c4 <memmove+0x14c>
    b4b4:	e4d1c001 	ldrb	ip, [r1], #1
    b4b8:	e1510002 	cmp	r1, r2
    b4bc:	e5e3c001 	strb	ip, [r3, #1]!
    b4c0:	1afffffb 	bne	b4b4 <memmove+0x13c>
    b4c4:	e8bd4070 	pop	{r4, r5, r6, lr}
    b4c8:	e12fff1e 	bx	lr

0000b4cc <_malloc_r>:
    b4cc:	e92d4ff0 	push	{r4, r5, r6, r7, r8, r9, sl, fp, lr}
    b4d0:	e281300b 	add	r3, r1, #11
    b4d4:	e3530016 	cmp	r3, #22
    b4d8:	e1a07000 	mov	r7, r0
    b4dc:	e24dd00c 	sub	sp, sp, #12
    b4e0:	8a00001c 	bhi	b558 <_malloc_r+0x8c>
    b4e4:	e3510010 	cmp	r1, #16
    b4e8:	8a000081 	bhi	b6f4 <_malloc_r+0x228>
    b4ec:	eb000ad3 	bl	e040 <__malloc_lock>
    b4f0:	e3a05010 	mov	r5, #16
    b4f4:	e3a03018 	mov	r3, #24
    b4f8:	e3a00002 	mov	r0, #2
    b4fc:	e59f673c 	ldr	r6, [pc, #1852]	@ bc40 <_malloc_r+0x774>
    b500:	e0863003 	add	r3, r6, r3
    b504:	e5934004 	ldr	r4, [r3, #4]
    b508:	e2432008 	sub	r2, r3, #8
    b50c:	e1540002 	cmp	r4, r2
    b510:	0a00010a 	beq	b940 <_malloc_r+0x474>
    b514:	e5943004 	ldr	r3, [r4, #4]
    b518:	e594200c 	ldr	r2, [r4, #12]
    b51c:	e3c33003 	bic	r3, r3, #3
    b520:	e5941008 	ldr	r1, [r4, #8]
    b524:	e0843003 	add	r3, r4, r3
    b528:	e581200c 	str	r2, [r1, #12]
    b52c:	e5821008 	str	r1, [r2, #8]
    b530:	e5932004 	ldr	r2, [r3, #4]
    b534:	e3822001 	orr	r2, r2, #1
    b538:	e1a00007 	mov	r0, r7
    b53c:	e5832004 	str	r2, [r3, #4]
    b540:	eb000abf 	bl	e044 <__malloc_unlock>
    b544:	e2844008 	add	r4, r4, #8
    b548:	e1a00004 	mov	r0, r4
    b54c:	e28dd00c 	add	sp, sp, #12
    b550:	e8bd4ff0 	pop	{r4, r5, r6, r7, r8, r9, sl, fp, lr}
    b554:	e12fff1e 	bx	lr
    b558:	e3c35007 	bic	r5, r3, #7
    b55c:	e1510005 	cmp	r1, r5
    b560:	93a01000 	movls	r1, #0
    b564:	83a01001 	movhi	r1, #1
    b568:	e1911fa3 	orrs	r1, r1, r3, lsr #31
    b56c:	1a000060 	bne	b6f4 <_malloc_r+0x228>
    b570:	eb000ab2 	bl	e040 <__malloc_lock>
    b574:	e3550f7e 	cmp	r5, #504	@ 0x1f8
    b578:	3a000134 	bcc	ba50 <_malloc_r+0x584>
    b57c:	e1b034a5 	lsrs	r3, r5, #9
    b580:	0a00005f 	beq	b704 <_malloc_r+0x238>
    b584:	e3530004 	cmp	r3, #4
    b588:	8a00010c 	bhi	b9c0 <_malloc_r+0x4f4>
    b58c:	e1a03325 	lsr	r3, r5, #6
    b590:	e2830039 	add	r0, r3, #57	@ 0x39
    b594:	e283c038 	add	ip, r3, #56	@ 0x38
    b598:	e1a01180 	lsl	r1, r0, #3
    b59c:	e59f669c 	ldr	r6, [pc, #1692]	@ bc40 <_malloc_r+0x774>
    b5a0:	e0861001 	add	r1, r6, r1
    b5a4:	e5914004 	ldr	r4, [r1, #4]
    b5a8:	e2411008 	sub	r1, r1, #8
    b5ac:	e1510004 	cmp	r1, r4
    b5b0:	1a000006 	bne	b5d0 <_malloc_r+0x104>
    b5b4:	ea00000b 	b	b5e8 <_malloc_r+0x11c>
    b5b8:	e3520000 	cmp	r2, #0
    b5bc:	e594200c 	ldr	r2, [r4, #12]
    b5c0:	aaffffd6 	bge	b520 <_malloc_r+0x54>
    b5c4:	e1510002 	cmp	r1, r2
    b5c8:	0a000006 	beq	b5e8 <_malloc_r+0x11c>
    b5cc:	e1a04002 	mov	r4, r2
    b5d0:	e5943004 	ldr	r3, [r4, #4]
    b5d4:	e3c33003 	bic	r3, r3, #3
    b5d8:	e0432005 	sub	r2, r3, r5
    b5dc:	e352000f 	cmp	r2, #15
    b5e0:	dafffff4 	ble	b5b8 <_malloc_r+0xec>
    b5e4:	e1a0000c 	mov	r0, ip
    b5e8:	e5964010 	ldr	r4, [r6, #16]
    b5ec:	e59f8650 	ldr	r8, [pc, #1616]	@ bc44 <_malloc_r+0x778>
    b5f0:	e1540008 	cmp	r4, r8
    b5f4:	0596e004 	ldreq	lr, [r6, #4]
    b5f8:	0a000018 	beq	b660 <_malloc_r+0x194>
    b5fc:	e5941004 	ldr	r1, [r4, #4]
    b600:	e3c11003 	bic	r1, r1, #3
    b604:	e0413005 	sub	r3, r1, r5
    b608:	e353000f 	cmp	r3, #15
    b60c:	ca00011a 	bgt	ba7c <_malloc_r+0x5b0>
    b610:	e3530000 	cmp	r3, #0
    b614:	e5868010 	str	r8, [r6, #16]
    b618:	e5868014 	str	r8, [r6, #20]
    b61c:	aa00010e 	bge	ba5c <_malloc_r+0x590>
    b620:	e3510c02 	cmp	r1, #512	@ 0x200
    b624:	e596e004 	ldr	lr, [r6, #4]
    b628:	2a0000c9 	bcs	b954 <_malloc_r+0x488>
    b62c:	e3a02001 	mov	r2, #1
    b630:	e1a031a1 	lsr	r3, r1, #3
    b634:	e0833002 	add	r3, r3, r2
    b638:	e1a012a1 	lsr	r1, r1, #5
    b63c:	e18ee112 	orr	lr, lr, r2, lsl r1
    b640:	e7961183 	ldr	r1, [r6, r3, lsl #3]
    b644:	e0862183 	add	r2, r6, r3, lsl #3
    b648:	e2422008 	sub	r2, r2, #8
    b64c:	e5841008 	str	r1, [r4, #8]
    b650:	e584200c 	str	r2, [r4, #12]
    b654:	e586e004 	str	lr, [r6, #4]
    b658:	e7864183 	str	r4, [r6, r3, lsl #3]
    b65c:	e581400c 	str	r4, [r1, #12]
    b660:	e3a0c001 	mov	ip, #1
    b664:	e1a03140 	asr	r3, r0, #2
    b668:	e1a0c31c 	lsl	ip, ip, r3
    b66c:	e15c000e 	cmp	ip, lr
    b670:	8a000027 	bhi	b714 <_malloc_r+0x248>
    b674:	e11c000e 	tst	ip, lr
    b678:	1a000008 	bne	b6a0 <_malloc_r+0x1d4>
    b67c:	e1a0c08c 	lsl	ip, ip, #1
    b680:	e3c00003 	bic	r0, r0, #3
    b684:	e11c000e 	tst	ip, lr
    b688:	e2800004 	add	r0, r0, #4
    b68c:	1a000003 	bne	b6a0 <_malloc_r+0x1d4>
    b690:	e1a0c08c 	lsl	ip, ip, #1
    b694:	e11c000e 	tst	ip, lr
    b698:	e2800004 	add	r0, r0, #4
    b69c:	0afffffb 	beq	b690 <_malloc_r+0x1c4>
    b6a0:	e086a180 	add	sl, r6, r0, lsl #3
    b6a4:	e1a0e00a 	mov	lr, sl
    b6a8:	e1a09000 	mov	r9, r0
    b6ac:	e59e300c 	ldr	r3, [lr, #12]
    b6b0:	ea000008 	b	b6d8 <_malloc_r+0x20c>
    b6b4:	e5932004 	ldr	r2, [r3, #4]
    b6b8:	e3c22003 	bic	r2, r2, #3
    b6bc:	e0421005 	sub	r1, r2, r5
    b6c0:	e351000f 	cmp	r1, #15
    b6c4:	e1a04003 	mov	r4, r3
    b6c8:	e593300c 	ldr	r3, [r3, #12]
    b6cc:	ca0000c4 	bgt	b9e4 <_malloc_r+0x518>
    b6d0:	e3510000 	cmp	r1, #0
    b6d4:	aa0000d3 	bge	ba28 <_malloc_r+0x55c>
    b6d8:	e15e0003 	cmp	lr, r3
    b6dc:	1afffff4 	bne	b6b4 <_malloc_r+0x1e8>
    b6e0:	e2899001 	add	r9, r9, #1
    b6e4:	e3190003 	tst	r9, #3
    b6e8:	e28ee008 	add	lr, lr, #8
    b6ec:	1affffee 	bne	b6ac <_malloc_r+0x1e0>
    b6f0:	ea0000fc 	b	bae8 <_malloc_r+0x61c>
    b6f4:	e3a0300c 	mov	r3, #12
    b6f8:	e5873000 	str	r3, [r7]
    b6fc:	e3a04000 	mov	r4, #0
    b700:	eaffff90 	b	b548 <_malloc_r+0x7c>
    b704:	e3a01c02 	mov	r1, #512	@ 0x200
    b708:	e3a00040 	mov	r0, #64	@ 0x40
    b70c:	e3a0c03f 	mov	ip, #63	@ 0x3f
    b710:	eaffffa1 	b	b59c <_malloc_r+0xd0>
    b714:	e5964008 	ldr	r4, [r6, #8]
    b718:	e5949004 	ldr	r9, [r4, #4]
    b71c:	e3c99003 	bic	r9, r9, #3
    b720:	e1590005 	cmp	r9, r5
    b724:	23a02000 	movcs	r2, #0
    b728:	33a02001 	movcc	r2, #1
    b72c:	e0493005 	sub	r3, r9, r5
    b730:	e353000f 	cmp	r3, #15
    b734:	d3822001 	orrle	r2, r2, #1
    b738:	e3520000 	cmp	r2, #0
    b73c:	0a000072 	beq	b90c <_malloc_r+0x440>
    b740:	e59fb500 	ldr	fp, [pc, #1280]	@ bc48 <_malloc_r+0x77c>
    b744:	e0843009 	add	r3, r4, r9
    b748:	e3a00008 	mov	r0, #8
    b74c:	e59b8000 	ldr	r8, [fp]
    b750:	e58d3000 	str	r3, [sp]
    b754:	eb0008ff 	bl	db58 <sysconf>
    b758:	e5961408 	ldr	r1, [r6, #1032]	@ 0x408
    b75c:	e2888010 	add	r8, r8, #16
    b760:	e3710001 	cmn	r1, #1
    b764:	e0888005 	add	r8, r8, r5
    b768:	12488001 	subne	r8, r8, #1
    b76c:	10888000 	addne	r8, r8, r0
    b770:	12601000 	rsbne	r1, r0, #0
    b774:	10088001 	andne	r8, r8, r1
    b778:	e58d0000 	str	r0, [sp]
    b77c:	e1a01008 	mov	r1, r8
    b780:	e1a00007 	mov	r0, r7
    b784:	eb000b01 	bl	e390 <_sbrk_r>
    b788:	e3700001 	cmn	r0, #1
    b78c:	e1a0a000 	mov	sl, r0
    b790:	e59d2000 	ldr	r2, [sp]
    b794:	0a000051 	beq	b8e0 <_malloc_r+0x414>
    b798:	e0843009 	add	r3, r4, r9
    b79c:	e1530000 	cmp	r3, r0
    b7a0:	9a00003b 	bls	b894 <_malloc_r+0x3c8>
    b7a4:	e1540006 	cmp	r4, r6
    b7a8:	1a00004c 	bne	b8e0 <_malloc_r+0x414>
    b7ac:	e59be004 	ldr	lr, [fp, #4]
    b7b0:	e088e00e 	add	lr, r8, lr
    b7b4:	e58be004 	str	lr, [fp, #4]
    b7b8:	e242c001 	sub	ip, r2, #1
    b7bc:	e5961408 	ldr	r1, [r6, #1032]	@ 0x408
    b7c0:	e3710001 	cmn	r1, #1
    b7c4:	10843009 	addne	r3, r4, r9
    b7c8:	104a0003 	subne	r0, sl, r3
    b7cc:	1080000e 	addne	r0, r0, lr
    b7d0:	0586a408 	streq	sl, [r6, #1032]	@ 0x408
    b7d4:	158b0004 	strne	r0, [fp, #4]
    b7d8:	e21a3007 	ands	r3, sl, #7
    b7dc:	e58d3000 	str	r3, [sp]
    b7e0:	0a0000d9 	beq	bb4c <_malloc_r+0x680>
    b7e4:	e2631008 	rsb	r1, r3, #8
    b7e8:	e08aa001 	add	sl, sl, r1
    b7ec:	e08a8008 	add	r8, sl, r8
    b7f0:	e0822001 	add	r2, r2, r1
    b7f4:	e008100c 	and	r1, r8, ip
    b7f8:	e0422001 	sub	r2, r2, r1
    b7fc:	e002100c 	and	r1, r2, ip
    b800:	e1a00007 	mov	r0, r7
    b804:	e58d1004 	str	r1, [sp, #4]
    b808:	eb000ae0 	bl	e390 <_sbrk_r>
    b80c:	e3700001 	cmn	r0, #1
    b810:	0a0000f5 	beq	bbec <_malloc_r+0x720>
    b814:	e59d1004 	ldr	r1, [sp, #4]
    b818:	e040000a 	sub	r0, r0, sl
    b81c:	e0808001 	add	r8, r0, r1
    b820:	e59b2004 	ldr	r2, [fp, #4]
    b824:	e3888001 	orr	r8, r8, #1
    b828:	e0811002 	add	r1, r1, r2
    b82c:	e1540006 	cmp	r4, r6
    b830:	e586a008 	str	sl, [r6, #8]
    b834:	e58b1004 	str	r1, [fp, #4]
    b838:	e58a8004 	str	r8, [sl, #4]
    b83c:	0a000021 	beq	b8c8 <_malloc_r+0x3fc>
    b840:	e359000f 	cmp	r9, #15
    b844:	93a03001 	movls	r3, #1
    b848:	958a3004 	strls	r3, [sl, #4]
    b84c:	9a0000b6 	bls	bb2c <_malloc_r+0x660>
    b850:	e3a0c005 	mov	ip, #5
    b854:	e5940004 	ldr	r0, [r4, #4]
    b858:	e249200c 	sub	r2, r9, #12
    b85c:	e3c22007 	bic	r2, r2, #7
    b860:	e2000001 	and	r0, r0, #1
    b864:	e1800002 	orr	r0, r0, r2
    b868:	e352000f 	cmp	r2, #15
    b86c:	e0842002 	add	r2, r4, r2
    b870:	e5840004 	str	r0, [r4, #4]
    b874:	e582c004 	str	ip, [r2, #4]
    b878:	e582c008 	str	ip, [r2, #8]
    b87c:	9a000011 	bls	b8c8 <_malloc_r+0x3fc>
    b880:	e2841008 	add	r1, r4, #8
    b884:	e1a00007 	mov	r0, r7
    b888:	eb0007f8 	bl	d870 <_free_r>
    b88c:	e59b1004 	ldr	r1, [fp, #4]
    b890:	ea00000c 	b	b8c8 <_malloc_r+0x3fc>
    b894:	e59b1004 	ldr	r1, [fp, #4]
    b898:	e0881001 	add	r1, r8, r1
    b89c:	e1a0e001 	mov	lr, r1
    b8a0:	e58b1004 	str	r1, [fp, #4]
    b8a4:	e242c001 	sub	ip, r2, #1
    b8a8:	1affffc3 	bne	b7bc <_malloc_r+0x2f0>
    b8ac:	e0843009 	add	r3, r4, r9
    b8b0:	e113000c 	tst	r3, ip
    b8b4:	1affffc0 	bne	b7bc <_malloc_r+0x2f0>
    b8b8:	e5960008 	ldr	r0, [r6, #8]
    b8bc:	e0892008 	add	r2, r9, r8
    b8c0:	e3822001 	orr	r2, r2, #1
    b8c4:	e5802004 	str	r2, [r0, #4]
    b8c8:	e59b202c 	ldr	r2, [fp, #44]	@ 0x2c
    b8cc:	e1520001 	cmp	r2, r1
    b8d0:	e59b2030 	ldr	r2, [fp, #48]	@ 0x30
    b8d4:	358b102c 	strcc	r1, [fp, #44]	@ 0x2c
    b8d8:	e1520001 	cmp	r2, r1
    b8dc:	358b1030 	strcc	r1, [fp, #48]	@ 0x30
    b8e0:	e5964008 	ldr	r4, [r6, #8]
    b8e4:	e5943004 	ldr	r3, [r4, #4]
    b8e8:	e3c33003 	bic	r3, r3, #3
    b8ec:	e1550003 	cmp	r5, r3
    b8f0:	93a02000 	movls	r2, #0
    b8f4:	83a02001 	movhi	r2, #1
    b8f8:	e0433005 	sub	r3, r3, r5
    b8fc:	e353000f 	cmp	r3, #15
    b900:	d3822001 	orrle	r2, r2, #1
    b904:	e3520000 	cmp	r2, #0
    b908:	1a000087 	bne	bb2c <_malloc_r+0x660>
    b90c:	e0842005 	add	r2, r4, r5
    b910:	e3833001 	orr	r3, r3, #1
    b914:	e3855001 	orr	r5, r5, #1
    b918:	e5845004 	str	r5, [r4, #4]
    b91c:	e1a00007 	mov	r0, r7
    b920:	e5862008 	str	r2, [r6, #8]
    b924:	e2844008 	add	r4, r4, #8
    b928:	e5823004 	str	r3, [r2, #4]
    b92c:	eb0009c4 	bl	e044 <__malloc_unlock>
    b930:	e1a00004 	mov	r0, r4
    b934:	e28dd00c 	add	sp, sp, #12
    b938:	e8bd4ff0 	pop	{r4, r5, r6, r7, r8, r9, sl, fp, lr}
    b93c:	e12fff1e 	bx	lr
    b940:	e593400c 	ldr	r4, [r3, #12]
    b944:	e1530004 	cmp	r3, r4
    b948:	02800002 	addeq	r0, r0, #2
    b94c:	0affff25 	beq	b5e8 <_malloc_r+0x11c>
    b950:	eafffeef 	b	b514 <_malloc_r+0x48>
    b954:	e3510c0a 	cmp	r1, #2560	@ 0xa00
    b958:	e1a034a1 	lsr	r3, r1, #9
    b95c:	3a000054 	bcc	bab4 <_malloc_r+0x5e8>
    b960:	e3530014 	cmp	r3, #20
    b964:	8a000083 	bhi	bb78 <_malloc_r+0x6ac>
    b968:	e283205c 	add	r2, r3, #92	@ 0x5c
    b96c:	e1a02182 	lsl	r2, r2, #3
    b970:	e283305b 	add	r3, r3, #91	@ 0x5b
    b974:	e796c002 	ldr	ip, [r6, r2]
    b978:	e0862002 	add	r2, r6, r2
    b97c:	e2422008 	sub	r2, r2, #8
    b980:	e152000c 	cmp	r2, ip
    b984:	1a000003 	bne	b998 <_malloc_r+0x4cc>
    b988:	ea00006a 	b	bb38 <_malloc_r+0x66c>
    b98c:	e59cc008 	ldr	ip, [ip, #8]
    b990:	e152000c 	cmp	r2, ip
    b994:	0a000003 	beq	b9a8 <_malloc_r+0x4dc>
    b998:	e59c3004 	ldr	r3, [ip, #4]
    b99c:	e3c33003 	bic	r3, r3, #3
    b9a0:	e1530001 	cmp	r3, r1
    b9a4:	8afffff8 	bhi	b98c <_malloc_r+0x4c0>
    b9a8:	e59c200c 	ldr	r2, [ip, #12]
    b9ac:	e584200c 	str	r2, [r4, #12]
    b9b0:	e584c008 	str	ip, [r4, #8]
    b9b4:	e5824008 	str	r4, [r2, #8]
    b9b8:	e58c400c 	str	r4, [ip, #12]
    b9bc:	eaffff27 	b	b660 <_malloc_r+0x194>
    b9c0:	e3530014 	cmp	r3, #20
    b9c4:	9a00003f 	bls	bac8 <_malloc_r+0x5fc>
    b9c8:	e3530054 	cmp	r3, #84	@ 0x54
    b9cc:	8a000070 	bhi	bb94 <_malloc_r+0x6c8>
    b9d0:	e1a03625 	lsr	r3, r5, #12
    b9d4:	e283006f 	add	r0, r3, #111	@ 0x6f
    b9d8:	e283c06e 	add	ip, r3, #110	@ 0x6e
    b9dc:	e1a01180 	lsl	r1, r0, #3
    b9e0:	eafffeed 	b	b59c <_malloc_r+0xd0>
    b9e4:	e594e008 	ldr	lr, [r4, #8]
    b9e8:	e084c005 	add	ip, r4, r5
    b9ec:	e3855001 	orr	r5, r5, #1
    b9f0:	e5845004 	str	r5, [r4, #4]
    b9f4:	e58e300c 	str	r3, [lr, #12]
    b9f8:	e583e008 	str	lr, [r3, #8]
    b9fc:	e3813001 	orr	r3, r1, #1
    ba00:	e586c010 	str	ip, [r6, #16]
    ba04:	e586c014 	str	ip, [r6, #20]
    ba08:	e1a00007 	mov	r0, r7
    ba0c:	e58c800c 	str	r8, [ip, #12]
    ba10:	e58c8008 	str	r8, [ip, #8]
    ba14:	e58c3004 	str	r3, [ip, #4]
    ba18:	e7841002 	str	r1, [r4, r2]
    ba1c:	eb000988 	bl	e044 <__malloc_unlock>
    ba20:	e2844008 	add	r4, r4, #8
    ba24:	eafffec7 	b	b548 <_malloc_r+0x7c>
    ba28:	e0842002 	add	r2, r4, r2
    ba2c:	e5921004 	ldr	r1, [r2, #4]
    ba30:	e3811001 	orr	r1, r1, #1
    ba34:	e5821004 	str	r1, [r2, #4]
    ba38:	e5b42008 	ldr	r2, [r4, #8]!
    ba3c:	e1a00007 	mov	r0, r7
    ba40:	e582300c 	str	r3, [r2, #12]
    ba44:	e5832008 	str	r2, [r3, #8]
    ba48:	eb00097d 	bl	e044 <__malloc_unlock>
    ba4c:	eafffebd 	b	b548 <_malloc_r+0x7c>
    ba50:	e1a001a5 	lsr	r0, r5, #3
    ba54:	e2853008 	add	r3, r5, #8
    ba58:	eafffea7 	b	b4fc <_malloc_r+0x30>
    ba5c:	e0841001 	add	r1, r4, r1
    ba60:	e5913004 	ldr	r3, [r1, #4]
    ba64:	e3833001 	orr	r3, r3, #1
    ba68:	e1a00007 	mov	r0, r7
    ba6c:	e5813004 	str	r3, [r1, #4]
    ba70:	eb000973 	bl	e044 <__malloc_unlock>
    ba74:	e2844008 	add	r4, r4, #8
    ba78:	eafffeb2 	b	b548 <_malloc_r+0x7c>
    ba7c:	e0842005 	add	r2, r4, r5
    ba80:	e383c001 	orr	ip, r3, #1
    ba84:	e3855001 	orr	r5, r5, #1
    ba88:	e5845004 	str	r5, [r4, #4]
    ba8c:	e1a00007 	mov	r0, r7
    ba90:	e5862010 	str	r2, [r6, #16]
    ba94:	e5862014 	str	r2, [r6, #20]
    ba98:	e582800c 	str	r8, [r2, #12]
    ba9c:	e5828008 	str	r8, [r2, #8]
    baa0:	e582c004 	str	ip, [r2, #4]
    baa4:	e7843001 	str	r3, [r4, r1]
    baa8:	eb000965 	bl	e044 <__malloc_unlock>
    baac:	e2844008 	add	r4, r4, #8
    bab0:	eafffea4 	b	b548 <_malloc_r+0x7c>
    bab4:	e1a03321 	lsr	r3, r1, #6
    bab8:	e2832039 	add	r2, r3, #57	@ 0x39
    babc:	e1a02182 	lsl	r2, r2, #3
    bac0:	e2833038 	add	r3, r3, #56	@ 0x38
    bac4:	eaffffaa 	b	b974 <_malloc_r+0x4a8>
    bac8:	e283005c 	add	r0, r3, #92	@ 0x5c
    bacc:	e283c05b 	add	ip, r3, #91	@ 0x5b
    bad0:	e1a01180 	lsl	r1, r0, #3
    bad4:	eafffeb0 	b	b59c <_malloc_r+0xd0>
    bad8:	e41a3008 	ldr	r3, [sl], #-8
    badc:	e153000a 	cmp	r3, sl
    bae0:	e2400001 	sub	r0, r0, #1
    bae4:	1a000053 	bne	bc38 <_malloc_r+0x76c>
    bae8:	e3100003 	tst	r0, #3
    baec:	1afffff9 	bne	bad8 <_malloc_r+0x60c>
    baf0:	e5963004 	ldr	r3, [r6, #4]
    baf4:	e1c3300c 	bic	r3, r3, ip
    baf8:	e5863004 	str	r3, [r6, #4]
    bafc:	e1a0c08c 	lsl	ip, ip, #1
    bb00:	e24c2001 	sub	r2, ip, #1
    bb04:	e1520003 	cmp	r2, r3
    bb08:	2affff01 	bcs	b714 <_malloc_r+0x248>
    bb0c:	e11c0003 	tst	ip, r3
    bb10:	1a000003 	bne	bb24 <_malloc_r+0x658>
    bb14:	e1a0c08c 	lsl	ip, ip, #1
    bb18:	e11c0003 	tst	ip, r3
    bb1c:	e2899004 	add	r9, r9, #4
    bb20:	0afffffb 	beq	bb14 <_malloc_r+0x648>
    bb24:	e1a00009 	mov	r0, r9
    bb28:	eafffedc 	b	b6a0 <_malloc_r+0x1d4>
    bb2c:	e1a00007 	mov	r0, r7
    bb30:	eb000943 	bl	e044 <__malloc_unlock>
    bb34:	eafffef0 	b	b6fc <_malloc_r+0x230>
    bb38:	e3a01001 	mov	r1, #1
    bb3c:	e1a03143 	asr	r3, r3, #2
    bb40:	e18ee311 	orr	lr, lr, r1, lsl r3
    bb44:	e586e004 	str	lr, [r6, #4]
    bb48:	eaffff97 	b	b9ac <_malloc_r+0x4e0>
    bb4c:	e08a1008 	add	r1, sl, r8
    bb50:	e001100c 	and	r1, r1, ip
    bb54:	e0422001 	sub	r2, r2, r1
    bb58:	e002100c 	and	r1, r2, ip
    bb5c:	e1a00007 	mov	r0, r7
    bb60:	e58d1004 	str	r1, [sp, #4]
    bb64:	eb000a09 	bl	e390 <_sbrk_r>
    bb68:	e3700001 	cmn	r0, #1
    bb6c:	1affff28 	bne	b814 <_malloc_r+0x348>
    bb70:	e59d1000 	ldr	r1, [sp]
    bb74:	eaffff29 	b	b820 <_malloc_r+0x354>
    bb78:	e3530054 	cmp	r3, #84	@ 0x54
    bb7c:	8a00000b 	bhi	bbb0 <_malloc_r+0x6e4>
    bb80:	e1a03621 	lsr	r3, r1, #12
    bb84:	e283206f 	add	r2, r3, #111	@ 0x6f
    bb88:	e1a02182 	lsl	r2, r2, #3
    bb8c:	e283306e 	add	r3, r3, #110	@ 0x6e
    bb90:	eaffff77 	b	b974 <_malloc_r+0x4a8>
    bb94:	e3530f55 	cmp	r3, #340	@ 0x154
    bb98:	8a00000b 	bhi	bbcc <_malloc_r+0x700>
    bb9c:	e1a037a5 	lsr	r3, r5, #15
    bba0:	e2830078 	add	r0, r3, #120	@ 0x78
    bba4:	e283c077 	add	ip, r3, #119	@ 0x77
    bba8:	e1a01180 	lsl	r1, r0, #3
    bbac:	eafffe7a 	b	b59c <_malloc_r+0xd0>
    bbb0:	e3530f55 	cmp	r3, #340	@ 0x154
    bbb4:	8a000012 	bhi	bc04 <_malloc_r+0x738>
    bbb8:	e1a037a1 	lsr	r3, r1, #15
    bbbc:	e2832078 	add	r2, r3, #120	@ 0x78
    bbc0:	e1a02182 	lsl	r2, r2, #3
    bbc4:	e2833077 	add	r3, r3, #119	@ 0x77
    bbc8:	eaffff69 	b	b974 <_malloc_r+0x4a8>
    bbcc:	e59f2078 	ldr	r2, [pc, #120]	@ bc4c <_malloc_r+0x780>
    bbd0:	e1530002 	cmp	r3, r2
    bbd4:	8a000013 	bhi	bc28 <_malloc_r+0x75c>
    bbd8:	e1a03925 	lsr	r3, r5, #18
    bbdc:	e283007d 	add	r0, r3, #125	@ 0x7d
    bbe0:	e283c07c 	add	ip, r3, #124	@ 0x7c
    bbe4:	e1a01180 	lsl	r1, r0, #3
    bbe8:	eafffe6b 	b	b59c <_malloc_r+0xd0>
    bbec:	e59d3000 	ldr	r3, [sp]
    bbf0:	e2432008 	sub	r2, r3, #8
    bbf4:	e0888002 	add	r8, r8, r2
    bbf8:	e3a01000 	mov	r1, #0
    bbfc:	e048800a 	sub	r8, r8, sl
    bc00:	eaffff06 	b	b820 <_malloc_r+0x354>
    bc04:	e59f2040 	ldr	r2, [pc, #64]	@ bc4c <_malloc_r+0x780>
    bc08:	e1530002 	cmp	r3, r2
    bc0c:	91a03921 	lsrls	r3, r1, #18
    bc10:	9283207d 	addls	r2, r3, #125	@ 0x7d
    bc14:	83a02ffe 	movhi	r2, #1016	@ 0x3f8
    bc18:	83a0307e 	movhi	r3, #126	@ 0x7e
    bc1c:	9283307c 	addls	r3, r3, #124	@ 0x7c
    bc20:	91a02182 	lslls	r2, r2, #3
    bc24:	eaffff52 	b	b974 <_malloc_r+0x4a8>
    bc28:	e3a01ffe 	mov	r1, #1016	@ 0x3f8
    bc2c:	e3a0007f 	mov	r0, #127	@ 0x7f
    bc30:	e3a0c07e 	mov	ip, #126	@ 0x7e
    bc34:	eafffe58 	b	b59c <_malloc_r+0xd0>
    bc38:	e5963004 	ldr	r3, [r6, #4]
    bc3c:	eaffffae 	b	bafc <_malloc_r+0x630>
    bc40:	00012a98 	.word	0x00012a98
    bc44:	00012aa0 	.word	0x00012aa0
    bc48:	00013020 	.word	0x00013020
    bc4c:	00000554 	.word	0x00000554

0000bc50 <memcpy>:
    bc50:	e352000f 	cmp	r2, #15
    bc54:	9a00000c 	bls	bc8c <memcpy+0x3c>
    bc58:	e1803001 	orr	r3, r0, r1
    bc5c:	e3130003 	tst	r3, #3
    bc60:	11a03000 	movne	r3, r0
    bc64:	12422001 	subne	r2, r2, #1
    bc68:	0a00000c 	beq	bca0 <memcpy+0x50>
    bc6c:	e2822001 	add	r2, r2, #1
    bc70:	e2433001 	sub	r3, r3, #1
    bc74:	e0812002 	add	r2, r1, r2
    bc78:	e4d1c001 	ldrb	ip, [r1], #1
    bc7c:	e1510002 	cmp	r1, r2
    bc80:	e5e3c001 	strb	ip, [r3, #1]!
    bc84:	1afffffb 	bne	bc78 <memcpy+0x28>
    bc88:	e12fff1e 	bx	lr
    bc8c:	e3520000 	cmp	r2, #0
    bc90:	e1a03000 	mov	r3, r0
    bc94:	e2422001 	sub	r2, r2, #1
    bc98:	1afffff3 	bne	bc6c <memcpy+0x1c>
    bc9c:	e12fff1e 	bx	lr
    bca0:	e1a0c000 	mov	ip, r0
    bca4:	e92d41f0 	push	{r4, r5, r6, r7, r8, lr}
    bca8:	e2427010 	sub	r7, r2, #16
    bcac:	e3c7700f 	bic	r7, r7, #15
    bcb0:	e2877010 	add	r7, r7, #16
    bcb4:	e281e010 	add	lr, r1, #16
    bcb8:	e0803007 	add	r3, r0, r7
    bcbc:	e51e8010 	ldr	r8, [lr, #-16]
    bcc0:	e48c8010 	str	r8, [ip], #16
    bcc4:	e51e600c 	ldr	r6, [lr, #-12]
    bcc8:	e51e5008 	ldr	r5, [lr, #-8]
    bccc:	e51e4004 	ldr	r4, [lr, #-4]
    bcd0:	e15c0003 	cmp	ip, r3
    bcd4:	e50c600c 	str	r6, [ip, #-12]
    bcd8:	e50c5008 	str	r5, [ip, #-8]
    bcdc:	e50c4004 	str	r4, [ip, #-4]
    bce0:	e28ee010 	add	lr, lr, #16
    bce4:	1afffff4 	bne	bcbc <memcpy+0x6c>
    bce8:	e312000c 	tst	r2, #12
    bcec:	e202c00f 	and	ip, r2, #15
    bcf0:	01a0200c 	moveq	r2, ip
    bcf4:	e0811007 	add	r1, r1, r7
    bcf8:	0a00000d 	beq	bd34 <memcpy+0xe4>
    bcfc:	e1a04001 	mov	r4, r1
    bd00:	e24cc004 	sub	ip, ip, #4
    bd04:	e3cc6003 	bic	r6, ip, #3
    bd08:	e1a0e12c 	lsr	lr, ip, #2
    bd0c:	e0836006 	add	r6, r3, r6
    bd10:	e243c004 	sub	ip, r3, #4
    bd14:	e4945004 	ldr	r5, [r4], #4
    bd18:	e5ac5004 	str	r5, [ip, #4]!
    bd1c:	e15c0006 	cmp	ip, r6
    bd20:	1afffffb 	bne	bd14 <memcpy+0xc4>
    bd24:	e28ec001 	add	ip, lr, #1
    bd28:	e2022003 	and	r2, r2, #3
    bd2c:	e083310c 	add	r3, r3, ip, lsl #2
    bd30:	e081110c 	add	r1, r1, ip, lsl #2
    bd34:	e3520000 	cmp	r2, #0
    bd38:	e2422001 	sub	r2, r2, #1
    bd3c:	12822001 	addne	r2, r2, #1
    bd40:	12433001 	subne	r3, r3, #1
    bd44:	10812002 	addne	r2, r1, r2
    bd48:	0a000003 	beq	bd5c <memcpy+0x10c>
    bd4c:	e4d1c001 	ldrb	ip, [r1], #1
    bd50:	e1510002 	cmp	r1, r2
    bd54:	e5e3c001 	strb	ip, [r3, #1]!
    bd58:	1afffffb 	bne	bd4c <memcpy+0xfc>
    bd5c:	e8bd41f0 	pop	{r4, r5, r6, r7, r8, lr}
    bd60:	e12fff1e 	bx	lr
    bd64:	00000000 	andeq	r0, r0, r0

0000bd68 <quorem>:
    bd68:	e92d4ff0 	push	{r4, r5, r6, r7, r8, r9, sl, fp, lr}
    bd6c:	e5903010 	ldr	r3, [r0, #16]
    bd70:	e5914010 	ldr	r4, [r1, #16]
    bd74:	e1530004 	cmp	r3, r4
    bd78:	b3a00000 	movlt	r0, #0
    bd7c:	e24dd014 	sub	sp, sp, #20
    bd80:	ba00006a 	blt	bf30 <quorem+0x1c8>
    bd84:	e2444001 	sub	r4, r4, #1
    bd88:	e2815014 	add	r5, r1, #20
    bd8c:	e2808014 	add	r8, r0, #20
    bd90:	e7959104 	ldr	r9, [r5, r4, lsl #2]
    bd94:	e798a104 	ldr	sl, [r8, r4, lsl #2]
    bd98:	e1a03104 	lsl	r3, r4, #2
    bd9c:	e2899001 	add	r9, r9, #1
    bda0:	e58d1000 	str	r1, [sp]
    bda4:	e58d3004 	str	r3, [sp, #4]
    bda8:	e1a0b000 	mov	fp, r0
    bdac:	e0883104 	add	r3, r8, r4, lsl #2
    bdb0:	e1a01009 	mov	r1, r9
    bdb4:	e1a0000a 	mov	r0, sl
    bdb8:	e58d3008 	str	r3, [sp, #8]
    bdbc:	eb0016ba 	bl	118ac <__udivsi3>
    bdc0:	e15a0009 	cmp	sl, r9
    bdc4:	e1a06000 	mov	r6, r0
    bdc8:	e59d2000 	ldr	r2, [sp]
    bdcc:	e0857104 	add	r7, r5, r4, lsl #2
    bdd0:	3a00002e 	bcc	be90 <quorem+0x128>
    bdd4:	e3a01000 	mov	r1, #0
    bdd8:	e1a0a005 	mov	sl, r5
    bddc:	e1a09008 	mov	r9, r8
    bde0:	e1a03001 	mov	r3, r1
    bde4:	e1a00001 	mov	r0, r1
    bde8:	e59fe14c 	ldr	lr, [pc, #332]	@ bf3c <quorem+0x1d4>
    bdec:	e58d5000 	str	r5, [sp]
    bdf0:	e58d800c 	str	r8, [sp, #12]
    bdf4:	e49a5004 	ldr	r5, [sl], #4
    bdf8:	e005100e 	and	r1, r5, lr
    bdfc:	e0210196 	mla	r1, r6, r1, r0
    be00:	e1a05825 	lsr	r5, r5, #16
    be04:	e1a00821 	lsr	r0, r1, #16
    be08:	e0200596 	mla	r0, r6, r5, r0
    be0c:	e5998000 	ldr	r8, [r9]
    be10:	e001100e 	and	r1, r1, lr
    be14:	e008c00e 	and	ip, r8, lr
    be18:	e04cc001 	sub	ip, ip, r1
    be1c:	e08cc003 	add	ip, ip, r3
    be20:	e000300e 	and	r3, r0, lr
    be24:	e063384c 	rsb	r3, r3, ip, asr #16
    be28:	e0833828 	add	r3, r3, r8, lsr #16
    be2c:	e00c100e 	and	r1, ip, lr
    be30:	e1811803 	orr	r1, r1, r3, lsl #16
    be34:	e157000a 	cmp	r7, sl
    be38:	e4891004 	str	r1, [r9], #4
    be3c:	e1a00820 	lsr	r0, r0, #16
    be40:	e1a03843 	asr	r3, r3, #16
    be44:	2affffea 	bcs	bdf4 <quorem+0x8c>
    be48:	e59d800c 	ldr	r8, [sp, #12]
    be4c:	e59d3004 	ldr	r3, [sp, #4]
    be50:	e7983003 	ldr	r3, [r8, r3]
    be54:	e3530000 	cmp	r3, #0
    be58:	e59d5000 	ldr	r5, [sp]
    be5c:	1a00000b 	bne	be90 <quorem+0x128>
    be60:	e59d3008 	ldr	r3, [sp, #8]
    be64:	e2433004 	sub	r3, r3, #4
    be68:	e1580003 	cmp	r8, r3
    be6c:	3a000003 	bcc	be80 <quorem+0x118>
    be70:	ea000005 	b	be8c <quorem+0x124>
    be74:	e1580003 	cmp	r8, r3
    be78:	e2444001 	sub	r4, r4, #1
    be7c:	2a000002 	bcs	be8c <quorem+0x124>
    be80:	e4131004 	ldr	r1, [r3], #-4
    be84:	e3510000 	cmp	r1, #0
    be88:	0afffff9 	beq	be74 <quorem+0x10c>
    be8c:	e58b4010 	str	r4, [fp, #16]
    be90:	e1a01002 	mov	r1, r2
    be94:	e1a0000b 	mov	r0, fp
    be98:	eb000bef 	bl	ee5c <__mcmp>
    be9c:	e3500000 	cmp	r0, #0
    bea0:	ba000021 	blt	bf2c <quorem+0x1c4>
    bea4:	e1a00008 	mov	r0, r8
    bea8:	e3a02000 	mov	r2, #0
    beac:	e59f1088 	ldr	r1, [pc, #136]	@ bf3c <quorem+0x1d4>
    beb0:	e495c004 	ldr	ip, [r5], #4
    beb4:	e590e000 	ldr	lr, [r0]
    beb8:	e00c9001 	and	r9, ip, r1
    bebc:	e00e3001 	and	r3, lr, r1
    bec0:	e0433009 	sub	r3, r3, r9
    bec4:	e0833002 	add	r3, r3, r2
    bec8:	e1a0282c 	lsr	r2, ip, #16
    becc:	e0622843 	rsb	r2, r2, r3, asr #16
    bed0:	e082282e 	add	r2, r2, lr, lsr #16
    bed4:	e0033001 	and	r3, r3, r1
    bed8:	e1833802 	orr	r3, r3, r2, lsl #16
    bedc:	e1570005 	cmp	r7, r5
    bee0:	e4803004 	str	r3, [r0], #4
    bee4:	e1a02842 	asr	r2, r2, #16
    bee8:	2afffff0 	bcs	beb0 <quorem+0x148>
    beec:	e7982104 	ldr	r2, [r8, r4, lsl #2]
    bef0:	e3520000 	cmp	r2, #0
    bef4:	e0883104 	add	r3, r8, r4, lsl #2
    bef8:	1a00000a 	bne	bf28 <quorem+0x1c0>
    befc:	e2433004 	sub	r3, r3, #4
    bf00:	e1530008 	cmp	r3, r8
    bf04:	8a000003 	bhi	bf18 <quorem+0x1b0>
    bf08:	ea000005 	b	bf24 <quorem+0x1bc>
    bf0c:	e1580003 	cmp	r8, r3
    bf10:	e2444001 	sub	r4, r4, #1
    bf14:	2a000002 	bcs	bf24 <quorem+0x1bc>
    bf18:	e4132004 	ldr	r2, [r3], #-4
    bf1c:	e3520000 	cmp	r2, #0
    bf20:	0afffff9 	beq	bf0c <quorem+0x1a4>
    bf24:	e58b4010 	str	r4, [fp, #16]
    bf28:	e2866001 	add	r6, r6, #1
    bf2c:	e1a00006 	mov	r0, r6
    bf30:	e28dd014 	add	sp, sp, #20
    bf34:	e8bd4ff0 	pop	{r4, r5, r6, r7, r8, r9, sl, fp, lr}
    bf38:	e12fff1e 	bx	lr
    bf3c:	0000ffff 	.word	0x0000ffff

0000bf40 <_dtoa_r>:
    bf40:	e92d4ff0 	push	{r4, r5, r6, r7, r8, r9, sl, fp, lr}
    bf44:	e1a06002 	mov	r6, r2
    bf48:	e1a07003 	mov	r7, r3
    bf4c:	e5901038 	ldr	r1, [r0, #56]	@ 0x38
    bf50:	e24dd074 	sub	sp, sp, #116	@ 0x74
    bf54:	e3510000 	cmp	r1, #0
    bf58:	e1a04000 	mov	r4, r0
    bf5c:	e58d6008 	str	r6, [sp, #8]
    bf60:	e58d700c 	str	r7, [sp, #12]
    bf64:	e59d50a4 	ldr	r5, [sp, #164]	@ 0xa4
    bf68:	0a000007 	beq	bf8c <_dtoa_r+0x4c>
    bf6c:	e3a03001 	mov	r3, #1
    bf70:	e590203c 	ldr	r2, [r0, #60]	@ 0x3c
    bf74:	e1a03213 	lsl	r3, r3, r2
    bf78:	e5813008 	str	r3, [r1, #8]
    bf7c:	e5812004 	str	r2, [r1, #4]
    bf80:	eb00099c 	bl	e5f8 <_Bfree>
    bf84:	e3a03000 	mov	r3, #0
    bf88:	e5843038 	str	r3, [r4, #56]	@ 0x38
    bf8c:	e2579000 	subs	r9, r7, #0
    bf90:	b3a03001 	movlt	r3, #1
    bf94:	a3a03000 	movge	r3, #0
    bf98:	e5853000 	str	r3, [r5]
    bf9c:	e59f3324 	ldr	r3, [pc, #804]	@ c2c8 <_dtoa_r+0x388>
    bfa0:	b3c99102 	biclt	r9, r9, #-2147483648	@ 0x80000000
    bfa4:	b58d900c 	strlt	r9, [sp, #12]
    bfa8:	e1d33009 	bics	r3, r3, r9
    bfac:	0a000091 	beq	c1f8 <_dtoa_r+0x2b8>
    bfb0:	e28d3008 	add	r3, sp, #8
    bfb4:	e893000c 	ldm	r3, {r2, r3}
    bfb8:	e1a00002 	mov	r0, r2
    bfbc:	e1a01003 	mov	r1, r3
    bfc0:	e3a02000 	mov	r2, #0
    bfc4:	e3a03000 	mov	r3, #0
    bfc8:	e58d0020 	str	r0, [sp, #32]
    bfcc:	e58d1024 	str	r1, [sp, #36]	@ 0x24
    bfd0:	eb001930 	bl	12498 <__aeabi_dcmpeq>
    bfd4:	e2508000 	subs	r8, r0, #0
    bfd8:	0a00000c 	beq	c010 <_dtoa_r+0xd0>
    bfdc:	e3a03001 	mov	r3, #1
    bfe0:	e59d20a8 	ldr	r2, [sp, #168]	@ 0xa8
    bfe4:	e3520000 	cmp	r2, #0
    bfe8:	e59d20a0 	ldr	r2, [sp, #160]	@ 0xa0
    bfec:	e5823000 	str	r3, [r2]
    bff0:	159f32a8 	ldrne	r3, [pc, #680]	@ c2a0 <_dtoa_r+0x360>
    bff4:	159d20a8 	ldrne	r2, [sp, #168]	@ 0xa8
    bff8:	e59f82a4 	ldr	r8, [pc, #676]	@ c2a4 <_dtoa_r+0x364>
    bffc:	15823000 	strne	r3, [r2]
    c000:	e1a00008 	mov	r0, r8
    c004:	e28dd074 	add	sp, sp, #116	@ 0x74
    c008:	e8bd4ff0 	pop	{r4, r5, r6, r7, r8, r9, sl, fp, lr}
    c00c:	e12fff1e 	bx	lr
    c010:	e28d3068 	add	r3, sp, #104	@ 0x68
    c014:	e58d3004 	str	r3, [sp, #4]
    c018:	e28d306c 	add	r3, sp, #108	@ 0x6c
    c01c:	e58d3000 	str	r3, [sp]
    c020:	e1a00004 	mov	r0, r4
    c024:	e28d3020 	add	r3, sp, #32
    c028:	e893000c 	ldm	r3, {r2, r3}
    c02c:	eb000c79 	bl	f218 <__d2b>
    c030:	e1b05a29 	lsrs	r5, r9, #20
    c034:	e1a0b000 	mov	fp, r0
    c038:	1a000080 	bne	c240 <_dtoa_r+0x300>
    c03c:	e59d8068 	ldr	r8, [sp, #104]	@ 0x68
    c040:	e59d506c 	ldr	r5, [sp, #108]	@ 0x6c
    c044:	e0885005 	add	r5, r8, r5
    c048:	e2853e43 	add	r3, r5, #1072	@ 0x430
    c04c:	e2833002 	add	r3, r3, #2
    c050:	e3530020 	cmp	r3, #32
    c054:	c2852e41 	addgt	r2, r5, #1040	@ 0x410
    c058:	c2822002 	addgt	r2, r2, #2
    c05c:	c2633040 	rsbgt	r3, r3, #64	@ 0x40
    c060:	d2633020 	rsble	r3, r3, #32
    c064:	c1a02236 	lsrgt	r2, r6, r2
    c068:	c1820319 	orrgt	r0, r2, r9, lsl r3
    c06c:	d1a00316 	lslle	r0, r6, r3
    c070:	eb00176c 	bl	11e28 <__aeabi_ui2d>
    c074:	e3a03001 	mov	r3, #1
    c078:	e58d3050 	str	r3, [sp, #80]	@ 0x50
    c07c:	e2455001 	sub	r5, r5, #1
    c080:	e241161f 	sub	r1, r1, #32505856	@ 0x1f00000
    c084:	e3a02000 	mov	r2, #0
    c088:	e59f3218 	ldr	r3, [pc, #536]	@ c2a8 <_dtoa_r+0x368>
    c08c:	eb0016a0 	bl	11b14 <__aeabi_dsub>
    c090:	e28f3e1f 	add	r3, pc, #496	@ 0x1f0
    c094:	e893000c 	ldm	r3, {r2, r3}
    c098:	eb0017a4 	bl	11f30 <__aeabi_dmul>
    c09c:	e28f3f7b 	add	r3, pc, #492	@ 0x1ec
    c0a0:	e893000c 	ldm	r3, {r2, r3}
    c0a4:	eb00169b 	bl	11b18 <__adddf3>
    c0a8:	e1a06000 	mov	r6, r0
    c0ac:	e1a00005 	mov	r0, r5
    c0b0:	e1a07001 	mov	r7, r1
    c0b4:	eb001764 	bl	11e4c <__aeabi_i2d>
    c0b8:	e28f3f76 	add	r3, pc, #472	@ 0x1d8
    c0bc:	e893000c 	ldm	r3, {r2, r3}
    c0c0:	eb00179a 	bl	11f30 <__aeabi_dmul>
    c0c4:	e1a02000 	mov	r2, r0
    c0c8:	e1a03001 	mov	r3, r1
    c0cc:	e1a00006 	mov	r0, r6
    c0d0:	e1a01007 	mov	r1, r7
    c0d4:	eb00168f 	bl	11b18 <__adddf3>
    c0d8:	e1a06000 	mov	r6, r0
    c0dc:	e1a07001 	mov	r7, r1
    c0e0:	eb001918 	bl	12548 <__aeabi_d2iz>
    c0e4:	e3a02000 	mov	r2, #0
    c0e8:	e58d0018 	str	r0, [sp, #24]
    c0ec:	e1a09000 	mov	r9, r0
    c0f0:	e3a03000 	mov	r3, #0
    c0f4:	e1a00006 	mov	r0, r6
    c0f8:	e1a01007 	mov	r1, r7
    c0fc:	eb0018eb 	bl	124b0 <__aeabi_dcmplt>
    c100:	e3500000 	cmp	r0, #0
    c104:	0a000007 	beq	c128 <_dtoa_r+0x1e8>
    c108:	e1a00009 	mov	r0, r9
    c10c:	eb00174e 	bl	11e4c <__aeabi_i2d>
    c110:	e1a03007 	mov	r3, r7
    c114:	e1a02006 	mov	r2, r6
    c118:	eb0018de 	bl	12498 <__aeabi_dcmpeq>
    c11c:	e3500000 	cmp	r0, #0
    c120:	02493001 	subeq	r3, r9, #1
    c124:	058d3018 	streq	r3, [sp, #24]
    c128:	e0488005 	sub	r8, r8, r5
    c12c:	e59d5018 	ldr	r5, [sp, #24]
    c130:	e3550016 	cmp	r5, #22
    c134:	e248a001 	sub	sl, r8, #1
    c138:	8a000187 	bhi	c75c <_dtoa_r+0x81c>
    c13c:	e59f318c 	ldr	r3, [pc, #396]	@ c2d0 <_dtoa_r+0x390>
    c140:	e0833185 	add	r3, r3, r5, lsl #3
    c144:	e893000c 	ldm	r3, {r2, r3}
    c148:	e28d1020 	add	r1, sp, #32
    c14c:	e8910003 	ldm	r1, {r0, r1}
    c150:	eb0018d6 	bl	124b0 <__aeabi_dcmplt>
    c154:	e3500000 	cmp	r0, #0
    c158:	0a00005e 	beq	c2d8 <_dtoa_r+0x398>
    c15c:	e2453001 	sub	r3, r5, #1
    c160:	e58d3018 	str	r3, [sp, #24]
    c164:	e3a03000 	mov	r3, #0
    c168:	e58d3044 	str	r3, [sp, #68]	@ 0x44
    c16c:	e35a0000 	cmp	sl, #0
    c170:	a3a03000 	movge	r3, #0
    c174:	b2683001 	rsblt	r3, r8, #1
    c178:	b58d3028 	strlt	r3, [sp, #40]	@ 0x28
    c17c:	a58d3028 	strge	r3, [sp, #40]	@ 0x28
    c180:	e59d3018 	ldr	r3, [sp, #24]
    c184:	b3a0a000 	movlt	sl, #0
    c188:	e3530000 	cmp	r3, #0
    c18c:	aa000055 	bge	c2e8 <_dtoa_r+0x3a8>
    c190:	e59d3018 	ldr	r3, [sp, #24]
    c194:	e59d2028 	ldr	r2, [sp, #40]	@ 0x28
    c198:	e58d302c 	str	r3, [sp, #44]	@ 0x2c
    c19c:	e0422003 	sub	r2, r2, r3
    c1a0:	e2633000 	rsb	r3, r3, #0
    c1a4:	e58d3040 	str	r3, [sp, #64]	@ 0x40
    c1a8:	e3a03000 	mov	r3, #0
    c1ac:	e58d3018 	str	r3, [sp, #24]
    c1b0:	e59d3098 	ldr	r3, [sp, #152]	@ 0x98
    c1b4:	e3530009 	cmp	r3, #9
    c1b8:	e58d2028 	str	r2, [sp, #40]	@ 0x28
    c1bc:	8a000051 	bhi	c308 <_dtoa_r+0x3c8>
    c1c0:	e3530005 	cmp	r3, #5
    c1c4:	d3a05001 	movle	r5, #1
    c1c8:	c3a05000 	movgt	r5, #0
    c1cc:	c2433004 	subgt	r3, r3, #4
    c1d0:	c58d3098 	strgt	r3, [sp, #152]	@ 0x98
    c1d4:	e59d3098 	ldr	r3, [sp, #152]	@ 0x98
    c1d8:	e2433002 	sub	r3, r3, #2
    c1dc:	e3530003 	cmp	r3, #3
    c1e0:	979ff103 	ldrls	pc, [pc, r3, lsl #2]
    c1e4:	ea0004ec 	b	d59c <_dtoa_r+0x165c>
    c1e8:	0000cd28 	.word	0x0000cd28
    c1ec:	0000cd1c 	.word	0x0000cd1c
    c1f0:	0000ccf8 	.word	0x0000ccf8
    c1f4:	0000cc94 	.word	0x0000cc94
    c1f8:	e3c994ff 	bic	r9, r9, #-16777216	@ 0xff000000
    c1fc:	e59f30a8 	ldr	r3, [pc, #168]	@ c2ac <_dtoa_r+0x36c>
    c200:	e59d20a0 	ldr	r2, [sp, #160]	@ 0xa0
    c204:	e3c9960f 	bic	r9, r9, #15728640	@ 0xf00000
    c208:	e1999006 	orrs	r9, r9, r6
    c20c:	e5823000 	str	r3, [r2]
    c210:	0a000016 	beq	c270 <_dtoa_r+0x330>
    c214:	e59d30a8 	ldr	r3, [sp, #168]	@ 0xa8
    c218:	e3530000 	cmp	r3, #0
    c21c:	e59f808c 	ldr	r8, [pc, #140]	@ c2b0 <_dtoa_r+0x370>
    c220:	0affff76 	beq	c000 <_dtoa_r+0xc0>
    c224:	e2883003 	add	r3, r8, #3
    c228:	e1a00008 	mov	r0, r8
    c22c:	e59d20a8 	ldr	r2, [sp, #168]	@ 0xa8
    c230:	e5823000 	str	r3, [r2]
    c234:	e28dd074 	add	sp, sp, #116	@ 0x74
    c238:	e8bd4ff0 	pop	{r4, r5, r6, r7, r8, r9, sl, fp, lr}
    c23c:	e12fff1e 	bx	lr
    c240:	e28d2020 	add	r2, sp, #32
    c244:	e8920006 	ldm	r2, {r1, r2}
    c248:	e3c234ff 	bic	r3, r2, #-16777216	@ 0xff000000
    c24c:	e3c3360f 	bic	r3, r3, #15728640	@ 0xf00000
    c250:	e1a00001 	mov	r0, r1
    c254:	e2455fff 	sub	r5, r5, #1020	@ 0x3fc
    c258:	e38315ff 	orr	r1, r3, #1069547520	@ 0x3fc00000
    c25c:	e58d8050 	str	r8, [sp, #80]	@ 0x50
    c260:	e2455003 	sub	r5, r5, #3
    c264:	e59d8068 	ldr	r8, [sp, #104]	@ 0x68
    c268:	e3811603 	orr	r1, r1, #3145728	@ 0x300000
    c26c:	eaffff84 	b	c084 <_dtoa_r+0x144>
    c270:	e59d30a8 	ldr	r3, [sp, #168]	@ 0xa8
    c274:	e59f8038 	ldr	r8, [pc, #56]	@ c2b4 <_dtoa_r+0x374>
    c278:	e3530000 	cmp	r3, #0
    c27c:	12883008 	addne	r3, r8, #8
    c280:	1affffe8 	bne	c228 <_dtoa_r+0x2e8>
    c284:	eaffff5d 	b	c000 <_dtoa_r+0xc0>
    c288:	636f4361 	.word	0x636f4361
    c28c:	3fd287a7 	.word	0x3fd287a7
    c290:	8b60c8b3 	.word	0x8b60c8b3
    c294:	3fc68a28 	.word	0x3fc68a28
    c298:	509f79fb 	.word	0x509f79fb
    c29c:	3fd34413 	.word	0x3fd34413
    c2a0:	000128a9 	.word	0x000128a9
    c2a4:	000128a8 	.word	0x000128a8
    c2a8:	3ff80000 	.word	0x3ff80000
    c2ac:	0000270f 	.word	0x0000270f
    c2b0:	000128b8 	.word	0x000128b8
    c2b4:	000128ac 	.word	0x000128ac
    c2b8:	3ff00000 	.word	0x3ff00000
    c2bc:	401c0000 	.word	0x401c0000
    c2c0:	00012718 	.word	0x00012718
    c2c4:	40140000 	.word	0x40140000
    c2c8:	7ff00000 	.word	0x7ff00000
    c2cc:	3fe00000 	.word	0x3fe00000
    c2d0:	00012628 	.word	0x00012628
    c2d4:	40240000 	.word	0x40240000
    c2d8:	e3580000 	cmp	r8, #0
    c2dc:	da0003eb 	ble	d290 <_dtoa_r+0x1350>
    c2e0:	e58d0044 	str	r0, [sp, #68]	@ 0x44
    c2e4:	e58d0028 	str	r0, [sp, #40]	@ 0x28
    c2e8:	e59d3018 	ldr	r3, [sp, #24]
    c2ec:	e58d302c 	str	r3, [sp, #44]	@ 0x2c
    c2f0:	e08aa003 	add	sl, sl, r3
    c2f4:	e3a03000 	mov	r3, #0
    c2f8:	e58d3040 	str	r3, [sp, #64]	@ 0x40
    c2fc:	e59d3098 	ldr	r3, [sp, #152]	@ 0x98
    c300:	e3530009 	cmp	r3, #9
    c304:	9affffad 	bls	c1c0 <_dtoa_r+0x280>
    c308:	e3a03000 	mov	r3, #0
    c30c:	e58d3098 	str	r3, [sp, #152]	@ 0x98
    c310:	e3e03000 	mvn	r3, #0
    c314:	e3a05001 	mov	r5, #1
    c318:	e58d301c 	str	r3, [sp, #28]
    c31c:	e3a03000 	mov	r3, #0
    c320:	e58d5030 	str	r5, [sp, #48]	@ 0x30
    c324:	e58d309c 	str	r3, [sp, #156]	@ 0x9c
    c328:	e3a01000 	mov	r1, #0
    c32c:	e59d301c 	ldr	r3, [sp, #28]
    c330:	e584103c 	str	r1, [r4, #60]	@ 0x3c
    c334:	e58d3054 	str	r3, [sp, #84]	@ 0x54
    c338:	e1a00004 	mov	r0, r4
    c33c:	eb00088a 	bl	e56c <_Balloc>
    c340:	e2503000 	subs	r3, r0, #0
    c344:	e58d3014 	str	r3, [sp, #20]
    c348:	0a00049b 	beq	d5bc <_dtoa_r+0x167c>
    c34c:	e59d301c 	ldr	r3, [sp, #28]
    c350:	e353000e 	cmp	r3, #14
    c354:	83a05000 	movhi	r5, #0
    c358:	92055001 	andls	r5, r5, #1
    c35c:	e59d3014 	ldr	r3, [sp, #20]
    c360:	e3550000 	cmp	r5, #0
    c364:	e5843038 	str	r3, [r4, #56]	@ 0x38
    c368:	0a0000d6 	beq	c6c8 <_dtoa_r+0x788>
    c36c:	e59d102c 	ldr	r1, [sp, #44]	@ 0x2c
    c370:	e3510000 	cmp	r1, #0
    c374:	da0000fb 	ble	c768 <_dtoa_r+0x828>
    c378:	e51f30b0 	ldr	r3, [pc, #-176]	@ c2d0 <_dtoa_r+0x390>
    c37c:	e201200f 	and	r2, r1, #15
    c380:	e0833182 	add	r3, r3, r2, lsl #3
    c384:	e3110c01 	tst	r1, #256	@ 0x100
    c388:	e89300c0 	ldm	r3, {r6, r7}
    c38c:	e1a05241 	asr	r5, r1, #4
    c390:	0a000223 	beq	cc24 <_dtoa_r+0xce4>
    c394:	e51f30dc 	ldr	r3, [pc, #-220]	@ c2c0 <_dtoa_r+0x380>
    c398:	e28d1020 	add	r1, sp, #32
    c39c:	e8910003 	ldm	r1, {r0, r1}
    c3a0:	e2833020 	add	r3, r3, #32
    c3a4:	e893000c 	ldm	r3, {r2, r3}
    c3a8:	eb001784 	bl	121c0 <__aeabi_ddiv>
    c3ac:	e3a08003 	mov	r8, #3
    c3b0:	e58d0038 	str	r0, [sp, #56]	@ 0x38
    c3b4:	e58d103c 	str	r1, [sp, #60]	@ 0x3c
    c3b8:	e205500f 	and	r5, r5, #15
    c3bc:	e3550000 	cmp	r5, #0
    c3c0:	0a00000c 	beq	c3f8 <_dtoa_r+0x4b8>
    c3c4:	e51f910c 	ldr	r9, [pc, #-268]	@ c2c0 <_dtoa_r+0x380>
    c3c8:	e3150001 	tst	r5, #1
    c3cc:	0a000006 	beq	c3ec <_dtoa_r+0x4ac>
    c3d0:	e1a00006 	mov	r0, r6
    c3d4:	e1a01007 	mov	r1, r7
    c3d8:	e899000c 	ldm	r9, {r2, r3}
    c3dc:	eb0016d3 	bl	11f30 <__aeabi_dmul>
    c3e0:	e1a06000 	mov	r6, r0
    c3e4:	e1a07001 	mov	r7, r1
    c3e8:	e2888001 	add	r8, r8, #1
    c3ec:	e1b050c5 	asrs	r5, r5, #1
    c3f0:	e2899008 	add	r9, r9, #8
    c3f4:	1afffff3 	bne	c3c8 <_dtoa_r+0x488>
    c3f8:	e1a02006 	mov	r2, r6
    c3fc:	e1a03007 	mov	r3, r7
    c400:	e28d1038 	add	r1, sp, #56	@ 0x38
    c404:	e8910003 	ldm	r1, {r0, r1}
    c408:	eb00176c 	bl	121c0 <__aeabi_ddiv>
    c40c:	e58d0048 	str	r0, [sp, #72]	@ 0x48
    c410:	e58d104c 	str	r1, [sp, #76]	@ 0x4c
    c414:	e59d3044 	ldr	r3, [sp, #68]	@ 0x44
    c418:	e3530000 	cmp	r3, #0
    c41c:	0a000008 	beq	c444 <_dtoa_r+0x504>
    c420:	e28d6048 	add	r6, sp, #72	@ 0x48
    c424:	e8960060 	ldm	r6, {r5, r6}
    c428:	e3a02000 	mov	r2, #0
    c42c:	e1a00005 	mov	r0, r5
    c430:	e1a01006 	mov	r1, r6
    c434:	e51f3184 	ldr	r3, [pc, #-388]	@ c2b8 <_dtoa_r+0x378>
    c438:	eb00181c 	bl	124b0 <__aeabi_dcmplt>
    c43c:	e3500000 	cmp	r0, #0
    c440:	1a000397 	bne	d2a4 <_dtoa_r+0x1364>
    c444:	e1a00008 	mov	r0, r8
    c448:	eb00167f 	bl	11e4c <__aeabi_i2d>
    c44c:	e28d3048 	add	r3, sp, #72	@ 0x48
    c450:	e893000c 	ldm	r3, {r2, r3}
    c454:	eb0016b5 	bl	11f30 <__aeabi_dmul>
    c458:	e51f31a4 	ldr	r3, [pc, #-420]	@ c2bc <_dtoa_r+0x37c>
    c45c:	e3a02000 	mov	r2, #0
    c460:	eb0015ac 	bl	11b18 <__adddf3>
    c464:	e59d301c 	ldr	r3, [sp, #28]
    c468:	e3530000 	cmp	r3, #0
    c46c:	e1a06000 	mov	r6, r0
    c470:	e241750d 	sub	r7, r1, #54525952	@ 0x3400000
    c474:	0a000080 	beq	c67c <_dtoa_r+0x73c>
    c478:	e59d302c 	ldr	r3, [sp, #44]	@ 0x2c
    c47c:	e58d3038 	str	r3, [sp, #56]	@ 0x38
    c480:	e59d301c 	ldr	r3, [sp, #28]
    c484:	e58d3060 	str	r3, [sp, #96]	@ 0x60
    c488:	e51f21c0 	ldr	r2, [pc, #-448]	@ c2d0 <_dtoa_r+0x390>
    c48c:	e59d3060 	ldr	r3, [sp, #96]	@ 0x60
    c490:	e1a08006 	mov	r8, r6
    c494:	e1a09007 	mov	r9, r7
    c498:	e0823183 	add	r3, r2, r3, lsl #3
    c49c:	e28d7048 	add	r7, sp, #72	@ 0x48
    c4a0:	e89700c0 	ldm	r7, {r6, r7}
    c4a4:	e913000c 	ldmdb	r3, {r2, r3}
    c4a8:	e1a01007 	mov	r1, r7
    c4ac:	e1a00006 	mov	r0, r6
    c4b0:	e58d2058 	str	r2, [sp, #88]	@ 0x58
    c4b4:	e58d305c 	str	r3, [sp, #92]	@ 0x5c
    c4b8:	eb001822 	bl	12548 <__aeabi_d2iz>
    c4bc:	e1a05000 	mov	r5, r0
    c4c0:	eb001661 	bl	11e4c <__aeabi_i2d>
    c4c4:	e1a02000 	mov	r2, r0
    c4c8:	e1a03001 	mov	r3, r1
    c4cc:	e1a00006 	mov	r0, r6
    c4d0:	e1a01007 	mov	r1, r7
    c4d4:	eb00158e 	bl	11b14 <__aeabi_dsub>
    c4d8:	e59d3014 	ldr	r3, [sp, #20]
    c4dc:	e59dc030 	ldr	ip, [sp, #48]	@ 0x30
    c4e0:	e1a07001 	mov	r7, r1
    c4e4:	e2855030 	add	r5, r5, #48	@ 0x30
    c4e8:	e2831001 	add	r1, r3, #1
    c4ec:	e35c0000 	cmp	ip, #0
    c4f0:	e1a06000 	mov	r6, r0
    c4f4:	e58d1048 	str	r1, [sp, #72]	@ 0x48
    c4f8:	e28d3058 	add	r3, sp, #88	@ 0x58
    c4fc:	e893000c 	ldm	r3, {r2, r3}
    c500:	e20550ff 	and	r5, r5, #255	@ 0xff
    c504:	0a00020a 	beq	cd34 <_dtoa_r+0xdf4>
    c508:	e3a00000 	mov	r0, #0
    c50c:	e51f1248 	ldr	r1, [pc, #-584]	@ c2cc <_dtoa_r+0x38c>
    c510:	eb00172a 	bl	121c0 <__aeabi_ddiv>
    c514:	e1a02008 	mov	r2, r8
    c518:	e1a03009 	mov	r3, r9
    c51c:	eb00157c 	bl	11b14 <__aeabi_dsub>
    c520:	e59d3014 	ldr	r3, [sp, #20]
    c524:	e1a02006 	mov	r2, r6
    c528:	e5c35000 	strb	r5, [r3]
    c52c:	e1a03007 	mov	r3, r7
    c530:	e1a08000 	mov	r8, r0
    c534:	e1a09001 	mov	r9, r1
    c538:	eb0017ee 	bl	124f8 <__aeabi_dcmpgt>
    c53c:	e3500000 	cmp	r0, #0
    c540:	1a000405 	bne	d55c <_dtoa_r+0x161c>
    c544:	e58da064 	str	sl, [sp, #100]	@ 0x64
    c548:	e58db058 	str	fp, [sp, #88]	@ 0x58
    c54c:	e3a05000 	mov	r5, #0
    c550:	e59db060 	ldr	fp, [sp, #96]	@ 0x60
    c554:	e59da048 	ldr	sl, [sp, #72]	@ 0x48
    c558:	e58d4060 	str	r4, [sp, #96]	@ 0x60
    c55c:	ea000021 	b	c5e8 <_dtoa_r+0x6a8>
    c560:	e2855001 	add	r5, r5, #1
    c564:	e155000b 	cmp	r5, fp
    c568:	aa0003ab 	bge	d41c <_dtoa_r+0x14dc>
    c56c:	e1a00008 	mov	r0, r8
    c570:	e1a01009 	mov	r1, r9
    c574:	e3a02000 	mov	r2, #0
    c578:	e51f32ac 	ldr	r3, [pc, #-684]	@ c2d4 <_dtoa_r+0x394>
    c57c:	eb00166b 	bl	11f30 <__aeabi_dmul>
    c580:	e3a02000 	mov	r2, #0
    c584:	e51f32b8 	ldr	r3, [pc, #-696]	@ c2d4 <_dtoa_r+0x394>
    c588:	e1a08000 	mov	r8, r0
    c58c:	e1a09001 	mov	r9, r1
    c590:	e1a00006 	mov	r0, r6
    c594:	e1a01007 	mov	r1, r7
    c598:	eb001664 	bl	11f30 <__aeabi_dmul>
    c59c:	e1a07001 	mov	r7, r1
    c5a0:	e1a06000 	mov	r6, r0
    c5a4:	eb0017e7 	bl	12548 <__aeabi_d2iz>
    c5a8:	e1a04000 	mov	r4, r0
    c5ac:	eb001626 	bl	11e4c <__aeabi_i2d>
    c5b0:	e1a02000 	mov	r2, r0
    c5b4:	e1a03001 	mov	r3, r1
    c5b8:	e1a00006 	mov	r0, r6
    c5bc:	e1a01007 	mov	r1, r7
    c5c0:	eb001553 	bl	11b14 <__aeabi_dsub>
    c5c4:	e2844030 	add	r4, r4, #48	@ 0x30
    c5c8:	e1a02008 	mov	r2, r8
    c5cc:	e1a03009 	mov	r3, r9
    c5d0:	e4ca4001 	strb	r4, [sl], #1
    c5d4:	e1a06000 	mov	r6, r0
    c5d8:	e1a07001 	mov	r7, r1
    c5dc:	eb0017b3 	bl	124b0 <__aeabi_dcmplt>
    c5e0:	e3500000 	cmp	r0, #0
    c5e4:	1a000390 	bne	d42c <_dtoa_r+0x14ec>
    c5e8:	e1a02006 	mov	r2, r6
    c5ec:	e1a03007 	mov	r3, r7
    c5f0:	e3a00000 	mov	r0, #0
    c5f4:	e51f1344 	ldr	r1, [pc, #-836]	@ c2b8 <_dtoa_r+0x378>
    c5f8:	eb001545 	bl	11b14 <__aeabi_dsub>
    c5fc:	e1a02008 	mov	r2, r8
    c600:	e1a03009 	mov	r3, r9
    c604:	eb0017a9 	bl	124b0 <__aeabi_dcmplt>
    c608:	e3500000 	cmp	r0, #0
    c60c:	0affffd3 	beq	c560 <_dtoa_r+0x620>
    c610:	e1a0500a 	mov	r5, sl
    c614:	e59db058 	ldr	fp, [sp, #88]	@ 0x58
    c618:	e59d4060 	ldr	r4, [sp, #96]	@ 0x60
    c61c:	e59d1014 	ldr	r1, [sp, #20]
    c620:	ea000001 	b	c62c <_dtoa_r+0x6ec>
    c624:	e1510005 	cmp	r1, r5
    c628:	0a000363 	beq	d3bc <_dtoa_r+0x147c>
    c62c:	e1a02005 	mov	r2, r5
    c630:	e5753001 	ldrb	r3, [r5, #-1]!
    c634:	e3530039 	cmp	r3, #57	@ 0x39
    c638:	0afffff9 	beq	c624 <_dtoa_r+0x6e4>
    c63c:	e2833001 	add	r3, r3, #1
    c640:	e20330ff 	and	r3, r3, #255	@ 0xff
    c644:	e5c53000 	strb	r3, [r5]
    c648:	e59d8014 	ldr	r8, [sp, #20]
    c64c:	e58d2014 	str	r2, [sp, #20]
    c650:	ea0000c5 	b	c96c <_dtoa_r+0xa2c>
    c654:	e1a00008 	mov	r0, r8
    c658:	eb0015fb 	bl	11e4c <__aeabi_i2d>
    c65c:	e28d3048 	add	r3, sp, #72	@ 0x48
    c660:	e893000c 	ldm	r3, {r2, r3}
    c664:	eb001631 	bl	11f30 <__aeabi_dmul>
    c668:	e3a02000 	mov	r2, #0
    c66c:	e51f33b8 	ldr	r3, [pc, #-952]	@ c2bc <_dtoa_r+0x37c>
    c670:	eb001528 	bl	11b18 <__adddf3>
    c674:	e1a06000 	mov	r6, r0
    c678:	e241750d 	sub	r7, r1, #54525952	@ 0x3400000
    c67c:	e3a02000 	mov	r2, #0
    c680:	e51f33c4 	ldr	r3, [pc, #-964]	@ c2c4 <_dtoa_r+0x384>
    c684:	e28d1048 	add	r1, sp, #72	@ 0x48
    c688:	e8910003 	ldm	r1, {r0, r1}
    c68c:	eb001520 	bl	11b14 <__aeabi_dsub>
    c690:	e1a02006 	mov	r2, r6
    c694:	e1a03007 	mov	r3, r7
    c698:	e1a08000 	mov	r8, r0
    c69c:	e1a09001 	mov	r9, r1
    c6a0:	eb001794 	bl	124f8 <__aeabi_dcmpgt>
    c6a4:	e3500000 	cmp	r0, #0
    c6a8:	1a000329 	bne	d354 <_dtoa_r+0x1414>
    c6ac:	e1a00008 	mov	r0, r8
    c6b0:	e1a01009 	mov	r1, r9
    c6b4:	e1a02006 	mov	r2, r6
    c6b8:	e2873102 	add	r3, r7, #-2147483648	@ 0x80000000
    c6bc:	eb00177b 	bl	124b0 <__aeabi_dcmplt>
    c6c0:	e3500000 	cmp	r0, #0
    c6c4:	1a000128 	bne	cb6c <_dtoa_r+0xc2c>
    c6c8:	e59d306c 	ldr	r3, [sp, #108]	@ 0x6c
    c6cc:	e1e02003 	mvn	r2, r3
    c6d0:	e59d102c 	ldr	r1, [sp, #44]	@ 0x2c
    c6d4:	e351000e 	cmp	r1, #14
    c6d8:	e1a02fa2 	lsr	r2, r2, #31
    c6dc:	c3a02000 	movgt	r2, #0
    c6e0:	e3520000 	cmp	r2, #0
    c6e4:	1a000107 	bne	cb08 <_dtoa_r+0xbc8>
    c6e8:	e59d1030 	ldr	r1, [sp, #48]	@ 0x30
    c6ec:	e3510000 	cmp	r1, #0
    c6f0:	0a00003e 	beq	c7f0 <_dtoa_r+0x8b0>
    c6f4:	e59d1098 	ldr	r1, [sp, #152]	@ 0x98
    c6f8:	e3510001 	cmp	r1, #1
    c6fc:	da000307 	ble	d320 <_dtoa_r+0x13e0>
    c700:	e59d101c 	ldr	r1, [sp, #28]
    c704:	e59d0040 	ldr	r0, [sp, #64]	@ 0x40
    c708:	e2413001 	sub	r3, r1, #1
    c70c:	e1500003 	cmp	r0, r3
    c710:	aa000273 	bge	d0e4 <_dtoa_r+0x11a4>
    c714:	e1a05002 	mov	r5, r2
    c718:	e59d1040 	ldr	r1, [sp, #64]	@ 0x40
    c71c:	e59d0018 	ldr	r0, [sp, #24]
    c720:	e0431001 	sub	r1, r3, r1
    c724:	e0801001 	add	r1, r0, r1
    c728:	e58d3040 	str	r3, [sp, #64]	@ 0x40
    c72c:	e58d1018 	str	r1, [sp, #24]
    c730:	e59d301c 	ldr	r3, [sp, #28]
    c734:	e59d2028 	ldr	r2, [sp, #40]	@ 0x28
    c738:	e1a08002 	mov	r8, r2
    c73c:	e08aa003 	add	sl, sl, r3
    c740:	e0823003 	add	r3, r2, r3
    c744:	e58d3028 	str	r3, [sp, #40]	@ 0x28
    c748:	e3a01001 	mov	r1, #1
    c74c:	e1a00004 	mov	r0, r4
    c750:	eb000874 	bl	e928 <__i2b>
    c754:	e1a06000 	mov	r6, r0
    c758:	ea000029 	b	c804 <_dtoa_r+0x8c4>
    c75c:	e3a03001 	mov	r3, #1
    c760:	e58d3044 	str	r3, [sp, #68]	@ 0x44
    c764:	eafffe80 	b	c16c <_dtoa_r+0x22c>
    c768:	0a000257 	beq	d0cc <_dtoa_r+0x118c>
    c76c:	e59d202c 	ldr	r2, [sp, #44]	@ 0x2c
    c770:	e51f34a8 	ldr	r3, [pc, #-1192]	@ c2d0 <_dtoa_r+0x390>
    c774:	e2626000 	rsb	r6, r2, #0
    c778:	e206200f 	and	r2, r6, #15
    c77c:	e0833182 	add	r3, r3, r2, lsl #3
    c780:	e893000c 	ldm	r3, {r2, r3}
    c784:	e28d1020 	add	r1, sp, #32
    c788:	e8910003 	ldm	r1, {r0, r1}
    c78c:	eb0015e7 	bl	11f30 <__aeabi_dmul>
    c790:	e1b06246 	asrs	r6, r6, #4
    c794:	e58d0038 	str	r0, [sp, #56]	@ 0x38
    c798:	e58d103c 	str	r1, [sp, #60]	@ 0x3c
    c79c:	0a000368 	beq	d544 <_dtoa_r+0x1604>
    c7a0:	e3a03000 	mov	r3, #0
    c7a4:	e3a08002 	mov	r8, #2
    c7a8:	e51f74f0 	ldr	r7, [pc, #-1264]	@ c2c0 <_dtoa_r+0x380>
    c7ac:	e3160001 	tst	r6, #1
    c7b0:	0a000003 	beq	c7c4 <_dtoa_r+0x884>
    c7b4:	e897000c 	ldm	r7, {r2, r3}
    c7b8:	eb0015dc 	bl	11f30 <__aeabi_dmul>
    c7bc:	e1a03005 	mov	r3, r5
    c7c0:	e2888001 	add	r8, r8, #1
    c7c4:	e1b060c6 	asrs	r6, r6, #1
    c7c8:	e2877008 	add	r7, r7, #8
    c7cc:	1afffff6 	bne	c7ac <_dtoa_r+0x86c>
    c7d0:	e3530000 	cmp	r3, #0
    c7d4:	e58d0048 	str	r0, [sp, #72]	@ 0x48
    c7d8:	e58d104c 	str	r1, [sp, #76]	@ 0x4c
    c7dc:	028d3038 	addeq	r3, sp, #56	@ 0x38
    c7e0:	0893000c 	ldmeq	r3, {r2, r3}
    c7e4:	058d2048 	streq	r2, [sp, #72]	@ 0x48
    c7e8:	058d304c 	streq	r3, [sp, #76]	@ 0x4c
    c7ec:	eaffff08 	b	c414 <_dtoa_r+0x4d4>
    c7f0:	e3a03000 	mov	r3, #0
    c7f4:	e1a06003 	mov	r6, r3
    c7f8:	e58d3030 	str	r3, [sp, #48]	@ 0x30
    c7fc:	e59d5040 	ldr	r5, [sp, #64]	@ 0x40
    c800:	e59d8028 	ldr	r8, [sp, #40]	@ 0x28
    c804:	e3580000 	cmp	r8, #0
    c808:	c35a0000 	cmpgt	sl, #0
    c80c:	da000007 	ble	c830 <_dtoa_r+0x8f0>
    c810:	e158000a 	cmp	r8, sl
    c814:	b1a03008 	movlt	r3, r8
    c818:	a1a0300a 	movge	r3, sl
    c81c:	e59d2028 	ldr	r2, [sp, #40]	@ 0x28
    c820:	e0422003 	sub	r2, r2, r3
    c824:	e58d2028 	str	r2, [sp, #40]	@ 0x28
    c828:	e0488003 	sub	r8, r8, r3
    c82c:	e04aa003 	sub	sl, sl, r3
    c830:	e59d3040 	ldr	r3, [sp, #64]	@ 0x40
    c834:	e3530000 	cmp	r3, #0
    c838:	0a000009 	beq	c864 <_dtoa_r+0x924>
    c83c:	e59d3030 	ldr	r3, [sp, #48]	@ 0x30
    c840:	e3530000 	cmp	r3, #0
    c844:	0a000001 	beq	c850 <_dtoa_r+0x910>
    c848:	e3550000 	cmp	r5, #0
    c84c:	1a00023e 	bne	d14c <_dtoa_r+0x120c>
    c850:	e1a0100b 	mov	r1, fp
    c854:	e1a00004 	mov	r0, r4
    c858:	e59d2040 	ldr	r2, [sp, #64]	@ 0x40
    c85c:	eb0008e2 	bl	ebec <__pow5mult>
    c860:	e1a0b000 	mov	fp, r0
    c864:	e3a01001 	mov	r1, #1
    c868:	e1a00004 	mov	r0, r4
    c86c:	eb00082d 	bl	e928 <__i2b>
    c870:	e59d3018 	ldr	r3, [sp, #24]
    c874:	e3530000 	cmp	r3, #0
    c878:	e1a07000 	mov	r7, r0
    c87c:	1a0000d8 	bne	cbe4 <_dtoa_r+0xca4>
    c880:	e59d3098 	ldr	r3, [sp, #152]	@ 0x98
    c884:	e3530001 	cmp	r3, #1
    c888:	da0000eb 	ble	cc3c <_dtoa_r+0xcfc>
    c88c:	e3a03001 	mov	r3, #1
    c890:	e08a3003 	add	r3, sl, r3
    c894:	e213301f 	ands	r3, r3, #31
    c898:	0a000046 	beq	c9b8 <_dtoa_r+0xa78>
    c89c:	e2632020 	rsb	r2, r3, #32
    c8a0:	e3520004 	cmp	r2, #4
    c8a4:	c263301c 	rsbgt	r3, r3, #28
    c8a8:	da0001ae 	ble	cf68 <_dtoa_r+0x1028>
    c8ac:	e59d2028 	ldr	r2, [sp, #40]	@ 0x28
    c8b0:	e0822003 	add	r2, r2, r3
    c8b4:	e58d2028 	str	r2, [sp, #40]	@ 0x28
    c8b8:	e0888003 	add	r8, r8, r3
    c8bc:	e08aa003 	add	sl, sl, r3
    c8c0:	e59d3028 	ldr	r3, [sp, #40]	@ 0x28
    c8c4:	e3530000 	cmp	r3, #0
    c8c8:	da000004 	ble	c8e0 <_dtoa_r+0x9a0>
    c8cc:	e1a0100b 	mov	r1, fp
    c8d0:	e1a02003 	mov	r2, r3
    c8d4:	e1a00004 	mov	r0, r4
    c8d8:	eb00090e 	bl	ed18 <__lshift>
    c8dc:	e1a0b000 	mov	fp, r0
    c8e0:	e35a0000 	cmp	sl, #0
    c8e4:	da000004 	ble	c8fc <_dtoa_r+0x9bc>
    c8e8:	e1a01007 	mov	r1, r7
    c8ec:	e1a0200a 	mov	r2, sl
    c8f0:	e1a00004 	mov	r0, r4
    c8f4:	eb000907 	bl	ed18 <__lshift>
    c8f8:	e1a07000 	mov	r7, r0
    c8fc:	e59d3098 	ldr	r3, [sp, #152]	@ 0x98
    c900:	e3530002 	cmp	r3, #2
    c904:	e59d3044 	ldr	r3, [sp, #68]	@ 0x44
    c908:	d3a05000 	movle	r5, #0
    c90c:	c3a05001 	movgt	r5, #1
    c910:	e3530000 	cmp	r3, #0
    c914:	1a000097 	bne	cb78 <_dtoa_r+0xc38>
    c918:	e59d301c 	ldr	r3, [sp, #28]
    c91c:	e3530000 	cmp	r3, #0
    c920:	c3a05000 	movgt	r5, #0
    c924:	d2055001 	andle	r5, r5, #1
    c928:	e3550000 	cmp	r5, #0
    c92c:	0a000023 	beq	c9c0 <_dtoa_r+0xa80>
    c930:	e59d301c 	ldr	r3, [sp, #28]
    c934:	e3530000 	cmp	r3, #0
    c938:	0a00018d 	beq	cf74 <_dtoa_r+0x1034>
    c93c:	e59d309c 	ldr	r3, [sp, #156]	@ 0x9c
    c940:	e1e03003 	mvn	r3, r3
    c944:	e59d8014 	ldr	r8, [sp, #20]
    c948:	e58d3038 	str	r3, [sp, #56]	@ 0x38
    c94c:	e1a01007 	mov	r1, r7
    c950:	e1a00004 	mov	r0, r4
    c954:	eb000727 	bl	e5f8 <_Bfree>
    c958:	e3560000 	cmp	r6, #0
    c95c:	0a000002 	beq	c96c <_dtoa_r+0xa2c>
    c960:	e1a01006 	mov	r1, r6
    c964:	e1a00004 	mov	r0, r4
    c968:	eb000722 	bl	e5f8 <_Bfree>
    c96c:	e1a0100b 	mov	r1, fp
    c970:	e1a00004 	mov	r0, r4
    c974:	eb00071f 	bl	e5f8 <_Bfree>
    c978:	e3a03000 	mov	r3, #0
    c97c:	e59d2014 	ldr	r2, [sp, #20]
    c980:	e59d10a8 	ldr	r1, [sp, #168]	@ 0xa8
    c984:	e5c23000 	strb	r3, [r2]
    c988:	e59d3038 	ldr	r3, [sp, #56]	@ 0x38
    c98c:	e3510000 	cmp	r1, #0
    c990:	e59d10a0 	ldr	r1, [sp, #160]	@ 0xa0
    c994:	e2833001 	add	r3, r3, #1
    c998:	e5813000 	str	r3, [r1]
    c99c:	0afffd97 	beq	c000 <_dtoa_r+0xc0>
    c9a0:	e1a00008 	mov	r0, r8
    c9a4:	e59d30a8 	ldr	r3, [sp, #168]	@ 0xa8
    c9a8:	e5832000 	str	r2, [r3]
    c9ac:	e28dd074 	add	sp, sp, #116	@ 0x74
    c9b0:	e8bd4ff0 	pop	{r4, r5, r6, r7, r8, r9, sl, fp, lr}
    c9b4:	e12fff1e 	bx	lr
    c9b8:	e3a0301c 	mov	r3, #28
    c9bc:	eaffffba 	b	c8ac <_dtoa_r+0x96c>
    c9c0:	e59d3030 	ldr	r3, [sp, #48]	@ 0x30
    c9c4:	e3530000 	cmp	r3, #0
    c9c8:	0a000182 	beq	cfd8 <_dtoa_r+0x1098>
    c9cc:	e3580000 	cmp	r8, #0
    c9d0:	da000004 	ble	c9e8 <_dtoa_r+0xaa8>
    c9d4:	e1a01006 	mov	r1, r6
    c9d8:	e1a02008 	mov	r2, r8
    c9dc:	e1a00004 	mov	r0, r4
    c9e0:	eb0008cc 	bl	ed18 <__lshift>
    c9e4:	e1a06000 	mov	r6, r0
    c9e8:	e59d3018 	ldr	r3, [sp, #24]
    c9ec:	e3530000 	cmp	r3, #0
    c9f0:	01a09006 	moveq	r9, r6
    c9f4:	1a000277 	bne	d3d8 <_dtoa_r+0x1498>
    c9f8:	e59d3014 	ldr	r3, [sp, #20]
    c9fc:	e59d201c 	ldr	r2, [sp, #28]
    ca00:	e1a05003 	mov	r5, r3
    ca04:	e2433001 	sub	r3, r3, #1
    ca08:	e0833002 	add	r3, r3, r2
    ca0c:	e58d3020 	str	r3, [sp, #32]
    ca10:	e59d3008 	ldr	r3, [sp, #8]
    ca14:	e2033001 	and	r3, r3, #1
    ca18:	e58d3028 	str	r3, [sp, #40]	@ 0x28
    ca1c:	e58d7018 	str	r7, [sp, #24]
    ca20:	e59d1018 	ldr	r1, [sp, #24]
    ca24:	e1a0000b 	mov	r0, fp
    ca28:	ebfffcce 	bl	bd68 <quorem>
    ca2c:	e1a01006 	mov	r1, r6
    ca30:	e1a0a000 	mov	sl, r0
    ca34:	e1a0000b 	mov	r0, fp
    ca38:	eb000907 	bl	ee5c <__mcmp>
    ca3c:	e59d1018 	ldr	r1, [sp, #24]
    ca40:	e1a08000 	mov	r8, r0
    ca44:	e1a02009 	mov	r2, r9
    ca48:	e1a00004 	mov	r0, r4
    ca4c:	eb000917 	bl	eeb0 <__mdiff>
    ca50:	e590300c 	ldr	r3, [r0, #12]
    ca54:	e3530000 	cmp	r3, #0
    ca58:	e1a01000 	mov	r1, r0
    ca5c:	e28a7030 	add	r7, sl, #48	@ 0x30
    ca60:	1a0001cb 	bne	d194 <_dtoa_r+0x1254>
    ca64:	e58d001c 	str	r0, [sp, #28]
    ca68:	e1a0000b 	mov	r0, fp
    ca6c:	eb0008fa 	bl	ee5c <__mcmp>
    ca70:	e59d101c 	ldr	r1, [sp, #28]
    ca74:	e58d001c 	str	r0, [sp, #28]
    ca78:	e1a00004 	mov	r0, r4
    ca7c:	eb0006dd 	bl	e5f8 <_Bfree>
    ca80:	e59d3098 	ldr	r3, [sp, #152]	@ 0x98
    ca84:	e59d201c 	ldr	r2, [sp, #28]
    ca88:	e1933002 	orrs	r3, r3, r2
    ca8c:	1a0001e6 	bne	d22c <_dtoa_r+0x12ec>
    ca90:	e59d3028 	ldr	r3, [sp, #40]	@ 0x28
    ca94:	e3530000 	cmp	r3, #0
    ca98:	0a00028e 	beq	d4d8 <_dtoa_r+0x1598>
    ca9c:	e3580000 	cmp	r8, #0
    caa0:	ba000289 	blt	d4cc <_dtoa_r+0x158c>
    caa4:	e59d3020 	ldr	r3, [sp, #32]
    caa8:	e1530005 	cmp	r3, r5
    caac:	e4c57001 	strb	r7, [r5], #1
    cab0:	0a000280 	beq	d4b8 <_dtoa_r+0x1578>
    cab4:	e1a0100b 	mov	r1, fp
    cab8:	e3a03000 	mov	r3, #0
    cabc:	e3a0200a 	mov	r2, #10
    cac0:	e1a00004 	mov	r0, r4
    cac4:	eb0006d2 	bl	e614 <__multadd>
    cac8:	e1560009 	cmp	r6, r9
    cacc:	e1a0b000 	mov	fp, r0
    cad0:	e1a01006 	mov	r1, r6
    cad4:	e3a03000 	mov	r3, #0
    cad8:	e3a0200a 	mov	r2, #10
    cadc:	e1a00004 	mov	r0, r4
    cae0:	0a0001cd 	beq	d21c <_dtoa_r+0x12dc>
    cae4:	eb0006ca 	bl	e614 <__multadd>
    cae8:	e1a01009 	mov	r1, r9
    caec:	e3a03000 	mov	r3, #0
    caf0:	e3a0200a 	mov	r2, #10
    caf4:	e1a06000 	mov	r6, r0
    caf8:	e1a00004 	mov	r0, r4
    cafc:	eb0006c4 	bl	e614 <__multadd>
    cb00:	e1a09000 	mov	r9, r0
    cb04:	eaffffc5 	b	ca20 <_dtoa_r+0xae0>
    cb08:	e59d201c 	ldr	r2, [sp, #28]
    cb0c:	e3520000 	cmp	r2, #0
    cb10:	c3a03000 	movgt	r3, #0
    cb14:	d3a03001 	movle	r3, #1
    cb18:	e59d109c 	ldr	r1, [sp, #156]	@ 0x9c
    cb1c:	e0133fa1 	ands	r3, r3, r1, lsr #31
    cb20:	e51f3858 	ldr	r3, [pc, #-2136]	@ c2d0 <_dtoa_r+0x390>
    cb24:	e59d102c 	ldr	r1, [sp, #44]	@ 0x2c
    cb28:	e0833181 	add	r3, r3, r1, lsl #3
    cb2c:	e8930600 	ldm	r3, {r9, sl}
    cb30:	0a000180 	beq	d138 <_dtoa_r+0x11f8>
    cb34:	e3520000 	cmp	r2, #0
    cb38:	1a00000b 	bne	cb6c <_dtoa_r+0xc2c>
    cb3c:	e3a02000 	mov	r2, #0
    cb40:	e51f3884 	ldr	r3, [pc, #-2180]	@ c2c4 <_dtoa_r+0x384>
    cb44:	e1a00009 	mov	r0, r9
    cb48:	e1a0100a 	mov	r1, sl
    cb4c:	eb0014f7 	bl	11f30 <__aeabi_dmul>
    cb50:	e1a02000 	mov	r2, r0
    cb54:	e1a03001 	mov	r3, r1
    cb58:	e28d1020 	add	r1, sp, #32
    cb5c:	e8910003 	ldm	r1, {r0, r1}
    cb60:	eb001658 	bl	124c8 <__aeabi_dcmple>
    cb64:	e3500000 	cmp	r0, #0
    cb68:	0a0001f9 	beq	d354 <_dtoa_r+0x1414>
    cb6c:	e3a07000 	mov	r7, #0
    cb70:	e1a06007 	mov	r6, r7
    cb74:	eaffff70 	b	c93c <_dtoa_r+0x9fc>
    cb78:	e1a01007 	mov	r1, r7
    cb7c:	e1a0000b 	mov	r0, fp
    cb80:	eb0008b5 	bl	ee5c <__mcmp>
    cb84:	e3500000 	cmp	r0, #0
    cb88:	aaffff62 	bge	c918 <_dtoa_r+0x9d8>
    cb8c:	e59d302c 	ldr	r3, [sp, #44]	@ 0x2c
    cb90:	e2433001 	sub	r3, r3, #1
    cb94:	e1a0100b 	mov	r1, fp
    cb98:	e58d302c 	str	r3, [sp, #44]	@ 0x2c
    cb9c:	e3a0200a 	mov	r2, #10
    cba0:	e3a03000 	mov	r3, #0
    cba4:	e1a00004 	mov	r0, r4
    cba8:	eb000699 	bl	e614 <__multadd>
    cbac:	e59d3030 	ldr	r3, [sp, #48]	@ 0x30
    cbb0:	e3530000 	cmp	r3, #0
    cbb4:	e1a0b000 	mov	fp, r0
    cbb8:	1a00024f 	bne	d4fc <_dtoa_r+0x15bc>
    cbbc:	e59d3054 	ldr	r3, [sp, #84]	@ 0x54
    cbc0:	e3530000 	cmp	r3, #0
    cbc4:	c3a05000 	movgt	r5, #0
    cbc8:	d2055001 	andle	r5, r5, #1
    cbcc:	e3550000 	cmp	r5, #0
    cbd0:	058d301c 	streq	r3, [sp, #28]
    cbd4:	0a0000ff 	beq	cfd8 <_dtoa_r+0x1098>
    cbd8:	e59d3054 	ldr	r3, [sp, #84]	@ 0x54
    cbdc:	e58d301c 	str	r3, [sp, #28]
    cbe0:	eaffff52 	b	c930 <_dtoa_r+0x9f0>
    cbe4:	e1a01000 	mov	r1, r0
    cbe8:	e1a02003 	mov	r2, r3
    cbec:	e1a00004 	mov	r0, r4
    cbf0:	eb0007fd 	bl	ebec <__pow5mult>
    cbf4:	e59d3098 	ldr	r3, [sp, #152]	@ 0x98
    cbf8:	e3530001 	cmp	r3, #1
    cbfc:	e1a07000 	mov	r7, r0
    cc00:	da00013f 	ble	d104 <_dtoa_r+0x11c4>
    cc04:	e3a03000 	mov	r3, #0
    cc08:	e58d3018 	str	r3, [sp, #24]
    cc0c:	e5973010 	ldr	r3, [r7, #16]
    cc10:	e0873103 	add	r3, r7, r3, lsl #2
    cc14:	e5930010 	ldr	r0, [r3, #16]
    cc18:	eb000702 	bl	e828 <__hi0bits>
    cc1c:	e2603020 	rsb	r3, r0, #32
    cc20:	eaffff1a 	b	c890 <_dtoa_r+0x950>
    cc24:	e28d3020 	add	r3, sp, #32
    cc28:	e893000c 	ldm	r3, {r2, r3}
    cc2c:	e3a08002 	mov	r8, #2
    cc30:	e58d2038 	str	r2, [sp, #56]	@ 0x38
    cc34:	e58d303c 	str	r3, [sp, #60]	@ 0x3c
    cc38:	eafffddf 	b	c3bc <_dtoa_r+0x47c>
    cc3c:	e59d3008 	ldr	r3, [sp, #8]
    cc40:	e3530000 	cmp	r3, #0
    cc44:	1affff10 	bne	c88c <_dtoa_r+0x94c>
    cc48:	e28d2008 	add	r2, sp, #8
    cc4c:	e8920006 	ldm	r2, {r1, r2}
    cc50:	e3c234ff 	bic	r3, r2, #-16777216	@ 0xff000000
    cc54:	e3c3360f 	bic	r3, r3, #15728640	@ 0xf00000
    cc58:	e3530000 	cmp	r3, #0
    cc5c:	1affff0a 	bne	c88c <_dtoa_r+0x94c>
    cc60:	e51f39a0 	ldr	r3, [pc, #-2464]	@ c2c8 <_dtoa_r+0x388>
    cc64:	e0033002 	and	r3, r3, r2
    cc68:	e3530000 	cmp	r3, #0
    cc6c:	159d3028 	ldrne	r3, [sp, #40]	@ 0x28
    cc70:	12833001 	addne	r3, r3, #1
    cc74:	158d3028 	strne	r3, [sp, #40]	@ 0x28
    cc78:	13a03001 	movne	r3, #1
    cc7c:	e59d2018 	ldr	r2, [sp, #24]
    cc80:	128aa001 	addne	sl, sl, #1
    cc84:	e3520000 	cmp	r2, #0
    cc88:	e58d3018 	str	r3, [sp, #24]
    cc8c:	0afffefe 	beq	c88c <_dtoa_r+0x94c>
    cc90:	eaffffdd 	b	cc0c <_dtoa_r+0xccc>
    cc94:	e3a03001 	mov	r3, #1
    cc98:	e58d3030 	str	r3, [sp, #48]	@ 0x30
    cc9c:	e59d309c 	ldr	r3, [sp, #156]	@ 0x9c
    cca0:	e59d202c 	ldr	r2, [sp, #44]	@ 0x2c
    cca4:	e0833002 	add	r3, r3, r2
    cca8:	e58d3054 	str	r3, [sp, #84]	@ 0x54
    ccac:	e2833001 	add	r3, r3, #1
    ccb0:	e3530001 	cmp	r3, #1
    ccb4:	a1a00003 	movge	r0, r3
    ccb8:	b3a00001 	movlt	r0, #1
    ccbc:	e58d301c 	str	r3, [sp, #28]
    ccc0:	e3500017 	cmp	r0, #23
    ccc4:	d3a01000 	movle	r1, #0
    ccc8:	d584103c 	strle	r1, [r4, #60]	@ 0x3c
    cccc:	dafffd99 	ble	c338 <_dtoa_r+0x3f8>
    ccd0:	e3a02001 	mov	r2, #1
    ccd4:	e3a03004 	mov	r3, #4
    ccd8:	e1a03083 	lsl	r3, r3, #1
    ccdc:	e2831014 	add	r1, r3, #20
    cce0:	e1510000 	cmp	r1, r0
    cce4:	e1a01002 	mov	r1, r2
    cce8:	e2822001 	add	r2, r2, #1
    ccec:	9afffff9 	bls	ccd8 <_dtoa_r+0xd98>
    ccf0:	e584103c 	str	r1, [r4, #60]	@ 0x3c
    ccf4:	eafffd8f 	b	c338 <_dtoa_r+0x3f8>
    ccf8:	e3a03001 	mov	r3, #1
    ccfc:	e58d3030 	str	r3, [sp, #48]	@ 0x30
    cd00:	e59d309c 	ldr	r3, [sp, #156]	@ 0x9c
    cd04:	e3530000 	cmp	r3, #0
    cd08:	da00015c 	ble	d280 <_dtoa_r+0x1340>
    cd0c:	e1a00003 	mov	r0, r3
    cd10:	e58d3054 	str	r3, [sp, #84]	@ 0x54
    cd14:	e58d301c 	str	r3, [sp, #28]
    cd18:	eaffffe8 	b	ccc0 <_dtoa_r+0xd80>
    cd1c:	e3a03000 	mov	r3, #0
    cd20:	e58d3030 	str	r3, [sp, #48]	@ 0x30
    cd24:	eaffffdc 	b	cc9c <_dtoa_r+0xd5c>
    cd28:	e3a03000 	mov	r3, #0
    cd2c:	e58d3030 	str	r3, [sp, #48]	@ 0x30
    cd30:	eafffff2 	b	cd00 <_dtoa_r+0xdc0>
    cd34:	e1a00008 	mov	r0, r8
    cd38:	e1a01009 	mov	r1, r9
    cd3c:	eb00147b 	bl	11f30 <__aeabi_dmul>
    cd40:	e59d3014 	ldr	r3, [sp, #20]
    cd44:	e5c35000 	strb	r5, [r3]
    cd48:	e59d3060 	ldr	r3, [sp, #96]	@ 0x60
    cd4c:	e3530001 	cmp	r3, #1
    cd50:	e58d0030 	str	r0, [sp, #48]	@ 0x30
    cd54:	e58d1034 	str	r1, [sp, #52]	@ 0x34
    cd58:	0a0001e5 	beq	d4f4 <_dtoa_r+0x15b4>
    cd5c:	e59d3014 	ldr	r3, [sp, #20]
    cd60:	e59d2060 	ldr	r2, [sp, #96]	@ 0x60
    cd64:	e59d8048 	ldr	r8, [sp, #72]	@ 0x48
    cd68:	e0835002 	add	r5, r3, r2
    cd6c:	e3a02000 	mov	r2, #0
    cd70:	e51f3aa4 	ldr	r3, [pc, #-2724]	@ c2d4 <_dtoa_r+0x394>
    cd74:	e1a00006 	mov	r0, r6
    cd78:	e1a01007 	mov	r1, r7
    cd7c:	eb00146b 	bl	11f30 <__aeabi_dmul>
    cd80:	e1a07001 	mov	r7, r1
    cd84:	e1a06000 	mov	r6, r0
    cd88:	eb0015ee 	bl	12548 <__aeabi_d2iz>
    cd8c:	e1a09000 	mov	r9, r0
    cd90:	eb00142d 	bl	11e4c <__aeabi_i2d>
    cd94:	e1a02000 	mov	r2, r0
    cd98:	e1a03001 	mov	r3, r1
    cd9c:	e1a00006 	mov	r0, r6
    cda0:	e1a01007 	mov	r1, r7
    cda4:	eb00135a 	bl	11b14 <__aeabi_dsub>
    cda8:	e2899030 	add	r9, r9, #48	@ 0x30
    cdac:	e4c89001 	strb	r9, [r8], #1
    cdb0:	e1550008 	cmp	r5, r8
    cdb4:	e1a06000 	mov	r6, r0
    cdb8:	e1a07001 	mov	r7, r1
    cdbc:	1affffea 	bne	cd6c <_dtoa_r+0xe2c>
    cdc0:	e28d9030 	add	r9, sp, #48	@ 0x30
    cdc4:	e8990300 	ldm	r9, {r8, r9}
    cdc8:	e3a02000 	mov	r2, #0
    cdcc:	e51f3b08 	ldr	r3, [pc, #-2824]	@ c2cc <_dtoa_r+0x38c>
    cdd0:	e1a00008 	mov	r0, r8
    cdd4:	e1a01009 	mov	r1, r9
    cdd8:	eb00134e 	bl	11b18 <__adddf3>
    cddc:	e1a02006 	mov	r2, r6
    cde0:	e1a03007 	mov	r3, r7
    cde4:	eb0015b1 	bl	124b0 <__aeabi_dcmplt>
    cde8:	e3500000 	cmp	r0, #0
    cdec:	1a000177 	bne	d3d0 <_dtoa_r+0x1490>
    cdf0:	e1a02008 	mov	r2, r8
    cdf4:	e1a03009 	mov	r3, r9
    cdf8:	e3a00000 	mov	r0, #0
    cdfc:	e51f1b38 	ldr	r1, [pc, #-2872]	@ c2cc <_dtoa_r+0x38c>
    ce00:	eb001343 	bl	11b14 <__aeabi_dsub>
    ce04:	e1a02006 	mov	r2, r6
    ce08:	e1a03007 	mov	r3, r7
    ce0c:	eb0015b9 	bl	124f8 <__aeabi_dcmpgt>
    ce10:	e3500000 	cmp	r0, #0
    ce14:	1a00006a 	bne	cfc4 <_dtoa_r+0x1084>
    ce18:	e59d306c 	ldr	r3, [sp, #108]	@ 0x6c
    ce1c:	e1e03003 	mvn	r3, r3
    ce20:	e59d202c 	ldr	r2, [sp, #44]	@ 0x2c
    ce24:	e352000e 	cmp	r2, #14
    ce28:	e1a03fa3 	lsr	r3, r3, #31
    ce2c:	c3a03000 	movgt	r3, #0
    ce30:	e3530000 	cmp	r3, #0
    ce34:	0afffe6d 	beq	c7f0 <_dtoa_r+0x8b0>
    ce38:	e51f3b70 	ldr	r3, [pc, #-2928]	@ c2d0 <_dtoa_r+0x390>
    ce3c:	e59d202c 	ldr	r2, [sp, #44]	@ 0x2c
    ce40:	e0833182 	add	r3, r3, r2, lsl #3
    ce44:	e59d8014 	ldr	r8, [sp, #20]
    ce48:	e8930600 	ldm	r3, {r9, sl}
    ce4c:	e28d7020 	add	r7, sp, #32
    ce50:	e89700c0 	ldm	r7, {r6, r7}
    ce54:	e1a02009 	mov	r2, r9
    ce58:	e1a0300a 	mov	r3, sl
    ce5c:	e1a00006 	mov	r0, r6
    ce60:	e1a01007 	mov	r1, r7
    ce64:	eb0014d5 	bl	121c0 <__aeabi_ddiv>
    ce68:	eb0015b6 	bl	12548 <__aeabi_d2iz>
    ce6c:	e1a05000 	mov	r5, r0
    ce70:	eb0013f5 	bl	11e4c <__aeabi_i2d>
    ce74:	e1a02009 	mov	r2, r9
    ce78:	e1a0300a 	mov	r3, sl
    ce7c:	eb00142b 	bl	11f30 <__aeabi_dmul>
    ce80:	e1a02000 	mov	r2, r0
    ce84:	e1a03001 	mov	r3, r1
    ce88:	e1a00006 	mov	r0, r6
    ce8c:	e1a01007 	mov	r1, r7
    ce90:	eb00131f 	bl	11b14 <__aeabi_dsub>
    ce94:	e59d301c 	ldr	r3, [sp, #28]
    ce98:	e59d2014 	ldr	r2, [sp, #20]
    ce9c:	e3530001 	cmp	r3, #1
    cea0:	e2853030 	add	r3, r5, #48	@ 0x30
    cea4:	e5c23000 	strb	r3, [r2]
    cea8:	e59d3048 	ldr	r3, [sp, #72]	@ 0x48
    ceac:	0a0001ae 	beq	d56c <_dtoa_r+0x162c>
    ceb0:	e2632001 	rsb	r2, r3, #1
    ceb4:	e58db008 	str	fp, [sp, #8]
    ceb8:	e58d8018 	str	r8, [sp, #24]
    cebc:	e59db01c 	ldr	fp, [sp, #28]
    cec0:	e1a08003 	mov	r8, r3
    cec4:	e58d401c 	str	r4, [sp, #28]
    cec8:	e1a04002 	mov	r4, r2
    cecc:	ea000014 	b	cf24 <_dtoa_r+0xfe4>
    ced0:	e1a02009 	mov	r2, r9
    ced4:	e1a0300a 	mov	r3, sl
    ced8:	e1a00006 	mov	r0, r6
    cedc:	e1a01007 	mov	r1, r7
    cee0:	eb0014b6 	bl	121c0 <__aeabi_ddiv>
    cee4:	eb001597 	bl	12548 <__aeabi_d2iz>
    cee8:	e1a05000 	mov	r5, r0
    ceec:	eb0013d6 	bl	11e4c <__aeabi_i2d>
    cef0:	e1a02009 	mov	r2, r9
    cef4:	e1a0300a 	mov	r3, sl
    cef8:	eb00140c 	bl	11f30 <__aeabi_dmul>
    cefc:	e1a03001 	mov	r3, r1
    cf00:	e1a02000 	mov	r2, r0
    cf04:	e1a01007 	mov	r1, r7
    cf08:	e1a00006 	mov	r0, r6
    cf0c:	eb001300 	bl	11b14 <__aeabi_dsub>
    cf10:	e2853030 	add	r3, r5, #48	@ 0x30
    cf14:	e4c83001 	strb	r3, [r8], #1
    cf18:	e0883004 	add	r3, r8, r4
    cf1c:	e153000b 	cmp	r3, fp
    cf20:	0a000147 	beq	d444 <_dtoa_r+0x1504>
    cf24:	e3a02000 	mov	r2, #0
    cf28:	e51f3c5c 	ldr	r3, [pc, #-3164]	@ c2d4 <_dtoa_r+0x394>
    cf2c:	eb0013ff 	bl	11f30 <__aeabi_dmul>
    cf30:	e3a02000 	mov	r2, #0
    cf34:	e3a03000 	mov	r3, #0
    cf38:	e1a06000 	mov	r6, r0
    cf3c:	e1a07001 	mov	r7, r1
    cf40:	eb001554 	bl	12498 <__aeabi_dcmpeq>
    cf44:	e3500000 	cmp	r0, #0
    cf48:	0affffe0 	beq	ced0 <_dtoa_r+0xf90>
    cf4c:	e58d8014 	str	r8, [sp, #20]
    cf50:	e59db008 	ldr	fp, [sp, #8]
    cf54:	e59d8018 	ldr	r8, [sp, #24]
    cf58:	e59d401c 	ldr	r4, [sp, #28]
    cf5c:	e59d302c 	ldr	r3, [sp, #44]	@ 0x2c
    cf60:	e58d3038 	str	r3, [sp, #56]	@ 0x38
    cf64:	eafffe80 	b	c96c <_dtoa_r+0xa2c>
    cf68:	1263303c 	rsbne	r3, r3, #60	@ 0x3c
    cf6c:	0afffe53 	beq	c8c0 <_dtoa_r+0x980>
    cf70:	eafffe4d 	b	c8ac <_dtoa_r+0x96c>
    cf74:	e1a01007 	mov	r1, r7
    cf78:	e3a02005 	mov	r2, #5
    cf7c:	e1a00004 	mov	r0, r4
    cf80:	eb0005a3 	bl	e614 <__multadd>
    cf84:	e1a07000 	mov	r7, r0
    cf88:	e1a0000b 	mov	r0, fp
    cf8c:	e1a01007 	mov	r1, r7
    cf90:	eb0007b1 	bl	ee5c <__mcmp>
    cf94:	e3500000 	cmp	r0, #0
    cf98:	dafffe67 	ble	c93c <_dtoa_r+0x9fc>
    cf9c:	e59d8014 	ldr	r8, [sp, #20]
    cfa0:	e59d3014 	ldr	r3, [sp, #20]
    cfa4:	e2833001 	add	r3, r3, #1
    cfa8:	e58d3014 	str	r3, [sp, #20]
    cfac:	e59d302c 	ldr	r3, [sp, #44]	@ 0x2c
    cfb0:	e2833001 	add	r3, r3, #1
    cfb4:	e58d3038 	str	r3, [sp, #56]	@ 0x38
    cfb8:	e3a03031 	mov	r3, #49	@ 0x31
    cfbc:	e5c83000 	strb	r3, [r8]
    cfc0:	eafffe61 	b	c94c <_dtoa_r+0xa0c>
    cfc4:	e1a02005 	mov	r2, r5
    cfc8:	e5753001 	ldrb	r3, [r5, #-1]!
    cfcc:	e3530030 	cmp	r3, #48	@ 0x30
    cfd0:	0afffffb 	beq	cfc4 <_dtoa_r+0x1084>
    cfd4:	eafffd9b 	b	c648 <_dtoa_r+0x708>
    cfd8:	e3a05001 	mov	r5, #1
    cfdc:	e59d8014 	ldr	r8, [sp, #20]
    cfe0:	e59d901c 	ldr	r9, [sp, #28]
    cfe4:	ea000006 	b	d004 <_dtoa_r+0x10c4>
    cfe8:	e1a0100b 	mov	r1, fp
    cfec:	e3a03000 	mov	r3, #0
    cff0:	e3a0200a 	mov	r2, #10
    cff4:	e1a00004 	mov	r0, r4
    cff8:	eb000585 	bl	e614 <__multadd>
    cffc:	e1a0b000 	mov	fp, r0
    d000:	e2855001 	add	r5, r5, #1
    d004:	e1a01007 	mov	r1, r7
    d008:	e1a0000b 	mov	r0, fp
    d00c:	ebfffb55 	bl	bd68 <quorem>
    d010:	e1550009 	cmp	r5, r9
    d014:	e2803030 	add	r3, r0, #48	@ 0x30
    d018:	e4c83001 	strb	r3, [r8], #1
    d01c:	bafffff1 	blt	cfe8 <_dtoa_r+0x10a8>
    d020:	e59d201c 	ldr	r2, [sp, #28]
    d024:	e3520000 	cmp	r2, #0
    d028:	c1a05002 	movgt	r5, r2
    d02c:	d3a05001 	movle	r5, #1
    d030:	e3a08000 	mov	r8, #0
    d034:	e59d2014 	ldr	r2, [sp, #20]
    d038:	e0825005 	add	r5, r2, r5
    d03c:	e1a0100b 	mov	r1, fp
    d040:	e3a02001 	mov	r2, #1
    d044:	e1a00004 	mov	r0, r4
    d048:	e58d3008 	str	r3, [sp, #8]
    d04c:	eb000731 	bl	ed18 <__lshift>
    d050:	e1a01007 	mov	r1, r7
    d054:	e1a0b000 	mov	fp, r0
    d058:	eb00077f 	bl	ee5c <__mcmp>
    d05c:	e3500000 	cmp	r0, #0
    d060:	da0000c2 	ble	d370 <_dtoa_r+0x1430>
    d064:	e59d2014 	ldr	r2, [sp, #20]
    d068:	ea000001 	b	d074 <_dtoa_r+0x1134>
    d06c:	e1550002 	cmp	r5, r2
    d070:	0a0000ca 	beq	d3a0 <_dtoa_r+0x1460>
    d074:	e5553001 	ldrb	r3, [r5, #-1]
    d078:	e3530039 	cmp	r3, #57	@ 0x39
    d07c:	e1a0a005 	mov	sl, r5
    d080:	e2455001 	sub	r5, r5, #1
    d084:	0afffff8 	beq	d06c <_dtoa_r+0x112c>
    d088:	e2833001 	add	r3, r3, #1
    d08c:	e5c53000 	strb	r3, [r5]
    d090:	e59d302c 	ldr	r3, [sp, #44]	@ 0x2c
    d094:	e58d3038 	str	r3, [sp, #56]	@ 0x38
    d098:	e1a01007 	mov	r1, r7
    d09c:	e1a00004 	mov	r0, r4
    d0a0:	eb000554 	bl	e5f8 <_Bfree>
    d0a4:	e3560000 	cmp	r6, #0
    d0a8:	0a0000ad 	beq	d364 <_dtoa_r+0x1424>
    d0ac:	e3580000 	cmp	r8, #0
    d0b0:	11580006 	cmpne	r8, r6
    d0b4:	11a01008 	movne	r1, r8
    d0b8:	11a00004 	movne	r0, r4
    d0bc:	1b00054d 	blne	e5f8 <_Bfree>
    d0c0:	e59d8014 	ldr	r8, [sp, #20]
    d0c4:	e58da014 	str	sl, [sp, #20]
    d0c8:	eafffe24 	b	c960 <_dtoa_r+0xa20>
    d0cc:	e28d3020 	add	r3, sp, #32
    d0d0:	e893000c 	ldm	r3, {r2, r3}
    d0d4:	e3a08002 	mov	r8, #2
    d0d8:	e58d2048 	str	r2, [sp, #72]	@ 0x48
    d0dc:	e58d304c 	str	r3, [sp, #76]	@ 0x4c
    d0e0:	eafffccb 	b	c414 <_dtoa_r+0x4d4>
    d0e4:	e3510000 	cmp	r1, #0
    d0e8:	e0405003 	sub	r5, r0, r3
    d0ec:	a1a03001 	movge	r3, r1
    d0f0:	aafffd8f 	bge	c734 <_dtoa_r+0x7f4>
    d0f4:	e59d3028 	ldr	r3, [sp, #40]	@ 0x28
    d0f8:	e59d201c 	ldr	r2, [sp, #28]
    d0fc:	e0438002 	sub	r8, r3, r2
    d100:	eafffd90 	b	c748 <_dtoa_r+0x808>
    d104:	e59d3008 	ldr	r3, [sp, #8]
    d108:	e3530000 	cmp	r3, #0
    d10c:	1afffebc 	bne	cc04 <_dtoa_r+0xcc4>
    d110:	e28d1008 	add	r1, sp, #8
    d114:	e8910003 	ldm	r1, {r0, r1}
    d118:	e3c134ff 	bic	r3, r1, #-16777216	@ 0xff000000
    d11c:	e3c3360f 	bic	r3, r3, #15728640	@ 0xf00000
    d120:	e3530000 	cmp	r3, #0
    d124:	11a03000 	movne	r3, r0
    d128:	e1a02001 	mov	r2, r1
    d12c:	158d3018 	strne	r3, [sp, #24]
    d130:	1afffeb5 	bne	cc0c <_dtoa_r+0xccc>
    d134:	eafffec9 	b	cc60 <_dtoa_r+0xd20>
    d138:	e59d3014 	ldr	r3, [sp, #20]
    d13c:	e1a08003 	mov	r8, r3
    d140:	e2833001 	add	r3, r3, #1
    d144:	e58d3048 	str	r3, [sp, #72]	@ 0x48
    d148:	eaffff3f 	b	ce4c <_dtoa_r+0xf0c>
    d14c:	e1a01006 	mov	r1, r6
    d150:	e1a02005 	mov	r2, r5
    d154:	e1a00004 	mov	r0, r4
    d158:	eb0006a3 	bl	ebec <__pow5mult>
    d15c:	e1a06000 	mov	r6, r0
    d160:	e1a0200b 	mov	r2, fp
    d164:	e1a01006 	mov	r1, r6
    d168:	e1a00004 	mov	r0, r4
    d16c:	eb000618 	bl	e9d4 <__multiply>
    d170:	e1a0100b 	mov	r1, fp
    d174:	e1a0b000 	mov	fp, r0
    d178:	e1a00004 	mov	r0, r4
    d17c:	eb00051d 	bl	e5f8 <_Bfree>
    d180:	e59d3040 	ldr	r3, [sp, #64]	@ 0x40
    d184:	e0533005 	subs	r3, r3, r5
    d188:	e58d3040 	str	r3, [sp, #64]	@ 0x40
    d18c:	0afffdb4 	beq	c864 <_dtoa_r+0x924>
    d190:	eafffdae 	b	c850 <_dtoa_r+0x910>
    d194:	e1a00004 	mov	r0, r4
    d198:	e58d701c 	str	r7, [sp, #28]
    d19c:	e59d7018 	ldr	r7, [sp, #24]
    d1a0:	eb000514 	bl	e5f8 <_Bfree>
    d1a4:	e3580000 	cmp	r8, #0
    d1a8:	e59d301c 	ldr	r3, [sp, #28]
    d1ac:	ba000005 	blt	d1c8 <_dtoa_r+0x1288>
    d1b0:	e59d2008 	ldr	r2, [sp, #8]
    d1b4:	e59d1098 	ldr	r1, [sp, #152]	@ 0x98
    d1b8:	e2022001 	and	r2, r2, #1
    d1bc:	e1818008 	orr	r8, r1, r8
    d1c0:	e1922008 	orrs	r2, r2, r8
    d1c4:	1a000023 	bne	d258 <_dtoa_r+0x1318>
    d1c8:	e1a0100b 	mov	r1, fp
    d1cc:	e3a02001 	mov	r2, #1
    d1d0:	e1a00004 	mov	r0, r4
    d1d4:	e58d3008 	str	r3, [sp, #8]
    d1d8:	eb0006ce 	bl	ed18 <__lshift>
    d1dc:	e1a01007 	mov	r1, r7
    d1e0:	e1a0b000 	mov	fp, r0
    d1e4:	eb00071c 	bl	ee5c <__mcmp>
    d1e8:	e3500000 	cmp	r0, #0
    d1ec:	e59d3008 	ldr	r3, [sp, #8]
    d1f0:	da0000cf 	ble	d534 <_dtoa_r+0x15f4>
    d1f4:	e3530039 	cmp	r3, #57	@ 0x39
    d1f8:	0a00001a 	beq	d268 <_dtoa_r+0x1328>
    d1fc:	e28a3031 	add	r3, sl, #49	@ 0x31
    d200:	e1a0a005 	mov	sl, r5
    d204:	e59d202c 	ldr	r2, [sp, #44]	@ 0x2c
    d208:	e1a08006 	mov	r8, r6
    d20c:	e58d2038 	str	r2, [sp, #56]	@ 0x38
    d210:	e1a06009 	mov	r6, r9
    d214:	e4ca3001 	strb	r3, [sl], #1
    d218:	eaffff9e 	b	d098 <_dtoa_r+0x1158>
    d21c:	eb0004fc 	bl	e614 <__multadd>
    d220:	e1a06000 	mov	r6, r0
    d224:	e1a09000 	mov	r9, r0
    d228:	eafffdfc 	b	ca20 <_dtoa_r+0xae0>
    d22c:	e3580000 	cmp	r8, #0
    d230:	ba0000cf 	blt	d574 <_dtoa_r+0x1634>
    d234:	e59d3098 	ldr	r3, [sp, #152]	@ 0x98
    d238:	e1838008 	orr	r8, r3, r8
    d23c:	e59d3028 	ldr	r3, [sp, #40]	@ 0x28
    d240:	e1938008 	orrs	r8, r3, r8
    d244:	0a0000ca 	beq	d574 <_dtoa_r+0x1634>
    d248:	e3520000 	cmp	r2, #0
    d24c:	dafffe14 	ble	caa4 <_dtoa_r+0xb64>
    d250:	e1a03007 	mov	r3, r7
    d254:	e59d7018 	ldr	r7, [sp, #24]
    d258:	e3530039 	cmp	r3, #57	@ 0x39
    d25c:	11a0a005 	movne	sl, r5
    d260:	12833001 	addne	r3, r3, #1
    d264:	1affffe6 	bne	d204 <_dtoa_r+0x12c4>
    d268:	e3a03039 	mov	r3, #57	@ 0x39
    d26c:	e1a08006 	mov	r8, r6
    d270:	e4c53001 	strb	r3, [r5], #1
    d274:	e1a06009 	mov	r6, r9
    d278:	e59d2014 	ldr	r2, [sp, #20]
    d27c:	eaffff7c 	b	d074 <_dtoa_r+0x1134>
    d280:	e3a03001 	mov	r3, #1
    d284:	e58d309c 	str	r3, [sp, #156]	@ 0x9c
    d288:	e58d301c 	str	r3, [sp, #28]
    d28c:	eafffc25 	b	c328 <_dtoa_r+0x3e8>
    d290:	e2683001 	rsb	r3, r8, #1
    d294:	e1a0a000 	mov	sl, r0
    d298:	e58d3028 	str	r3, [sp, #40]	@ 0x28
    d29c:	e58d0044 	str	r0, [sp, #68]	@ 0x44
    d2a0:	eafffc10 	b	c2e8 <_dtoa_r+0x3a8>
    d2a4:	e59d301c 	ldr	r3, [sp, #28]
    d2a8:	e3530000 	cmp	r3, #0
    d2ac:	0afffce8 	beq	c654 <_dtoa_r+0x714>
    d2b0:	e59d9054 	ldr	r9, [sp, #84]	@ 0x54
    d2b4:	e3590000 	cmp	r9, #0
    d2b8:	dafffd02 	ble	c6c8 <_dtoa_r+0x788>
    d2bc:	e59d302c 	ldr	r3, [sp, #44]	@ 0x2c
    d2c0:	e2433001 	sub	r3, r3, #1
    d2c4:	e1a00005 	mov	r0, r5
    d2c8:	e1a01006 	mov	r1, r6
    d2cc:	e3a02000 	mov	r2, #0
    d2d0:	e58d3038 	str	r3, [sp, #56]	@ 0x38
    d2d4:	e59f3318 	ldr	r3, [pc, #792]	@ d5f4 <_dtoa_r+0x16b4>
    d2d8:	eb001314 	bl	11f30 <__aeabi_dmul>
    d2dc:	e1a02000 	mov	r2, r0
    d2e0:	e1a06001 	mov	r6, r1
    d2e4:	e1a05002 	mov	r5, r2
    d2e8:	e2880001 	add	r0, r8, #1
    d2ec:	e58d5048 	str	r5, [sp, #72]	@ 0x48
    d2f0:	e58d604c 	str	r6, [sp, #76]	@ 0x4c
    d2f4:	eb0012d4 	bl	11e4c <__aeabi_i2d>
    d2f8:	e1a03006 	mov	r3, r6
    d2fc:	e1a02005 	mov	r2, r5
    d300:	eb00130a 	bl	11f30 <__aeabi_dmul>
    d304:	e3a02000 	mov	r2, #0
    d308:	e59f32e8 	ldr	r3, [pc, #744]	@ d5f8 <_dtoa_r+0x16b8>
    d30c:	eb001201 	bl	11b18 <__adddf3>
    d310:	e58d9060 	str	r9, [sp, #96]	@ 0x60
    d314:	e1a06000 	mov	r6, r0
    d318:	e241750d 	sub	r7, r1, #54525952	@ 0x3400000
    d31c:	eafffc59 	b	c488 <_dtoa_r+0x548>
    d320:	e59d2050 	ldr	r2, [sp, #80]	@ 0x50
    d324:	e3520000 	cmp	r2, #0
    d328:	059d3068 	ldreq	r3, [sp, #104]	@ 0x68
    d32c:	e59d2028 	ldr	r2, [sp, #40]	@ 0x28
    d330:	12833e43 	addne	r3, r3, #1072	@ 0x430
    d334:	12833003 	addne	r3, r3, #3
    d338:	02633036 	rsbeq	r3, r3, #54	@ 0x36
    d33c:	e08aa003 	add	sl, sl, r3
    d340:	e0823003 	add	r3, r2, r3
    d344:	e1a08002 	mov	r8, r2
    d348:	e58d3028 	str	r3, [sp, #40]	@ 0x28
    d34c:	e59d5040 	ldr	r5, [sp, #64]	@ 0x40
    d350:	eafffcfc 	b	c748 <_dtoa_r+0x808>
    d354:	e3a07000 	mov	r7, #0
    d358:	e59d8014 	ldr	r8, [sp, #20]
    d35c:	e1a06007 	mov	r6, r7
    d360:	eaffff0e 	b	cfa0 <_dtoa_r+0x1060>
    d364:	e59d8014 	ldr	r8, [sp, #20]
    d368:	e58da014 	str	sl, [sp, #20]
    d36c:	eafffd7e 	b	c96c <_dtoa_r+0xa2c>
    d370:	1a000002 	bne	d380 <_dtoa_r+0x1440>
    d374:	e59d3008 	ldr	r3, [sp, #8]
    d378:	e3130001 	tst	r3, #1
    d37c:	1affff38 	bne	d064 <_dtoa_r+0x1124>
    d380:	e5553001 	ldrb	r3, [r5, #-1]
    d384:	e3530030 	cmp	r3, #48	@ 0x30
    d388:	e1a0a005 	mov	sl, r5
    d38c:	e2455001 	sub	r5, r5, #1
    d390:	0afffffa 	beq	d380 <_dtoa_r+0x1440>
    d394:	e59d302c 	ldr	r3, [sp, #44]	@ 0x2c
    d398:	e58d3038 	str	r3, [sp, #56]	@ 0x38
    d39c:	eaffff3d 	b	d098 <_dtoa_r+0x1158>
    d3a0:	e59d302c 	ldr	r3, [sp, #44]	@ 0x2c
    d3a4:	e2833001 	add	r3, r3, #1
    d3a8:	e58d3038 	str	r3, [sp, #56]	@ 0x38
    d3ac:	e3a03031 	mov	r3, #49	@ 0x31
    d3b0:	e59d2014 	ldr	r2, [sp, #20]
    d3b4:	e5c23000 	strb	r3, [r2]
    d3b8:	eaffff36 	b	d098 <_dtoa_r+0x1158>
    d3bc:	e59d3038 	ldr	r3, [sp, #56]	@ 0x38
    d3c0:	e2833001 	add	r3, r3, #1
    d3c4:	e58d3038 	str	r3, [sp, #56]	@ 0x38
    d3c8:	e3a03031 	mov	r3, #49	@ 0x31
    d3cc:	eafffc9c 	b	c644 <_dtoa_r+0x704>
    d3d0:	e59d1014 	ldr	r1, [sp, #20]
    d3d4:	eafffc94 	b	c62c <_dtoa_r+0x6ec>
    d3d8:	e1a00004 	mov	r0, r4
    d3dc:	e5961004 	ldr	r1, [r6, #4]
    d3e0:	eb000461 	bl	e56c <_Balloc>
    d3e4:	e2505000 	subs	r5, r0, #0
    d3e8:	0a000066 	beq	d588 <_dtoa_r+0x1648>
    d3ec:	e5962010 	ldr	r2, [r6, #16]
    d3f0:	e2822002 	add	r2, r2, #2
    d3f4:	e1a02102 	lsl	r2, r2, #2
    d3f8:	e286100c 	add	r1, r6, #12
    d3fc:	e285000c 	add	r0, r5, #12
    d400:	ebfffa12 	bl	bc50 <memcpy>
    d404:	e3a02001 	mov	r2, #1
    d408:	e1a01005 	mov	r1, r5
    d40c:	e1a00004 	mov	r0, r4
    d410:	eb000640 	bl	ed18 <__lshift>
    d414:	e1a09000 	mov	r9, r0
    d418:	eafffd76 	b	c9f8 <_dtoa_r+0xab8>
    d41c:	e59da064 	ldr	sl, [sp, #100]	@ 0x64
    d420:	e59db058 	ldr	fp, [sp, #88]	@ 0x58
    d424:	e59d4060 	ldr	r4, [sp, #96]	@ 0x60
    d428:	eafffca6 	b	c6c8 <_dtoa_r+0x788>
    d42c:	e59d8014 	ldr	r8, [sp, #20]
    d430:	e59db058 	ldr	fp, [sp, #88]	@ 0x58
    d434:	e58da048 	str	sl, [sp, #72]	@ 0x48
    d438:	e59d4060 	ldr	r4, [sp, #96]	@ 0x60
    d43c:	e58da014 	str	sl, [sp, #20]
    d440:	eafffd49 	b	c96c <_dtoa_r+0xa2c>
    d444:	e58d8014 	str	r8, [sp, #20]
    d448:	e59db008 	ldr	fp, [sp, #8]
    d44c:	e59d8018 	ldr	r8, [sp, #24]
    d450:	e59d401c 	ldr	r4, [sp, #28]
    d454:	e1a02000 	mov	r2, r0
    d458:	e1a03001 	mov	r3, r1
    d45c:	eb0011ad 	bl	11b18 <__adddf3>
    d460:	e1a02009 	mov	r2, r9
    d464:	e1a0300a 	mov	r3, sl
    d468:	e1a06000 	mov	r6, r0
    d46c:	e1a07001 	mov	r7, r1
    d470:	eb001420 	bl	124f8 <__aeabi_dcmpgt>
    d474:	e3500000 	cmp	r0, #0
    d478:	1a000008 	bne	d4a0 <_dtoa_r+0x1560>
    d47c:	e1a02009 	mov	r2, r9
    d480:	e1a0300a 	mov	r3, sl
    d484:	e1a00006 	mov	r0, r6
    d488:	e1a01007 	mov	r1, r7
    d48c:	eb001401 	bl	12498 <__aeabi_dcmpeq>
    d490:	e3500000 	cmp	r0, #0
    d494:	0afffeb0 	beq	cf5c <_dtoa_r+0x101c>
    d498:	e3150001 	tst	r5, #1
    d49c:	0afffeae 	beq	cf5c <_dtoa_r+0x101c>
    d4a0:	e59d302c 	ldr	r3, [sp, #44]	@ 0x2c
    d4a4:	e59d5014 	ldr	r5, [sp, #20]
    d4a8:	e1a01008 	mov	r1, r8
    d4ac:	e58d3038 	str	r3, [sp, #56]	@ 0x38
    d4b0:	e58d8014 	str	r8, [sp, #20]
    d4b4:	eafffc5c 	b	c62c <_dtoa_r+0x6ec>
    d4b8:	e1a03007 	mov	r3, r7
    d4bc:	e1a08006 	mov	r8, r6
    d4c0:	e59d7018 	ldr	r7, [sp, #24]
    d4c4:	e1a06009 	mov	r6, r9
    d4c8:	eafffedb 	b	d03c <_dtoa_r+0x10fc>
    d4cc:	e1a03007 	mov	r3, r7
    d4d0:	e59d7018 	ldr	r7, [sp, #24]
    d4d4:	eaffff49 	b	d200 <_dtoa_r+0x12c0>
    d4d8:	e1a03007 	mov	r3, r7
    d4dc:	e3530039 	cmp	r3, #57	@ 0x39
    d4e0:	e59d7018 	ldr	r7, [sp, #24]
    d4e4:	0affff5f 	beq	d268 <_dtoa_r+0x1328>
    d4e8:	e3580000 	cmp	r8, #0
    d4ec:	caffff42 	bgt	d1fc <_dtoa_r+0x12bc>
    d4f0:	eaffff42 	b	d200 <_dtoa_r+0x12c0>
    d4f4:	e59d5048 	ldr	r5, [sp, #72]	@ 0x48
    d4f8:	eafffe30 	b	cdc0 <_dtoa_r+0xe80>
    d4fc:	e1a01006 	mov	r1, r6
    d500:	e3a03000 	mov	r3, #0
    d504:	e3a0200a 	mov	r2, #10
    d508:	e1a00004 	mov	r0, r4
    d50c:	eb000440 	bl	e614 <__multadd>
    d510:	e59d3054 	ldr	r3, [sp, #84]	@ 0x54
    d514:	e3530000 	cmp	r3, #0
    d518:	c3a05000 	movgt	r5, #0
    d51c:	d2055001 	andle	r5, r5, #1
    d520:	e3550000 	cmp	r5, #0
    d524:	e1a06000 	mov	r6, r0
    d528:	058d301c 	streq	r3, [sp, #28]
    d52c:	0afffd26 	beq	c9cc <_dtoa_r+0xa8c>
    d530:	eafffda8 	b	cbd8 <_dtoa_r+0xc98>
    d534:	1affff31 	bne	d200 <_dtoa_r+0x12c0>
    d538:	e3130001 	tst	r3, #1
    d53c:	1affff2c 	bne	d1f4 <_dtoa_r+0x12b4>
    d540:	eaffff2e 	b	d200 <_dtoa_r+0x12c0>
    d544:	e28d3038 	add	r3, sp, #56	@ 0x38
    d548:	e893000c 	ldm	r3, {r2, r3}
    d54c:	e3a08002 	mov	r8, #2
    d550:	e58d2048 	str	r2, [sp, #72]	@ 0x48
    d554:	e58d304c 	str	r3, [sp, #76]	@ 0x4c
    d558:	eafffbad 	b	c414 <_dtoa_r+0x4d4>
    d55c:	e59d3048 	ldr	r3, [sp, #72]	@ 0x48
    d560:	e59d8014 	ldr	r8, [sp, #20]
    d564:	e58d3014 	str	r3, [sp, #20]
    d568:	eafffcff 	b	c96c <_dtoa_r+0xa2c>
    d56c:	e58d3014 	str	r3, [sp, #20]
    d570:	eaffffb7 	b	d454 <_dtoa_r+0x1514>
    d574:	e3520000 	cmp	r2, #0
    d578:	e1a03007 	mov	r3, r7
    d57c:	e59d7018 	ldr	r7, [sp, #24]
    d580:	caffff10 	bgt	d1c8 <_dtoa_r+0x1288>
    d584:	eaffff1d 	b	d200 <_dtoa_r+0x12c0>
    d588:	e1a02005 	mov	r2, r5
    d58c:	e59f3068 	ldr	r3, [pc, #104]	@ d5fc <_dtoa_r+0x16bc>
    d590:	e59f1068 	ldr	r1, [pc, #104]	@ d600 <_dtoa_r+0x16c0>
    d594:	e59f0068 	ldr	r0, [pc, #104]	@ d604 <_dtoa_r+0x16c4>
    d598:	eb0003d9 	bl	e504 <__assert_func>
    d59c:	e3a05000 	mov	r5, #0
    d5a0:	e1a00004 	mov	r0, r4
    d5a4:	e1a01005 	mov	r1, r5
    d5a8:	e584503c 	str	r5, [r4, #60]	@ 0x3c
    d5ac:	eb0003ee 	bl	e56c <_Balloc>
    d5b0:	e2503000 	subs	r3, r0, #0
    d5b4:	e58d3014 	str	r3, [sp, #20]
    d5b8:	1a000004 	bne	d5d0 <_dtoa_r+0x1690>
    d5bc:	e3a02000 	mov	r2, #0
    d5c0:	e59f3034 	ldr	r3, [pc, #52]	@ d5fc <_dtoa_r+0x16bc>
    d5c4:	e59f103c 	ldr	r1, [pc, #60]	@ d608 <_dtoa_r+0x16c8>
    d5c8:	e59f0034 	ldr	r0, [pc, #52]	@ d604 <_dtoa_r+0x16c4>
    d5cc:	eb0003cc 	bl	e504 <__assert_func>
    d5d0:	e59d3014 	ldr	r3, [sp, #20]
    d5d4:	e3a02001 	mov	r2, #1
    d5d8:	e5843038 	str	r3, [r4, #56]	@ 0x38
    d5dc:	e3e03000 	mvn	r3, #0
    d5e0:	e58d509c 	str	r5, [sp, #156]	@ 0x9c
    d5e4:	e58d3054 	str	r3, [sp, #84]	@ 0x54
    d5e8:	e58d2030 	str	r2, [sp, #48]	@ 0x30
    d5ec:	e58d301c 	str	r3, [sp, #28]
    d5f0:	eafffc34 	b	c6c8 <_dtoa_r+0x788>
    d5f4:	40240000 	.word	0x40240000
    d5f8:	401c0000 	.word	0x401c0000
    d5fc:	000128bc 	.word	0x000128bc
    d600:	000002ef 	.word	0x000002ef
    d604:	000128d0 	.word	0x000128d0
    d608:	000001af 	.word	0x000001af

0000d60c <__swsetup_r>:
    d60c:	e59f3144 	ldr	r3, [pc, #324]	@ d758 <__swsetup_r+0x14c>
    d610:	e5933000 	ldr	r3, [r3]
    d614:	e3530000 	cmp	r3, #0
    d618:	e92d4070 	push	{r4, r5, r6, lr}
    d61c:	e1a05000 	mov	r5, r0
    d620:	e1a04001 	mov	r4, r1
    d624:	0a000002 	beq	d634 <__swsetup_r+0x28>
    d628:	e5932034 	ldr	r2, [r3, #52]	@ 0x34
    d62c:	e3520000 	cmp	r2, #0
    d630:	0a000045 	beq	d74c <__swsetup_r+0x140>
    d634:	e1d430fc 	ldrsh	r3, [r4, #12]
    d638:	e3130008 	tst	r3, #8
    d63c:	0a00001b 	beq	d6b0 <__swsetup_r+0xa4>
    d640:	e5942010 	ldr	r2, [r4, #16]
    d644:	e3520000 	cmp	r2, #0
    d648:	0a000025 	beq	d6e4 <__swsetup_r+0xd8>
    d64c:	e2131001 	ands	r1, r3, #1
    d650:	1a000007 	bne	d674 <__swsetup_r+0x68>
    d654:	e3130002 	tst	r3, #2
    d658:	05941014 	ldreq	r1, [r4, #20]
    d65c:	e3520000 	cmp	r2, #0
    d660:	13a00000 	movne	r0, #0
    d664:	e5841008 	str	r1, [r4, #8]
    d668:	0a000009 	beq	d694 <__swsetup_r+0x88>
    d66c:	e8bd4070 	pop	{r4, r5, r6, lr}
    d670:	e12fff1e 	bx	lr
    d674:	e3a00000 	mov	r0, #0
    d678:	e5941014 	ldr	r1, [r4, #20]
    d67c:	e3520000 	cmp	r2, #0
    d680:	e2611000 	rsb	r1, r1, #0
    d684:	e5840008 	str	r0, [r4, #8]
    d688:	e5841018 	str	r1, [r4, #24]
    d68c:	13a00000 	movne	r0, #0
    d690:	1afffff5 	bne	d66c <__swsetup_r+0x60>
    d694:	e3130080 	tst	r3, #128	@ 0x80
    d698:	01a00002 	moveq	r0, r2
    d69c:	0afffff2 	beq	d66c <__swsetup_r+0x60>
    d6a0:	e3833040 	orr	r3, r3, #64	@ 0x40
    d6a4:	e1c430bc 	strh	r3, [r4, #12]
    d6a8:	e3e00000 	mvn	r0, #0
    d6ac:	eaffffee 	b	d66c <__swsetup_r+0x60>
    d6b0:	e3130010 	tst	r3, #16
    d6b4:	03a02009 	moveq	r2, #9
    d6b8:	03833040 	orreq	r3, r3, #64	@ 0x40
    d6bc:	05852000 	streq	r2, [r5]
    d6c0:	01c430bc 	strheq	r3, [r4, #12]
    d6c4:	0afffff7 	beq	d6a8 <__swsetup_r+0x9c>
    d6c8:	e3130004 	tst	r3, #4
    d6cc:	1a00000d 	bne	d708 <__swsetup_r+0xfc>
    d6d0:	e5942010 	ldr	r2, [r4, #16]
    d6d4:	e3833008 	orr	r3, r3, #8
    d6d8:	e3520000 	cmp	r2, #0
    d6dc:	e1c430bc 	strh	r3, [r4, #12]
    d6e0:	1affffd9 	bne	d64c <__swsetup_r+0x40>
    d6e4:	e2031d0a 	and	r1, r3, #640	@ 0x280
    d6e8:	e3510c02 	cmp	r1, #512	@ 0x200
    d6ec:	0affffd6 	beq	d64c <__swsetup_r+0x40>
    d6f0:	e1a01004 	mov	r1, r4
    d6f4:	e1a00005 	mov	r0, r5
    d6f8:	eb0007a9 	bl	f5a4 <__smakebuf_r>
    d6fc:	e1d430fc 	ldrsh	r3, [r4, #12]
    d700:	e5942010 	ldr	r2, [r4, #16]
    d704:	eaffffd0 	b	d64c <__swsetup_r+0x40>
    d708:	e5941030 	ldr	r1, [r4, #48]	@ 0x30
    d70c:	e3510000 	cmp	r1, #0
    d710:	0a000007 	beq	d734 <__swsetup_r+0x128>
    d714:	e2842040 	add	r2, r4, #64	@ 0x40
    d718:	e1510002 	cmp	r1, r2
    d71c:	0a000002 	beq	d72c <__swsetup_r+0x120>
    d720:	e1a00005 	mov	r0, r5
    d724:	eb000051 	bl	d870 <_free_r>
    d728:	e1d430fc 	ldrsh	r3, [r4, #12]
    d72c:	e3a02000 	mov	r2, #0
    d730:	e5842030 	str	r2, [r4, #48]	@ 0x30
    d734:	e3a01000 	mov	r1, #0
    d738:	e5942010 	ldr	r2, [r4, #16]
    d73c:	e5841004 	str	r1, [r4, #4]
    d740:	e5842000 	str	r2, [r4]
    d744:	e3c33024 	bic	r3, r3, #36	@ 0x24
    d748:	eaffffe1 	b	d6d4 <__swsetup_r+0xc8>
    d74c:	e1a00003 	mov	r0, r3
    d750:	eb0002ee 	bl	e310 <__sinit>
    d754:	eaffffb6 	b	d634 <__swsetup_r+0x28>
    d758:	00012970 	.word	0x00012970

0000d75c <_malloc_trim_r>:
    d75c:	e92d41f0 	push	{r4, r5, r6, r7, r8, lr}
    d760:	e1a06000 	mov	r6, r0
    d764:	e3a00008 	mov	r0, #8
    d768:	e1a05001 	mov	r5, r1
    d76c:	eb0000f9 	bl	db58 <sysconf>
    d770:	e1a04000 	mov	r4, r0
    d774:	e59f80e8 	ldr	r8, [pc, #232]	@ d864 <_malloc_trim_r+0x108>
    d778:	e1a00006 	mov	r0, r6
    d77c:	eb00022f 	bl	e040 <__malloc_lock>
    d780:	e5983008 	ldr	r3, [r8, #8]
    d784:	e5937004 	ldr	r7, [r3, #4]
    d788:	e3c77003 	bic	r7, r7, #3
    d78c:	e2470011 	sub	r0, r7, #17
    d790:	e0400005 	sub	r0, r0, r5
    d794:	e1a01004 	mov	r1, r4
    d798:	e0800004 	add	r0, r0, r4
    d79c:	eb001042 	bl	118ac <__udivsi3>
    d7a0:	e2405001 	sub	r5, r0, #1
    d7a4:	e0050594 	mul	r5, r4, r5
    d7a8:	e1540005 	cmp	r4, r5
    d7ac:	ca000006 	bgt	d7cc <_malloc_trim_r+0x70>
    d7b0:	e3a01000 	mov	r1, #0
    d7b4:	e1a00006 	mov	r0, r6
    d7b8:	eb0002f4 	bl	e390 <_sbrk_r>
    d7bc:	e5983008 	ldr	r3, [r8, #8]
    d7c0:	e0833007 	add	r3, r3, r7
    d7c4:	e1500003 	cmp	r0, r3
    d7c8:	0a000004 	beq	d7e0 <_malloc_trim_r+0x84>
    d7cc:	e1a00006 	mov	r0, r6
    d7d0:	eb00021b 	bl	e044 <__malloc_unlock>
    d7d4:	e3a00000 	mov	r0, #0
    d7d8:	e8bd41f0 	pop	{r4, r5, r6, r7, r8, lr}
    d7dc:	e12fff1e 	bx	lr
    d7e0:	e1a00006 	mov	r0, r6
    d7e4:	e2651000 	rsb	r1, r5, #0
    d7e8:	eb0002e8 	bl	e390 <_sbrk_r>
    d7ec:	e3700001 	cmn	r0, #1
    d7f0:	0a00000c 	beq	d828 <_malloc_trim_r+0xcc>
    d7f4:	e5983008 	ldr	r3, [r8, #8]
    d7f8:	e59f2068 	ldr	r2, [pc, #104]	@ d868 <_malloc_trim_r+0x10c>
    d7fc:	e0477005 	sub	r7, r7, r5
    d800:	e3877001 	orr	r7, r7, #1
    d804:	e5837004 	str	r7, [r3, #4]
    d808:	e5923000 	ldr	r3, [r2]
    d80c:	e1a00006 	mov	r0, r6
    d810:	e0433005 	sub	r3, r3, r5
    d814:	e5823000 	str	r3, [r2]
    d818:	eb000209 	bl	e044 <__malloc_unlock>
    d81c:	e3a00001 	mov	r0, #1
    d820:	e8bd41f0 	pop	{r4, r5, r6, r7, r8, lr}
    d824:	e12fff1e 	bx	lr
    d828:	e3a01000 	mov	r1, #0
    d82c:	e1a00006 	mov	r0, r6
    d830:	eb0002d6 	bl	e390 <_sbrk_r>
    d834:	e5982008 	ldr	r2, [r8, #8]
    d838:	e0403002 	sub	r3, r0, r2
    d83c:	e353000f 	cmp	r3, #15
    d840:	daffffe1 	ble	d7cc <_malloc_trim_r+0x70>
    d844:	e3833001 	orr	r3, r3, #1
    d848:	e5823004 	str	r3, [r2, #4]
    d84c:	e59f3018 	ldr	r3, [pc, #24]	@ d86c <_malloc_trim_r+0x110>
    d850:	e5933000 	ldr	r3, [r3]
    d854:	e59f100c 	ldr	r1, [pc, #12]	@ d868 <_malloc_trim_r+0x10c>
    d858:	e0400003 	sub	r0, r0, r3
    d85c:	e5810000 	str	r0, [r1]
    d860:	eaffffd9 	b	d7cc <_malloc_trim_r+0x70>
    d864:	00012a98 	.word	0x00012a98
    d868:	00013024 	.word	0x00013024
    d86c:	00012ea0 	.word	0x00012ea0

0000d870 <_free_r>:
    d870:	e92d4070 	push	{r4, r5, r6, lr}
    d874:	e2514000 	subs	r4, r1, #0
    d878:	0a000032 	beq	d948 <_free_r+0xd8>
    d87c:	e1a05000 	mov	r5, r0
    d880:	eb0001ee 	bl	e040 <__malloc_lock>
    d884:	e59f22bc 	ldr	r2, [pc, #700]	@ db48 <_free_r+0x2d8>
    d888:	e5140004 	ldr	r0, [r4, #-4]
    d88c:	e5923008 	ldr	r3, [r2, #8]
    d890:	e244c008 	sub	ip, r4, #8
    d894:	e3c01001 	bic	r1, r0, #1
    d898:	e08ce001 	add	lr, ip, r1
    d89c:	e153000e 	cmp	r3, lr
    d8a0:	e59e3004 	ldr	r3, [lr, #4]
    d8a4:	e3c33003 	bic	r3, r3, #3
    d8a8:	0a000064 	beq	da40 <_free_r+0x1d0>
    d8ac:	e3100001 	tst	r0, #1
    d8b0:	e58e3004 	str	r3, [lr, #4]
    d8b4:	e08e0003 	add	r0, lr, r3
    d8b8:	1a000024 	bne	d950 <_free_r+0xe0>
    d8bc:	e5144008 	ldr	r4, [r4, #-8]
    d8c0:	e04cc004 	sub	ip, ip, r4
    d8c4:	e0811004 	add	r1, r1, r4
    d8c8:	e59c4008 	ldr	r4, [ip, #8]
    d8cc:	e5900004 	ldr	r0, [r0, #4]
    d8d0:	e2826008 	add	r6, r2, #8
    d8d4:	e1540006 	cmp	r4, r6
    d8d8:	e2000001 	and	r0, r0, #1
    d8dc:	0a000049 	beq	da08 <_free_r+0x198>
    d8e0:	e3500000 	cmp	r0, #0
    d8e4:	e59c000c 	ldr	r0, [ip, #12]
    d8e8:	e584000c 	str	r0, [r4, #12]
    d8ec:	e5804008 	str	r4, [r0, #8]
    d8f0:	0a000068 	beq	da98 <_free_r+0x228>
    d8f4:	e3813001 	orr	r3, r1, #1
    d8f8:	e58c3004 	str	r3, [ip, #4]
    d8fc:	e58e1000 	str	r1, [lr]
    d900:	e3510c02 	cmp	r1, #512	@ 0x200
    d904:	2a000019 	bcs	d970 <_free_r+0x100>
    d908:	e3a0e001 	mov	lr, #1
    d90c:	e1a002a1 	lsr	r0, r1, #5
    d910:	e1a031a1 	lsr	r3, r1, #3
    d914:	e5921004 	ldr	r1, [r2, #4]
    d918:	e2833001 	add	r3, r3, #1
    d91c:	e181101e 	orr	r1, r1, lr, lsl r0
    d920:	e5821004 	str	r1, [r2, #4]
    d924:	e7920183 	ldr	r0, [r2, r3, lsl #3]
    d928:	e0821183 	add	r1, r2, r3, lsl #3
    d92c:	e2411008 	sub	r1, r1, #8
    d930:	e58c100c 	str	r1, [ip, #12]
    d934:	e58c0008 	str	r0, [ip, #8]
    d938:	e782c183 	str	ip, [r2, r3, lsl #3]
    d93c:	e580c00c 	str	ip, [r0, #12]
    d940:	e1a00005 	mov	r0, r5
    d944:	eb0001be 	bl	e044 <__malloc_unlock>
    d948:	e8bd4070 	pop	{r4, r5, r6, lr}
    d94c:	e12fff1e 	bx	lr
    d950:	e5900004 	ldr	r0, [r0, #4]
    d954:	e3100001 	tst	r0, #1
    d958:	0a00001e 	beq	d9d8 <_free_r+0x168>
    d95c:	e3813001 	orr	r3, r1, #1
    d960:	e3510c02 	cmp	r1, #512	@ 0x200
    d964:	e5043004 	str	r3, [r4, #-4]
    d968:	e58e1000 	str	r1, [lr]
    d96c:	3affffe5 	bcc	d908 <_free_r+0x98>
    d970:	e3510c0a 	cmp	r1, #2560	@ 0xa00
    d974:	e1a034a1 	lsr	r3, r1, #9
    d978:	2a000048 	bcs	daa0 <_free_r+0x230>
    d97c:	e1a03321 	lsr	r3, r1, #6
    d980:	e2830039 	add	r0, r3, #57	@ 0x39
    d984:	e283e038 	add	lr, r3, #56	@ 0x38
    d988:	e1a00180 	lsl	r0, r0, #3
    d98c:	e7923000 	ldr	r3, [r2, r0]
    d990:	e0820000 	add	r0, r2, r0
    d994:	e2400008 	sub	r0, r0, #8
    d998:	e1500003 	cmp	r0, r3
    d99c:	1a000003 	bne	d9b0 <_free_r+0x140>
    d9a0:	ea00004b 	b	dad4 <_free_r+0x264>
    d9a4:	e5933008 	ldr	r3, [r3, #8]
    d9a8:	e1500003 	cmp	r0, r3
    d9ac:	0a000003 	beq	d9c0 <_free_r+0x150>
    d9b0:	e5932004 	ldr	r2, [r3, #4]
    d9b4:	e3c22003 	bic	r2, r2, #3
    d9b8:	e1520001 	cmp	r2, r1
    d9bc:	8afffff8 	bhi	d9a4 <_free_r+0x134>
    d9c0:	e593000c 	ldr	r0, [r3, #12]
    d9c4:	e58c000c 	str	r0, [ip, #12]
    d9c8:	e58c3008 	str	r3, [ip, #8]
    d9cc:	e580c008 	str	ip, [r0, #8]
    d9d0:	e583c00c 	str	ip, [r3, #12]
    d9d4:	eaffffd9 	b	d940 <_free_r+0xd0>
    d9d8:	e0811003 	add	r1, r1, r3
    d9dc:	e2826008 	add	r6, r2, #8
    d9e0:	e59e3008 	ldr	r3, [lr, #8]
    d9e4:	e1530006 	cmp	r3, r6
    d9e8:	0a00003f 	beq	daec <_free_r+0x27c>
    d9ec:	e59e000c 	ldr	r0, [lr, #12]
    d9f0:	e583000c 	str	r0, [r3, #12]
    d9f4:	e5803008 	str	r3, [r0, #8]
    d9f8:	e3813001 	orr	r3, r1, #1
    d9fc:	e58c3004 	str	r3, [ip, #4]
    da00:	e78c1001 	str	r1, [ip, r1]
    da04:	eaffffbd 	b	d900 <_free_r+0x90>
    da08:	e3500000 	cmp	r0, #0
    da0c:	13813001 	orrne	r3, r1, #1
    da10:	158c3004 	strne	r3, [ip, #4]
    da14:	158e1000 	strne	r1, [lr]
    da18:	1affffc8 	bne	d940 <_free_r+0xd0>
    da1c:	e0833001 	add	r3, r3, r1
    da20:	e28e1008 	add	r1, lr, #8
    da24:	e8910006 	ldm	r1, {r1, r2}
    da28:	e581200c 	str	r2, [r1, #12]
    da2c:	e5821008 	str	r1, [r2, #8]
    da30:	e3832001 	orr	r2, r3, #1
    da34:	e58c2004 	str	r2, [ip, #4]
    da38:	e78c3003 	str	r3, [ip, r3]
    da3c:	eaffffbf 	b	d940 <_free_r+0xd0>
    da40:	e3100001 	tst	r0, #1
    da44:	e0813003 	add	r3, r1, r3
    da48:	1a000006 	bne	da68 <_free_r+0x1f8>
    da4c:	e5141008 	ldr	r1, [r4, #-8]
    da50:	e04cc001 	sub	ip, ip, r1
    da54:	e28c0008 	add	r0, ip, #8
    da58:	e0833001 	add	r3, r3, r1
    da5c:	e8900003 	ldm	r0, {r0, r1}
    da60:	e580100c 	str	r1, [r0, #12]
    da64:	e5810008 	str	r0, [r1, #8]
    da68:	e3831001 	orr	r1, r3, #1
    da6c:	e58c1004 	str	r1, [ip, #4]
    da70:	e59f10d4 	ldr	r1, [pc, #212]	@ db4c <_free_r+0x2dc>
    da74:	e582c008 	str	ip, [r2, #8]
    da78:	e5912000 	ldr	r2, [r1]
    da7c:	e1520003 	cmp	r2, r3
    da80:	8affffae 	bhi	d940 <_free_r+0xd0>
    da84:	e59f30c4 	ldr	r3, [pc, #196]	@ db50 <_free_r+0x2e0>
    da88:	e1a00005 	mov	r0, r5
    da8c:	e5931000 	ldr	r1, [r3]
    da90:	ebffff31 	bl	d75c <_malloc_trim_r>
    da94:	eaffffa9 	b	d940 <_free_r+0xd0>
    da98:	e0811003 	add	r1, r1, r3
    da9c:	eaffffcf 	b	d9e0 <_free_r+0x170>
    daa0:	e3530014 	cmp	r3, #20
    daa4:	9a000006 	bls	dac4 <_free_r+0x254>
    daa8:	e3530054 	cmp	r3, #84	@ 0x54
    daac:	8a000015 	bhi	db08 <_free_r+0x298>
    dab0:	e1a03621 	lsr	r3, r1, #12
    dab4:	e283006f 	add	r0, r3, #111	@ 0x6f
    dab8:	e283e06e 	add	lr, r3, #110	@ 0x6e
    dabc:	e1a00180 	lsl	r0, r0, #3
    dac0:	eaffffb1 	b	d98c <_free_r+0x11c>
    dac4:	e283005c 	add	r0, r3, #92	@ 0x5c
    dac8:	e283e05b 	add	lr, r3, #91	@ 0x5b
    dacc:	e1a00180 	lsl	r0, r0, #3
    dad0:	eaffffad 	b	d98c <_free_r+0x11c>
    dad4:	e3a04001 	mov	r4, #1
    dad8:	e5921004 	ldr	r1, [r2, #4]
    dadc:	e1a0e14e 	asr	lr, lr, #2
    dae0:	e1811e14 	orr	r1, r1, r4, lsl lr
    dae4:	e5821004 	str	r1, [r2, #4]
    dae8:	eaffffb5 	b	d9c4 <_free_r+0x154>
    daec:	e3813001 	orr	r3, r1, #1
    daf0:	e582c014 	str	ip, [r2, #20]
    daf4:	e582c010 	str	ip, [r2, #16]
    daf8:	e98c0048 	stmib	ip, {r3, r6}
    dafc:	e58c600c 	str	r6, [ip, #12]
    db00:	e78c1001 	str	r1, [ip, r1]
    db04:	eaffff8d 	b	d940 <_free_r+0xd0>
    db08:	e3530f55 	cmp	r3, #340	@ 0x154
    db0c:	8a000004 	bhi	db24 <_free_r+0x2b4>
    db10:	e1a037a1 	lsr	r3, r1, #15
    db14:	e2830078 	add	r0, r3, #120	@ 0x78
    db18:	e283e077 	add	lr, r3, #119	@ 0x77
    db1c:	e1a00180 	lsl	r0, r0, #3
    db20:	eaffff99 	b	d98c <_free_r+0x11c>
    db24:	e59f0028 	ldr	r0, [pc, #40]	@ db54 <_free_r+0x2e4>
    db28:	e1530000 	cmp	r3, r0
    db2c:	91a03921 	lsrls	r3, r1, #18
    db30:	9283007d 	addls	r0, r3, #125	@ 0x7d
    db34:	83a00ffe 	movhi	r0, #1016	@ 0x3f8
    db38:	83a0e07e 	movhi	lr, #126	@ 0x7e
    db3c:	9283e07c 	addls	lr, r3, #124	@ 0x7c
    db40:	91a00180 	lslls	r0, r0, #3
    db44:	eaffff90 	b	d98c <_free_r+0x11c>
    db48:	00012a98 	.word	0x00012a98
    db4c:	00012ea4 	.word	0x00012ea4
    db50:	00013020 	.word	0x00013020
    db54:	00000554 	.word	0x00000554

0000db58 <sysconf>:
    db58:	e3500008 	cmp	r0, #8
    db5c:	1a000001 	bne	db68 <sysconf+0x10>
    db60:	e3a00a01 	mov	r0, #4096	@ 0x1000
    db64:	e12fff1e 	bx	lr
    db68:	e92d4010 	push	{r4, lr}
    db6c:	eb0007d3 	bl	fac0 <__errno>
    db70:	e3a02016 	mov	r2, #22
    db74:	e1a03000 	mov	r3, r0
    db78:	e8bd4010 	pop	{r4, lr}
    db7c:	e3e00000 	mvn	r0, #0
    db80:	e5832000 	str	r2, [r3]
    db84:	e12fff1e 	bx	lr

0000db88 <_realloc_r>:
    db88:	e92d4ff8 	push	{r3, r4, r5, r6, r7, r8, r9, sl, fp, lr}
    db8c:	e2514000 	subs	r4, r1, #0
    db90:	e1a06002 	mov	r6, r2
    db94:	0a00008e 	beq	ddd4 <_realloc_r+0x24c>
    db98:	e286500b 	add	r5, r6, #11
    db9c:	e1a08000 	mov	r8, r0
    dba0:	eb000126 	bl	e040 <__malloc_lock>
    dba4:	e3550016 	cmp	r5, #22
    dba8:	93a02010 	movls	r2, #16
    dbac:	93a03000 	movls	r3, #0
    dbb0:	91a05002 	movls	r5, r2
    dbb4:	83c55007 	bichi	r5, r5, #7
    dbb8:	81a03fa5 	lsrhi	r3, r5, #31
    dbbc:	81a02005 	movhi	r2, r5
    dbc0:	e1550006 	cmp	r5, r6
    dbc4:	33833001 	orrcc	r3, r3, #1
    dbc8:	e3530000 	cmp	r3, #0
    dbcc:	13a0300c 	movne	r3, #12
    dbd0:	e5141004 	ldr	r1, [r4, #-4]
    dbd4:	e2449008 	sub	r9, r4, #8
    dbd8:	15883000 	strne	r3, [r8]
    dbdc:	e3c17003 	bic	r7, r1, #3
    dbe0:	1a00010e 	bne	e020 <_realloc_r+0x498>
    dbe4:	e1570002 	cmp	r7, r2
    dbe8:	aa000055 	bge	dd44 <_realloc_r+0x1bc>
    dbec:	e59f3448 	ldr	r3, [pc, #1096]	@ e03c <_realloc_r+0x4b4>
    dbf0:	e593c008 	ldr	ip, [r3, #8]
    dbf4:	e0890007 	add	r0, r9, r7
    dbf8:	e15c0000 	cmp	ip, r0
    dbfc:	e590a004 	ldr	sl, [r0, #4]
    dc00:	0a000079 	beq	ddec <_realloc_r+0x264>
    dc04:	e3ca3001 	bic	r3, sl, #1
    dc08:	e0803003 	add	r3, r0, r3
    dc0c:	e5933004 	ldr	r3, [r3, #4]
    dc10:	e3130001 	tst	r3, #1
    dc14:	1a000067 	bne	ddb8 <_realloc_r+0x230>
    dc18:	e3caa003 	bic	sl, sl, #3
    dc1c:	e087300a 	add	r3, r7, sl
    dc20:	e1530002 	cmp	r3, r2
    dc24:	aa000041 	bge	dd30 <_realloc_r+0x1a8>
    dc28:	e3110001 	tst	r1, #1
    dc2c:	1a00000a 	bne	dc5c <_realloc_r+0xd4>
    dc30:	e514b008 	ldr	fp, [r4, #-8]
    dc34:	e049b00b 	sub	fp, r9, fp
    dc38:	e59b1004 	ldr	r1, [fp, #4]
    dc3c:	e3c11003 	bic	r1, r1, #3
    dc40:	e08aa001 	add	sl, sl, r1
    dc44:	e08aa007 	add	sl, sl, r7
    dc48:	e152000a 	cmp	r2, sl
    dc4c:	da0000d8 	ble	dfb4 <_realloc_r+0x42c>
    dc50:	e087a001 	add	sl, r7, r1
    dc54:	e152000a 	cmp	r2, sl
    dc58:	da0000a8 	ble	df00 <_realloc_r+0x378>
    dc5c:	e1a01006 	mov	r1, r6
    dc60:	e1a00008 	mov	r0, r8
    dc64:	ebfff618 	bl	b4cc <_malloc_r>
    dc68:	e2506000 	subs	r6, r0, #0
    dc6c:	0a0000e9 	beq	e018 <_realloc_r+0x490>
    dc70:	e5143004 	ldr	r3, [r4, #-4]
    dc74:	e3c33001 	bic	r3, r3, #1
    dc78:	e0893003 	add	r3, r9, r3
    dc7c:	e2462008 	sub	r2, r6, #8
    dc80:	e1530002 	cmp	r3, r2
    dc84:	0a000099 	beq	def0 <_realloc_r+0x368>
    dc88:	e2472004 	sub	r2, r7, #4
    dc8c:	e3520024 	cmp	r2, #36	@ 0x24
    dc90:	8a0000c4 	bhi	dfa8 <_realloc_r+0x420>
    dc94:	e3520013 	cmp	r2, #19
    dc98:	91a03006 	movls	r3, r6
    dc9c:	91a02004 	movls	r2, r4
    dca0:	9a000014 	bls	dcf8 <_realloc_r+0x170>
    dca4:	e5943000 	ldr	r3, [r4]
    dca8:	e5863000 	str	r3, [r6]
    dcac:	e5943004 	ldr	r3, [r4, #4]
    dcb0:	e352001b 	cmp	r2, #27
    dcb4:	e5863004 	str	r3, [r6, #4]
    dcb8:	92842008 	addls	r2, r4, #8
    dcbc:	92863008 	addls	r3, r6, #8
    dcc0:	9a00000c 	bls	dcf8 <_realloc_r+0x170>
    dcc4:	e5943008 	ldr	r3, [r4, #8]
    dcc8:	e5863008 	str	r3, [r6, #8]
    dccc:	e594300c 	ldr	r3, [r4, #12]
    dcd0:	e586300c 	str	r3, [r6, #12]
    dcd4:	e3520024 	cmp	r2, #36	@ 0x24
    dcd8:	05943010 	ldreq	r3, [r4, #16]
    dcdc:	05863010 	streq	r3, [r6, #16]
    dce0:	05941014 	ldreq	r1, [r4, #20]
    dce4:	05861014 	streq	r1, [r6, #20]
    dce8:	12842010 	addne	r2, r4, #16
    dcec:	12863010 	addne	r3, r6, #16
    dcf0:	02842018 	addeq	r2, r4, #24
    dcf4:	02863018 	addeq	r3, r6, #24
    dcf8:	e5921000 	ldr	r1, [r2]
    dcfc:	e5831000 	str	r1, [r3]
    dd00:	e5921004 	ldr	r1, [r2, #4]
    dd04:	e5831004 	str	r1, [r3, #4]
    dd08:	e5922008 	ldr	r2, [r2, #8]
    dd0c:	e5832008 	str	r2, [r3, #8]
    dd10:	e1a01004 	mov	r1, r4
    dd14:	e1a00008 	mov	r0, r8
    dd18:	ebfffed4 	bl	d870 <_free_r>
    dd1c:	e1a00008 	mov	r0, r8
    dd20:	eb0000c7 	bl	e044 <__malloc_unlock>
    dd24:	e1a00006 	mov	r0, r6
    dd28:	e8bd4ff8 	pop	{r3, r4, r5, r6, r7, r8, r9, sl, fp, lr}
    dd2c:	e12fff1e 	bx	lr
    dd30:	e2802008 	add	r2, r0, #8
    dd34:	e1a07003 	mov	r7, r3
    dd38:	e892000c 	ldm	r2, {r2, r3}
    dd3c:	e582300c 	str	r3, [r2, #12]
    dd40:	e5832008 	str	r2, [r3, #8]
    dd44:	e5993004 	ldr	r3, [r9, #4]
    dd48:	e0472005 	sub	r2, r7, r5
    dd4c:	e352000f 	cmp	r2, #15
    dd50:	e2033001 	and	r3, r3, #1
    dd54:	e0890007 	add	r0, r9, r7
    dd58:	8a00000a 	bhi	dd88 <_realloc_r+0x200>
    dd5c:	e1873003 	orr	r3, r7, r3
    dd60:	e5893004 	str	r3, [r9, #4]
    dd64:	e5903004 	ldr	r3, [r0, #4]
    dd68:	e3833001 	orr	r3, r3, #1
    dd6c:	e5803004 	str	r3, [r0, #4]
    dd70:	e1a00008 	mov	r0, r8
    dd74:	eb0000b2 	bl	e044 <__malloc_unlock>
    dd78:	e1a06004 	mov	r6, r4
    dd7c:	e1a00006 	mov	r0, r6
    dd80:	e8bd4ff8 	pop	{r3, r4, r5, r6, r7, r8, r9, sl, fp, lr}
    dd84:	e12fff1e 	bx	lr
    dd88:	e1853003 	orr	r3, r5, r3
    dd8c:	e0891005 	add	r1, r9, r5
    dd90:	e3822001 	orr	r2, r2, #1
    dd94:	e5893004 	str	r3, [r9, #4]
    dd98:	e5812004 	str	r2, [r1, #4]
    dd9c:	e5903004 	ldr	r3, [r0, #4]
    dda0:	e3833001 	orr	r3, r3, #1
    dda4:	e5803004 	str	r3, [r0, #4]
    dda8:	e2811008 	add	r1, r1, #8
    ddac:	e1a00008 	mov	r0, r8
    ddb0:	ebfffeae 	bl	d870 <_free_r>
    ddb4:	eaffffed 	b	dd70 <_realloc_r+0x1e8>
    ddb8:	e3110001 	tst	r1, #1
    ddbc:	1affffa6 	bne	dc5c <_realloc_r+0xd4>
    ddc0:	e514b008 	ldr	fp, [r4, #-8]
    ddc4:	e049b00b 	sub	fp, r9, fp
    ddc8:	e59b1004 	ldr	r1, [fp, #4]
    ddcc:	e3c11003 	bic	r1, r1, #3
    ddd0:	eaffff9e 	b	dc50 <_realloc_r+0xc8>
    ddd4:	e1a01002 	mov	r1, r2
    ddd8:	ebfff5bb 	bl	b4cc <_malloc_r>
    dddc:	e1a06000 	mov	r6, r0
    dde0:	e1a00006 	mov	r0, r6
    dde4:	e8bd4ff8 	pop	{r3, r4, r5, r6, r7, r8, r9, sl, fp, lr}
    dde8:	e12fff1e 	bx	lr
    ddec:	e3caa003 	bic	sl, sl, #3
    ddf0:	e08ac007 	add	ip, sl, r7
    ddf4:	e2850010 	add	r0, r5, #16
    ddf8:	e15c0000 	cmp	ip, r0
    ddfc:	aa000078 	bge	dfe4 <_realloc_r+0x45c>
    de00:	e3110001 	tst	r1, #1
    de04:	1affff94 	bne	dc5c <_realloc_r+0xd4>
    de08:	e514b008 	ldr	fp, [r4, #-8]
    de0c:	e049b00b 	sub	fp, r9, fp
    de10:	e59b1004 	ldr	r1, [fp, #4]
    de14:	e3c11003 	bic	r1, r1, #3
    de18:	e08aa001 	add	sl, sl, r1
    de1c:	e08aa007 	add	sl, sl, r7
    de20:	e150000a 	cmp	r0, sl
    de24:	caffff89 	bgt	dc50 <_realloc_r+0xc8>
    de28:	e1a0600b 	mov	r6, fp
    de2c:	e59b100c 	ldr	r1, [fp, #12]
    de30:	e5b60008 	ldr	r0, [r6, #8]!
    de34:	e2472004 	sub	r2, r7, #4
    de38:	e3520024 	cmp	r2, #36	@ 0x24
    de3c:	e580100c 	str	r1, [r0, #12]
    de40:	e5810008 	str	r0, [r1, #8]
    de44:	8a000077 	bhi	e028 <_realloc_r+0x4a0>
    de48:	e3520013 	cmp	r2, #19
    de4c:	91a02006 	movls	r2, r6
    de50:	9a000014 	bls	dea8 <_realloc_r+0x320>
    de54:	e5941000 	ldr	r1, [r4]
    de58:	e58b1008 	str	r1, [fp, #8]
    de5c:	e5941004 	ldr	r1, [r4, #4]
    de60:	e352001b 	cmp	r2, #27
    de64:	e58b100c 	str	r1, [fp, #12]
    de68:	92844008 	addls	r4, r4, #8
    de6c:	928b2010 	addls	r2, fp, #16
    de70:	9a00000c 	bls	dea8 <_realloc_r+0x320>
    de74:	e3520024 	cmp	r2, #36	@ 0x24
    de78:	e5942008 	ldr	r2, [r4, #8]
    de7c:	e58b2010 	str	r2, [fp, #16]
    de80:	e594200c 	ldr	r2, [r4, #12]
    de84:	e58b2014 	str	r2, [fp, #20]
    de88:	05942010 	ldreq	r2, [r4, #16]
    de8c:	058b2018 	streq	r2, [fp, #24]
    de90:	05941014 	ldreq	r1, [r4, #20]
    de94:	058b101c 	streq	r1, [fp, #28]
    de98:	12844010 	addne	r4, r4, #16
    de9c:	128b2018 	addne	r2, fp, #24
    dea0:	028b2020 	addeq	r2, fp, #32
    dea4:	02844018 	addeq	r4, r4, #24
    dea8:	e5941000 	ldr	r1, [r4]
    deac:	e5821000 	str	r1, [r2]
    deb0:	e5941004 	ldr	r1, [r4, #4]
    deb4:	e5821004 	str	r1, [r2, #4]
    deb8:	e5941008 	ldr	r1, [r4, #8]
    debc:	e5821008 	str	r1, [r2, #8]
    dec0:	e04a2005 	sub	r2, sl, r5
    dec4:	e08b1005 	add	r1, fp, r5
    dec8:	e3822001 	orr	r2, r2, #1
    decc:	e5831008 	str	r1, [r3, #8]
    ded0:	e5812004 	str	r2, [r1, #4]
    ded4:	e59b3004 	ldr	r3, [fp, #4]
    ded8:	e2033001 	and	r3, r3, #1
    dedc:	e1833005 	orr	r3, r3, r5
    dee0:	e1a00008 	mov	r0, r8
    dee4:	e58b3004 	str	r3, [fp, #4]
    dee8:	eb000055 	bl	e044 <__malloc_unlock>
    deec:	eaffffa2 	b	dd7c <_realloc_r+0x1f4>
    def0:	e5163004 	ldr	r3, [r6, #-4]
    def4:	e3c33003 	bic	r3, r3, #3
    def8:	e0877003 	add	r7, r7, r3
    defc:	eaffff90 	b	dd44 <_realloc_r+0x1bc>
    df00:	e1a0600b 	mov	r6, fp
    df04:	e2472004 	sub	r2, r7, #4
    df08:	e3520024 	cmp	r2, #36	@ 0x24
    df0c:	e59b300c 	ldr	r3, [fp, #12]
    df10:	e5b61008 	ldr	r1, [r6, #8]!
    df14:	e581300c 	str	r3, [r1, #12]
    df18:	e5831008 	str	r1, [r3, #8]
    df1c:	8a00002c 	bhi	dfd4 <_realloc_r+0x44c>
    df20:	e3520013 	cmp	r2, #19
    df24:	91a03006 	movls	r3, r6
    df28:	9a000014 	bls	df80 <_realloc_r+0x3f8>
    df2c:	e5943000 	ldr	r3, [r4]
    df30:	e58b3008 	str	r3, [fp, #8]
    df34:	e5943004 	ldr	r3, [r4, #4]
    df38:	e352001b 	cmp	r2, #27
    df3c:	e58b300c 	str	r3, [fp, #12]
    df40:	92844008 	addls	r4, r4, #8
    df44:	928b3010 	addls	r3, fp, #16
    df48:	9a00000c 	bls	df80 <_realloc_r+0x3f8>
    df4c:	e5943008 	ldr	r3, [r4, #8]
    df50:	e58b3010 	str	r3, [fp, #16]
    df54:	e594300c 	ldr	r3, [r4, #12]
    df58:	e58b3014 	str	r3, [fp, #20]
    df5c:	e3520024 	cmp	r2, #36	@ 0x24
    df60:	05943010 	ldreq	r3, [r4, #16]
    df64:	058b3018 	streq	r3, [fp, #24]
    df68:	05942014 	ldreq	r2, [r4, #20]
    df6c:	058b201c 	streq	r2, [fp, #28]
    df70:	12844010 	addne	r4, r4, #16
    df74:	128b3018 	addne	r3, fp, #24
    df78:	028b3020 	addeq	r3, fp, #32
    df7c:	02844018 	addeq	r4, r4, #24
    df80:	e5942000 	ldr	r2, [r4]
    df84:	e5832000 	str	r2, [r3]
    df88:	e5942004 	ldr	r2, [r4, #4]
    df8c:	e5832004 	str	r2, [r3, #4]
    df90:	e5942008 	ldr	r2, [r4, #8]
    df94:	e5832008 	str	r2, [r3, #8]
    df98:	e1a04006 	mov	r4, r6
    df9c:	e1a0700a 	mov	r7, sl
    dfa0:	e1a0900b 	mov	r9, fp
    dfa4:	eaffff66 	b	dd44 <_realloc_r+0x1bc>
    dfa8:	e1a01004 	mov	r1, r4
    dfac:	ebfff4f1 	bl	b378 <memmove>
    dfb0:	eaffff56 	b	dd10 <_realloc_r+0x188>
    dfb4:	e2801008 	add	r1, r0, #8
    dfb8:	e891000a 	ldm	r1, {r1, r3}
    dfbc:	e2472004 	sub	r2, r7, #4
    dfc0:	e581300c 	str	r3, [r1, #12]
    dfc4:	e1a0600b 	mov	r6, fp
    dfc8:	e5831008 	str	r1, [r3, #8]
    dfcc:	e3520024 	cmp	r2, #36	@ 0x24
    dfd0:	eaffffcd 	b	df0c <_realloc_r+0x384>
    dfd4:	e1a01004 	mov	r1, r4
    dfd8:	e1a00006 	mov	r0, r6
    dfdc:	ebfff4e5 	bl	b378 <memmove>
    dfe0:	eaffffec 	b	df98 <_realloc_r+0x410>
    dfe4:	e04cc005 	sub	ip, ip, r5
    dfe8:	e0899005 	add	r9, r9, r5
    dfec:	e5839008 	str	r9, [r3, #8]
    dff0:	e38c3001 	orr	r3, ip, #1
    dff4:	e5893004 	str	r3, [r9, #4]
    dff8:	e5143004 	ldr	r3, [r4, #-4]
    dffc:	e2033001 	and	r3, r3, #1
    e000:	e1833005 	orr	r3, r3, r5
    e004:	e1a00008 	mov	r0, r8
    e008:	e5043004 	str	r3, [r4, #-4]
    e00c:	eb00000c 	bl	e044 <__malloc_unlock>
    e010:	e1a06004 	mov	r6, r4
    e014:	eaffff58 	b	dd7c <_realloc_r+0x1f4>
    e018:	e1a00008 	mov	r0, r8
    e01c:	eb000008 	bl	e044 <__malloc_unlock>
    e020:	e3a06000 	mov	r6, #0
    e024:	eaffff54 	b	dd7c <_realloc_r+0x1f4>
    e028:	e1a01004 	mov	r1, r4
    e02c:	e1a00006 	mov	r0, r6
    e030:	ebfff4d0 	bl	b378 <memmove>
    e034:	e59f3000 	ldr	r3, [pc]	@ e03c <_realloc_r+0x4b4>
    e038:	eaffffa0 	b	dec0 <_realloc_r+0x338>
    e03c:	00012a98 	.word	0x00012a98

0000e040 <__malloc_lock>:
    e040:	e12fff1e 	bx	lr

0000e044 <__malloc_unlock>:
    e044:	e12fff1e 	bx	lr

0000e048 <__fp_lock>:
    e048:	e3a00000 	mov	r0, #0
    e04c:	e12fff1e 	bx	lr

0000e050 <stdio_exit_handler>:
    e050:	e92d4010 	push	{r4, lr}
    e054:	e59f2010 	ldr	r2, [pc, #16]	@ e06c <stdio_exit_handler+0x1c>
    e058:	e59f1010 	ldr	r1, [pc, #16]	@ e070 <stdio_exit_handler+0x20>
    e05c:	e59f0010 	ldr	r0, [pc, #16]	@ e074 <stdio_exit_handler+0x24>
    e060:	eb000529 	bl	f50c <_fwalk_sglue>
    e064:	e8bd4010 	pop	{r4, lr}
    e068:	e12fff1e 	bx	lr
    e06c:	00012ea8 	.word	0x00012ea8
    e070:	0000fc1c 	.word	0x0000fc1c
    e074:	00012978 	.word	0x00012978

0000e078 <cleanup_stdio>:
    e078:	e59f3040 	ldr	r3, [pc, #64]	@ e0c0 <cleanup_stdio+0x48>
    e07c:	e5901004 	ldr	r1, [r0, #4]
    e080:	e1510003 	cmp	r1, r3
    e084:	e92d4010 	push	{r4, lr}
    e088:	e1a04000 	mov	r4, r0
    e08c:	1b0006e2 	blne	fc1c <_fclose_r>
    e090:	e5941008 	ldr	r1, [r4, #8]
    e094:	e59f3028 	ldr	r3, [pc, #40]	@ e0c4 <cleanup_stdio+0x4c>
    e098:	e1510003 	cmp	r1, r3
    e09c:	11a00004 	movne	r0, r4
    e0a0:	1b0006dd 	blne	fc1c <_fclose_r>
    e0a4:	e594100c 	ldr	r1, [r4, #12]
    e0a8:	e59f3018 	ldr	r3, [pc, #24]	@ e0c8 <cleanup_stdio+0x50>
    e0ac:	e1510003 	cmp	r1, r3
    e0b0:	11a00004 	movne	r0, r4
    e0b4:	1b0006d8 	blne	fc1c <_fclose_r>
    e0b8:	e8bd4010 	pop	{r4, lr}
    e0bc:	e12fff1e 	bx	lr
    e0c0:	00013054 	.word	0x00013054
    e0c4:	000130bc 	.word	0x000130bc
    e0c8:	00013124 	.word	0x00013124

0000e0cc <__fp_unlock>:
    e0cc:	e3a00000 	mov	r0, #0
    e0d0:	e12fff1e 	bx	lr

0000e0d4 <global_stdio_init.part.0>:
    e0d4:	e92d47f0 	push	{r4, r5, r6, r7, r8, r9, sl, lr}
    e0d8:	e3a05000 	mov	r5, #0
    e0dc:	e3a03004 	mov	r3, #4
    e0e0:	e59f40f8 	ldr	r4, [pc, #248]	@ e1e0 <global_stdio_init.part.0+0x10c>
    e0e4:	e59f10f8 	ldr	r1, [pc, #248]	@ e1e4 <global_stdio_init.part.0+0x110>
    e0e8:	e3a02008 	mov	r2, #8
    e0ec:	e5841138 	str	r1, [r4, #312]	@ 0x138
    e0f0:	e284005c 	add	r0, r4, #92	@ 0x5c
    e0f4:	e1a01005 	mov	r1, r5
    e0f8:	e59f90e8 	ldr	r9, [pc, #232]	@ e1e8 <global_stdio_init.part.0+0x114>
    e0fc:	e59f80e8 	ldr	r8, [pc, #232]	@ e1ec <global_stdio_init.part.0+0x118>
    e100:	e59f70e8 	ldr	r7, [pc, #232]	@ e1f0 <global_stdio_init.part.0+0x11c>
    e104:	e59f60e8 	ldr	r6, [pc, #232]	@ e1f4 <global_stdio_init.part.0+0x120>
    e108:	e584300c 	str	r3, [r4, #12]
    e10c:	e5845000 	str	r5, [r4]
    e110:	e5845004 	str	r5, [r4, #4]
    e114:	e5845008 	str	r5, [r4, #8]
    e118:	e5845064 	str	r5, [r4, #100]	@ 0x64
    e11c:	e5845010 	str	r5, [r4, #16]
    e120:	e5845014 	str	r5, [r4, #20]
    e124:	e5845018 	str	r5, [r4, #24]
    e128:	eb0000a9 	bl	e3d4 <memset>
    e12c:	e59f30c4 	ldr	r3, [pc, #196]	@ e1f8 <global_stdio_init.part.0+0x124>
    e130:	e1a01005 	mov	r1, r5
    e134:	e3a02008 	mov	r2, #8
    e138:	e28400c4 	add	r0, r4, #196	@ 0xc4
    e13c:	e5843074 	str	r3, [r4, #116]	@ 0x74
    e140:	e584401c 	str	r4, [r4, #28]
    e144:	e5849020 	str	r9, [r4, #32]
    e148:	e5848024 	str	r8, [r4, #36]	@ 0x24
    e14c:	e5847028 	str	r7, [r4, #40]	@ 0x28
    e150:	e584602c 	str	r6, [r4, #44]	@ 0x2c
    e154:	e5845068 	str	r5, [r4, #104]	@ 0x68
    e158:	e584506c 	str	r5, [r4, #108]	@ 0x6c
    e15c:	e5845070 	str	r5, [r4, #112]	@ 0x70
    e160:	e58450cc 	str	r5, [r4, #204]	@ 0xcc
    e164:	e5845078 	str	r5, [r4, #120]	@ 0x78
    e168:	e584507c 	str	r5, [r4, #124]	@ 0x7c
    e16c:	e5845080 	str	r5, [r4, #128]	@ 0x80
    e170:	eb000097 	bl	e3d4 <memset>
    e174:	e59f3080 	ldr	r3, [pc, #128]	@ e1fc <global_stdio_init.part.0+0x128>
    e178:	e1a01005 	mov	r1, r5
    e17c:	e58430dc 	str	r3, [r4, #220]	@ 0xdc
    e180:	e2840f4b 	add	r0, r4, #300	@ 0x12c
    e184:	e2843068 	add	r3, r4, #104	@ 0x68
    e188:	e3a02008 	mov	r2, #8
    e18c:	e5843084 	str	r3, [r4, #132]	@ 0x84
    e190:	e5849088 	str	r9, [r4, #136]	@ 0x88
    e194:	e584808c 	str	r8, [r4, #140]	@ 0x8c
    e198:	e5847090 	str	r7, [r4, #144]	@ 0x90
    e19c:	e5846094 	str	r6, [r4, #148]	@ 0x94
    e1a0:	e58450d0 	str	r5, [r4, #208]	@ 0xd0
    e1a4:	e58450d4 	str	r5, [r4, #212]	@ 0xd4
    e1a8:	e58450d8 	str	r5, [r4, #216]	@ 0xd8
    e1ac:	e5845134 	str	r5, [r4, #308]	@ 0x134
    e1b0:	e58450e0 	str	r5, [r4, #224]	@ 0xe0
    e1b4:	e58450e4 	str	r5, [r4, #228]	@ 0xe4
    e1b8:	e58450e8 	str	r5, [r4, #232]	@ 0xe8
    e1bc:	eb000084 	bl	e3d4 <memset>
    e1c0:	e28430d0 	add	r3, r4, #208	@ 0xd0
    e1c4:	e58490f0 	str	r9, [r4, #240]	@ 0xf0
    e1c8:	e58480f4 	str	r8, [r4, #244]	@ 0xf4
    e1cc:	e58470f8 	str	r7, [r4, #248]	@ 0xf8
    e1d0:	e58460fc 	str	r6, [r4, #252]	@ 0xfc
    e1d4:	e58430ec 	str	r3, [r4, #236]	@ 0xec
    e1d8:	e8bd47f0 	pop	{r4, r5, r6, r7, r8, r9, sl, lr}
    e1dc:	e12fff1e 	bx	lr
    e1e0:	00013054 	.word	0x00013054
    e1e4:	0000e050 	.word	0x0000e050
    e1e8:	0000fd70 	.word	0x0000fd70
    e1ec:	0000fdac 	.word	0x0000fdac
    e1f0:	0000fe08 	.word	0x0000fe08
    e1f4:	0000fe38 	.word	0x0000fe38
    e1f8:	00010009 	.word	0x00010009
    e1fc:	00020012 	.word	0x00020012

0000e200 <__sfp>:
    e200:	e59f30fc 	ldr	r3, [pc, #252]	@ e304 <__sfp+0x104>
    e204:	e5933138 	ldr	r3, [r3, #312]	@ 0x138
    e208:	e3530000 	cmp	r3, #0
    e20c:	e92d41f0 	push	{r4, r5, r6, r7, r8, lr}
    e210:	e1a07000 	mov	r7, r0
    e214:	0a000034 	beq	e2ec <__sfp+0xec>
    e218:	e59f60e8 	ldr	r6, [pc, #232]	@ e308 <__sfp+0x108>
    e21c:	e9960018 	ldmib	r6, {r3, r4}
    e220:	e2533001 	subs	r3, r3, #1
    e224:	5a000003 	bpl	e238 <__sfp+0x38>
    e228:	ea00001a 	b	e298 <__sfp+0x98>
    e22c:	e3730001 	cmn	r3, #1
    e230:	e2844068 	add	r4, r4, #104	@ 0x68
    e234:	0a000017 	beq	e298 <__sfp+0x98>
    e238:	e1d450fc 	ldrsh	r5, [r4, #12]
    e23c:	e3550000 	cmp	r5, #0
    e240:	e2433001 	sub	r3, r3, #1
    e244:	1afffff8 	bne	e22c <__sfp+0x2c>
    e248:	e59f30bc 	ldr	r3, [pc, #188]	@ e30c <__sfp+0x10c>
    e24c:	e3a02008 	mov	r2, #8
    e250:	e1a01005 	mov	r1, r5
    e254:	e584300c 	str	r3, [r4, #12]
    e258:	e5845064 	str	r5, [r4, #100]	@ 0x64
    e25c:	e5845000 	str	r5, [r4]
    e260:	e5845008 	str	r5, [r4, #8]
    e264:	e5845004 	str	r5, [r4, #4]
    e268:	e5845010 	str	r5, [r4, #16]
    e26c:	e5845014 	str	r5, [r4, #20]
    e270:	e5845018 	str	r5, [r4, #24]
    e274:	e284005c 	add	r0, r4, #92	@ 0x5c
    e278:	eb000055 	bl	e3d4 <memset>
    e27c:	e5845030 	str	r5, [r4, #48]	@ 0x30
    e280:	e5845034 	str	r5, [r4, #52]	@ 0x34
    e284:	e5845044 	str	r5, [r4, #68]	@ 0x44
    e288:	e5845048 	str	r5, [r4, #72]	@ 0x48
    e28c:	e1a00004 	mov	r0, r4
    e290:	e8bd41f0 	pop	{r4, r5, r6, r7, r8, lr}
    e294:	e12fff1e 	bx	lr
    e298:	e5965000 	ldr	r5, [r6]
    e29c:	e3550000 	cmp	r5, #0
    e2a0:	0a000001 	beq	e2ac <__sfp+0xac>
    e2a4:	e1a06005 	mov	r6, r5
    e2a8:	eaffffdb 	b	e21c <__sfp+0x1c>
    e2ac:	e3a01f6b 	mov	r1, #428	@ 0x1ac
    e2b0:	e1a00007 	mov	r0, r7
    e2b4:	ebfff484 	bl	b4cc <_malloc_r>
    e2b8:	e2504000 	subs	r4, r0, #0
    e2bc:	0a00000c 	beq	e2f4 <__sfp+0xf4>
    e2c0:	e3a03004 	mov	r3, #4
    e2c4:	e284000c 	add	r0, r4, #12
    e2c8:	e1a01005 	mov	r1, r5
    e2cc:	e5845000 	str	r5, [r4]
    e2d0:	e3a02e1a 	mov	r2, #416	@ 0x1a0
    e2d4:	e5840008 	str	r0, [r4, #8]
    e2d8:	e5843004 	str	r3, [r4, #4]
    e2dc:	eb00003c 	bl	e3d4 <memset>
    e2e0:	e1a05004 	mov	r5, r4
    e2e4:	e5864000 	str	r4, [r6]
    e2e8:	eaffffed 	b	e2a4 <__sfp+0xa4>
    e2ec:	ebffff78 	bl	e0d4 <global_stdio_init.part.0>
    e2f0:	eaffffc8 	b	e218 <__sfp+0x18>
    e2f4:	e3a0300c 	mov	r3, #12
    e2f8:	e5864000 	str	r4, [r6]
    e2fc:	e5873000 	str	r3, [r7]
    e300:	eaffffe1 	b	e28c <__sfp+0x8c>
    e304:	00013054 	.word	0x00013054
    e308:	00012ea8 	.word	0x00012ea8
    e30c:	ffff0001 	.word	0xffff0001

0000e310 <__sinit>:
    e310:	e5903034 	ldr	r3, [r0, #52]	@ 0x34
    e314:	e3530000 	cmp	r3, #0
    e318:	112fff1e 	bxne	lr
    e31c:	e59f3014 	ldr	r3, [pc, #20]	@ e338 <__sinit+0x28>
    e320:	e5933138 	ldr	r3, [r3, #312]	@ 0x138
    e324:	e59f2010 	ldr	r2, [pc, #16]	@ e33c <__sinit+0x2c>
    e328:	e3530000 	cmp	r3, #0
    e32c:	e5802034 	str	r2, [r0, #52]	@ 0x34
    e330:	112fff1e 	bxne	lr
    e334:	eaffff66 	b	e0d4 <global_stdio_init.part.0>
    e338:	00013054 	.word	0x00013054
    e33c:	0000e078 	.word	0x0000e078

0000e340 <__sfp_lock_acquire>:
    e340:	e12fff1e 	bx	lr

0000e344 <__sfp_lock_release>:
    e344:	e12fff1e 	bx	lr

0000e348 <__fp_lock_all>:
    e348:	e92d4010 	push	{r4, lr}
    e34c:	e3a00000 	mov	r0, #0
    e350:	e59f200c 	ldr	r2, [pc, #12]	@ e364 <__fp_lock_all+0x1c>
    e354:	e59f100c 	ldr	r1, [pc, #12]	@ e368 <__fp_lock_all+0x20>
    e358:	eb00046b 	bl	f50c <_fwalk_sglue>
    e35c:	e8bd4010 	pop	{r4, lr}
    e360:	e12fff1e 	bx	lr
    e364:	00012ea8 	.word	0x00012ea8
    e368:	0000e048 	.word	0x0000e048

0000e36c <__fp_unlock_all>:
    e36c:	e92d4010 	push	{r4, lr}
    e370:	e3a00000 	mov	r0, #0
    e374:	e59f200c 	ldr	r2, [pc, #12]	@ e388 <__fp_unlock_all+0x1c>
    e378:	e59f100c 	ldr	r1, [pc, #12]	@ e38c <__fp_unlock_all+0x20>
    e37c:	eb000462 	bl	f50c <_fwalk_sglue>
    e380:	e8bd4010 	pop	{r4, lr}
    e384:	e12fff1e 	bx	lr
    e388:	00012ea8 	.word	0x00012ea8
    e38c:	0000e0cc 	.word	0x0000e0cc

0000e390 <_sbrk_r>:
    e390:	e3a02000 	mov	r2, #0
    e394:	e92d4070 	push	{r4, r5, r6, lr}
    e398:	e59f5030 	ldr	r5, [pc, #48]	@ e3d0 <_sbrk_r+0x40>
    e39c:	e1a04000 	mov	r4, r0
    e3a0:	e1a00001 	mov	r0, r1
    e3a4:	e5852000 	str	r2, [r5]
    e3a8:	ebffe8c2 	bl	86b8 <_sbrk>
    e3ac:	e3700001 	cmn	r0, #1
    e3b0:	0a000001 	beq	e3bc <_sbrk_r+0x2c>
    e3b4:	e8bd4070 	pop	{r4, r5, r6, lr}
    e3b8:	e12fff1e 	bx	lr
    e3bc:	e5953000 	ldr	r3, [r5]
    e3c0:	e3530000 	cmp	r3, #0
    e3c4:	15843000 	strne	r3, [r4]
    e3c8:	e8bd4070 	pop	{r4, r5, r6, lr}
    e3cc:	e12fff1e 	bx	lr
    e3d0:	00013194 	.word	0x00013194

0000e3d4 <memset>:
    e3d4:	e3100003 	tst	r0, #3
    e3d8:	e92d4030 	push	{r4, r5, lr}
    e3dc:	0a000036 	beq	e4bc <memset+0xe8>
    e3e0:	e3520000 	cmp	r2, #0
    e3e4:	e2423001 	sub	r3, r2, #1
    e3e8:	0a00002f 	beq	e4ac <memset+0xd8>
    e3ec:	e1a0e000 	mov	lr, r0
    e3f0:	e20120ff 	and	r2, r1, #255	@ 0xff
    e3f4:	ea000001 	b	e400 <memset+0x2c>
    e3f8:	e2533001 	subs	r3, r3, #1
    e3fc:	3a00002a 	bcc	e4ac <memset+0xd8>
    e400:	e4ce2001 	strb	r2, [lr], #1
    e404:	e31e0003 	tst	lr, #3
    e408:	1afffffa 	bne	e3f8 <memset+0x24>
    e40c:	e3530003 	cmp	r3, #3
    e410:	9a00001e 	bls	e490 <memset+0xbc>
    e414:	e201c0ff 	and	ip, r1, #255	@ 0xff
    e418:	e08cc40c 	add	ip, ip, ip, lsl #8
    e41c:	e353000f 	cmp	r3, #15
    e420:	e08cc80c 	add	ip, ip, ip, lsl #16
    e424:	9a000027 	bls	e4c8 <memset+0xf4>
    e428:	e2432010 	sub	r2, r3, #16
    e42c:	e3c2400f 	bic	r4, r2, #15
    e430:	e28e5020 	add	r5, lr, #32
    e434:	e0855004 	add	r5, r5, r4
    e438:	e1a04222 	lsr	r4, r2, #4
    e43c:	e28e2010 	add	r2, lr, #16
    e440:	e502c010 	str	ip, [r2, #-16]
    e444:	e502c00c 	str	ip, [r2, #-12]
    e448:	e502c008 	str	ip, [r2, #-8]
    e44c:	e502c004 	str	ip, [r2, #-4]
    e450:	e2822010 	add	r2, r2, #16
    e454:	e1520005 	cmp	r2, r5
    e458:	1afffff8 	bne	e440 <memset+0x6c>
    e45c:	e2842001 	add	r2, r4, #1
    e460:	e313000c 	tst	r3, #12
    e464:	e08e2202 	add	r2, lr, r2, lsl #4
    e468:	e203300f 	and	r3, r3, #15
    e46c:	0a000010 	beq	e4b4 <memset+0xe0>
    e470:	e243e004 	sub	lr, r3, #4
    e474:	e3cee003 	bic	lr, lr, #3
    e478:	e28ee004 	add	lr, lr, #4
    e47c:	e082e00e 	add	lr, r2, lr
    e480:	e482c004 	str	ip, [r2], #4
    e484:	e15e0002 	cmp	lr, r2
    e488:	1afffffc 	bne	e480 <memset+0xac>
    e48c:	e2033003 	and	r3, r3, #3
    e490:	e3530000 	cmp	r3, #0
    e494:	120110ff 	andne	r1, r1, #255	@ 0xff
    e498:	108e3003 	addne	r3, lr, r3
    e49c:	0a000002 	beq	e4ac <memset+0xd8>
    e4a0:	e4ce1001 	strb	r1, [lr], #1
    e4a4:	e15e0003 	cmp	lr, r3
    e4a8:	1afffffc 	bne	e4a0 <memset+0xcc>
    e4ac:	e8bd4030 	pop	{r4, r5, lr}
    e4b0:	e12fff1e 	bx	lr
    e4b4:	e1a0e002 	mov	lr, r2
    e4b8:	eafffff4 	b	e490 <memset+0xbc>
    e4bc:	e1a0e000 	mov	lr, r0
    e4c0:	e1a03002 	mov	r3, r2
    e4c4:	eaffffd0 	b	e40c <memset+0x38>
    e4c8:	e1a0200e 	mov	r2, lr
    e4cc:	eaffffe7 	b	e470 <memset+0x9c>

0000e4d0 <__sprint_r>:
    e4d0:	e5923008 	ldr	r3, [r2, #8]
    e4d4:	e3530000 	cmp	r3, #0
    e4d8:	e92d4010 	push	{r4, lr}
    e4dc:	01a00003 	moveq	r0, r3
    e4e0:	e1a04002 	mov	r4, r2
    e4e4:	0a000002 	beq	e4f4 <__sprint_r+0x24>
    e4e8:	ebffe952 	bl	8a38 <__sfvwrite_r>
    e4ec:	e3a03000 	mov	r3, #0
    e4f0:	e5843008 	str	r3, [r4, #8]
    e4f4:	e3a03000 	mov	r3, #0
    e4f8:	e5843004 	str	r3, [r4, #4]
    e4fc:	e8bd4010 	pop	{r4, lr}
    e500:	e12fff1e 	bx	lr

0000e504 <__assert_func>:
    e504:	e52de004 	push	{lr}		@ (str lr, [sp, #-4]!)
    e508:	e1a0e003 	mov	lr, r3
    e50c:	e252c000 	subs	ip, r2, #0
    e510:	e1a0200e 	mov	r2, lr
    e514:	059fe030 	ldreq	lr, [pc, #48]	@ e54c <__assert_func+0x48>
    e518:	01a0c00e 	moveq	ip, lr
    e51c:	e59f302c 	ldr	r3, [pc, #44]	@ e550 <__assert_func+0x4c>
    e520:	e5933000 	ldr	r3, [r3]
    e524:	159fe028 	ldrne	lr, [pc, #40]	@ e554 <__assert_func+0x50>
    e528:	e593400c 	ldr	r4, [r3, #12]
    e52c:	e24dd014 	sub	sp, sp, #20
    e530:	e1a03000 	mov	r3, r0
    e534:	e88d4002 	stm	sp, {r1, lr}
    e538:	e58dc008 	str	ip, [sp, #8]
    e53c:	e59f1014 	ldr	r1, [pc, #20]	@ e558 <__assert_func+0x54>
    e540:	e1a00004 	mov	r0, r4
    e544:	eb0005a5 	bl	fbe0 <fiprintf>
    e548:	eb000560 	bl	fad0 <abort>
    e54c:	00012900 	.word	0x00012900
    e550:	00012970 	.word	0x00012970
    e554:	000128f4 	.word	0x000128f4
    e558:	00012904 	.word	0x00012904

0000e55c <__assert>:
    e55c:	e1a03002 	mov	r3, r2
    e560:	e92d4010 	push	{r4, lr}
    e564:	e3a02000 	mov	r2, #0
    e568:	ebffffe5 	bl	e504 <__assert_func>

0000e56c <_Balloc>:
    e56c:	e5903044 	ldr	r3, [r0, #68]	@ 0x44
    e570:	e3530000 	cmp	r3, #0
    e574:	e92d4070 	push	{r4, r5, r6, lr}
    e578:	e1a05000 	mov	r5, r0
    e57c:	e1a04001 	mov	r4, r1
    e580:	0a000009 	beq	e5ac <_Balloc+0x40>
    e584:	e7930104 	ldr	r0, [r3, r4, lsl #2]
    e588:	e3500000 	cmp	r0, #0
    e58c:	0a00000f 	beq	e5d0 <_Balloc+0x64>
    e590:	e5902000 	ldr	r2, [r0]
    e594:	e7832104 	str	r2, [r3, r4, lsl #2]
    e598:	e3a03000 	mov	r3, #0
    e59c:	e5803010 	str	r3, [r0, #16]
    e5a0:	e580300c 	str	r3, [r0, #12]
    e5a4:	e8bd4070 	pop	{r4, r5, r6, lr}
    e5a8:	e12fff1e 	bx	lr
    e5ac:	e3a02021 	mov	r2, #33	@ 0x21
    e5b0:	e3a01004 	mov	r1, #4
    e5b4:	eb00054a 	bl	fae4 <_calloc_r>
    e5b8:	e3500000 	cmp	r0, #0
    e5bc:	e1a03000 	mov	r3, r0
    e5c0:	e5850044 	str	r0, [r5, #68]	@ 0x44
    e5c4:	1affffee 	bne	e584 <_Balloc+0x18>
    e5c8:	e3a00000 	mov	r0, #0
    e5cc:	eafffff4 	b	e5a4 <_Balloc+0x38>
    e5d0:	e3a01001 	mov	r1, #1
    e5d4:	e1a00005 	mov	r0, r5
    e5d8:	e1a05411 	lsl	r5, r1, r4
    e5dc:	e2852005 	add	r2, r5, #5
    e5e0:	e1a02102 	lsl	r2, r2, #2
    e5e4:	eb00053e 	bl	fae4 <_calloc_r>
    e5e8:	e3500000 	cmp	r0, #0
    e5ec:	0afffff5 	beq	e5c8 <_Balloc+0x5c>
    e5f0:	e9800030 	stmib	r0, {r4, r5}
    e5f4:	eaffffe7 	b	e598 <_Balloc+0x2c>

0000e5f8 <_Bfree>:
    e5f8:	e3510000 	cmp	r1, #0
    e5fc:	15903044 	ldrne	r3, [r0, #68]	@ 0x44
    e600:	15912004 	ldrne	r2, [r1, #4]
    e604:	17930102 	ldrne	r0, [r3, r2, lsl #2]
    e608:	15810000 	strne	r0, [r1]
    e60c:	17831102 	strne	r1, [r3, r2, lsl #2]
    e610:	e12fff1e 	bx	lr

0000e614 <__multadd>:
    e614:	e92d41f0 	push	{r4, r5, r6, r7, r8, lr}
    e618:	e3a0e000 	mov	lr, #0
    e61c:	e1a07000 	mov	r7, r0
    e620:	e1a04003 	mov	r4, r3
    e624:	e59f80dc 	ldr	r8, [pc, #220]	@ e708 <__multadd+0xf4>
    e628:	e1a06001 	mov	r6, r1
    e62c:	e5915010 	ldr	r5, [r1, #16]
    e630:	e2811014 	add	r1, r1, #20
    e634:	e5910000 	ldr	r0, [r1]
    e638:	e0003008 	and	r3, r0, r8
    e63c:	e0234392 	mla	r3, r2, r3, r4
    e640:	e1a00820 	lsr	r0, r0, #16
    e644:	e1a0c823 	lsr	ip, r3, #16
    e648:	e02cc092 	mla	ip, r2, r0, ip
    e64c:	e28ee001 	add	lr, lr, #1
    e650:	e0033008 	and	r3, r3, r8
    e654:	e083380c 	add	r3, r3, ip, lsl #16
    e658:	e155000e 	cmp	r5, lr
    e65c:	e4813004 	str	r3, [r1], #4
    e660:	e1a0482c 	lsr	r4, ip, #16
    e664:	cafffff2 	bgt	e634 <__multadd+0x20>
    e668:	e3540000 	cmp	r4, #0
    e66c:	0a000006 	beq	e68c <__multadd+0x78>
    e670:	e5963008 	ldr	r3, [r6, #8]
    e674:	e1530005 	cmp	r3, r5
    e678:	da000006 	ble	e698 <__multadd+0x84>
    e67c:	e0863105 	add	r3, r6, r5, lsl #2
    e680:	e2855001 	add	r5, r5, #1
    e684:	e5834014 	str	r4, [r3, #20]
    e688:	e5865010 	str	r5, [r6, #16]
    e68c:	e1a00006 	mov	r0, r6
    e690:	e8bd41f0 	pop	{r4, r5, r6, r7, r8, lr}
    e694:	e12fff1e 	bx	lr
    e698:	e5961004 	ldr	r1, [r6, #4]
    e69c:	e1a00007 	mov	r0, r7
    e6a0:	e2811001 	add	r1, r1, #1
    e6a4:	ebffffb0 	bl	e56c <_Balloc>
    e6a8:	e2508000 	subs	r8, r0, #0
    e6ac:	0a000010 	beq	e6f4 <__multadd+0xe0>
    e6b0:	e5962010 	ldr	r2, [r6, #16]
    e6b4:	e2822002 	add	r2, r2, #2
    e6b8:	e286100c 	add	r1, r6, #12
    e6bc:	e1a02102 	lsl	r2, r2, #2
    e6c0:	e288000c 	add	r0, r8, #12
    e6c4:	ebfff561 	bl	bc50 <memcpy>
    e6c8:	e5973044 	ldr	r3, [r7, #68]	@ 0x44
    e6cc:	e5962004 	ldr	r2, [r6, #4]
    e6d0:	e7931102 	ldr	r1, [r3, r2, lsl #2]
    e6d4:	e5861000 	str	r1, [r6]
    e6d8:	e7836102 	str	r6, [r3, r2, lsl #2]
    e6dc:	e1a06008 	mov	r6, r8
    e6e0:	e0863105 	add	r3, r6, r5, lsl #2
    e6e4:	e2855001 	add	r5, r5, #1
    e6e8:	e5834014 	str	r4, [r3, #20]
    e6ec:	e5865010 	str	r5, [r6, #16]
    e6f0:	eaffffe5 	b	e68c <__multadd+0x78>
    e6f4:	e1a02008 	mov	r2, r8
    e6f8:	e3a010ba 	mov	r1, #186	@ 0xba
    e6fc:	e59f3008 	ldr	r3, [pc, #8]	@ e70c <__multadd+0xf8>
    e700:	e59f0008 	ldr	r0, [pc, #8]	@ e710 <__multadd+0xfc>
    e704:	ebffff7e 	bl	e504 <__assert_func>
    e708:	0000ffff 	.word	0x0000ffff
    e70c:	000128bc 	.word	0x000128bc
    e710:	00012934 	.word	0x00012934

0000e714 <__s2b>:
    e714:	e59fc100 	ldr	ip, [pc, #256]	@ e81c <__s2b+0x108>
    e718:	e92d47f0 	push	{r4, r5, r6, r7, r8, r9, sl, lr}
    e71c:	e3530009 	cmp	r3, #9
    e720:	e1a05003 	mov	r5, r3
    e724:	e2833008 	add	r3, r3, #8
    e728:	e1a07002 	mov	r7, r2
    e72c:	e0cc2c93 	smull	r2, ip, r3, ip
    e730:	e1a03fc3 	asr	r3, r3, #31
    e734:	e1a06000 	mov	r6, r0
    e738:	e1a04001 	mov	r4, r1
    e73c:	e06330cc 	rsb	r3, r3, ip, asr #1
    e740:	da00002e 	ble	e800 <__s2b+0xec>
    e744:	e3a0c001 	mov	ip, #1
    e748:	e3a01000 	mov	r1, #0
    e74c:	e1a0c08c 	lsl	ip, ip, #1
    e750:	e153000c 	cmp	r3, ip
    e754:	e2811001 	add	r1, r1, #1
    e758:	cafffffb 	bgt	e74c <__s2b+0x38>
    e75c:	e1a00006 	mov	r0, r6
    e760:	ebffff81 	bl	e56c <_Balloc>
    e764:	e2501000 	subs	r1, r0, #0
    e768:	0a000026 	beq	e808 <__s2b+0xf4>
    e76c:	e59d3020 	ldr	r3, [sp, #32]
    e770:	e5813014 	str	r3, [r1, #20]
    e774:	e3a03001 	mov	r3, #1
    e778:	e3570009 	cmp	r7, #9
    e77c:	d3a07009 	movle	r7, #9
    e780:	e5813010 	str	r3, [r1, #16]
    e784:	d284400a 	addle	r4, r4, #10
    e788:	ca00000e 	bgt	e7c8 <__s2b+0xb4>
    e78c:	e1550007 	cmp	r5, r7
    e790:	da000009 	ble	e7bc <__s2b+0xa8>
    e794:	e0455007 	sub	r5, r5, r7
    e798:	e0845005 	add	r5, r4, r5
    e79c:	e4d43001 	ldrb	r3, [r4], #1
    e7a0:	e3a0200a 	mov	r2, #10
    e7a4:	e1a00006 	mov	r0, r6
    e7a8:	e2433030 	sub	r3, r3, #48	@ 0x30
    e7ac:	ebffff98 	bl	e614 <__multadd>
    e7b0:	e1540005 	cmp	r4, r5
    e7b4:	e1a01000 	mov	r1, r0
    e7b8:	1afffff7 	bne	e79c <__s2b+0x88>
    e7bc:	e1a00001 	mov	r0, r1
    e7c0:	e8bd47f0 	pop	{r4, r5, r6, r7, r8, r9, sl, lr}
    e7c4:	e12fff1e 	bx	lr
    e7c8:	e2849009 	add	r9, r4, #9
    e7cc:	e1a08009 	mov	r8, r9
    e7d0:	e0844007 	add	r4, r4, r7
    e7d4:	e4d83001 	ldrb	r3, [r8], #1
    e7d8:	e3a0200a 	mov	r2, #10
    e7dc:	e1a00006 	mov	r0, r6
    e7e0:	e2433030 	sub	r3, r3, #48	@ 0x30
    e7e4:	ebffff8a 	bl	e614 <__multadd>
    e7e8:	e1580004 	cmp	r8, r4
    e7ec:	e1a01000 	mov	r1, r0
    e7f0:	1afffff7 	bne	e7d4 <__s2b+0xc0>
    e7f4:	e2474008 	sub	r4, r7, #8
    e7f8:	e0894004 	add	r4, r9, r4
    e7fc:	eaffffe2 	b	e78c <__s2b+0x78>
    e800:	e3a01000 	mov	r1, #0
    e804:	eaffffd4 	b	e75c <__s2b+0x48>
    e808:	e1a02001 	mov	r2, r1
    e80c:	e59f300c 	ldr	r3, [pc, #12]	@ e820 <__s2b+0x10c>
    e810:	e3a010d3 	mov	r1, #211	@ 0xd3
    e814:	e59f0008 	ldr	r0, [pc, #8]	@ e824 <__s2b+0x110>
    e818:	ebffff39 	bl	e504 <__assert_func>
    e81c:	38e38e39 	.word	0x38e38e39
    e820:	000128bc 	.word	0x000128bc
    e824:	00012934 	.word	0x00012934

0000e828 <__hi0bits>:
    e828:	e3500801 	cmp	r0, #65536	@ 0x10000
    e82c:	e1a03000 	mov	r3, r0
    e830:	33a00010 	movcc	r0, #16
    e834:	23a00000 	movcs	r0, #0
    e838:	31a03013 	lslcc	r3, r3, r0
    e83c:	e3530401 	cmp	r3, #16777216	@ 0x1000000
    e840:	31a03403 	lslcc	r3, r3, #8
    e844:	32800008 	addcc	r0, r0, #8
    e848:	e373021f 	cmn	r3, #-268435455	@ 0xf0000001
    e84c:	91a03203 	lslls	r3, r3, #4
    e850:	92800004 	addls	r0, r0, #4
    e854:	e3730107 	cmn	r3, #-1073741823	@ 0xc0000001
    e858:	9a000002 	bls	e868 <__hi0bits+0x40>
    e85c:	e3530000 	cmp	r3, #0
    e860:	a2800001 	addge	r0, r0, #1
    e864:	e12fff1e 	bx	lr
    e868:	e1b03103 	lsls	r3, r3, #2
    e86c:	4a000003 	bmi	e880 <__hi0bits+0x58>
    e870:	e3130101 	tst	r3, #1073741824	@ 0x40000000
    e874:	12800003 	addne	r0, r0, #3
    e878:	03a00020 	moveq	r0, #32
    e87c:	e12fff1e 	bx	lr
    e880:	e2800002 	add	r0, r0, #2
    e884:	e12fff1e 	bx	lr

0000e888 <__lo0bits>:
    e888:	e5903000 	ldr	r3, [r0]
    e88c:	e2132007 	ands	r2, r3, #7
    e890:	e1a01000 	mov	r1, r0
    e894:	0a000008 	beq	e8bc <__lo0bits+0x34>
    e898:	e3130001 	tst	r3, #1
    e89c:	1a00001d 	bne	e918 <__lo0bits+0x90>
    e8a0:	e3130002 	tst	r3, #2
    e8a4:	11a030a3 	lsrne	r3, r3, #1
    e8a8:	01a03123 	lsreq	r3, r3, #2
    e8ac:	13a00001 	movne	r0, #1
    e8b0:	03a00002 	moveq	r0, #2
    e8b4:	e5813000 	str	r3, [r1]
    e8b8:	e12fff1e 	bx	lr
    e8bc:	e1a00803 	lsl	r0, r3, #16
    e8c0:	e1a00820 	lsr	r0, r0, #16
    e8c4:	e3500000 	cmp	r0, #0
    e8c8:	03a00010 	moveq	r0, #16
    e8cc:	11a00002 	movne	r0, r2
    e8d0:	01a03033 	lsreq	r3, r3, r0
    e8d4:	e20320ff 	and	r2, r3, #255	@ 0xff
    e8d8:	e3520000 	cmp	r2, #0
    e8dc:	01a03423 	lsreq	r3, r3, #8
    e8e0:	02800008 	addeq	r0, r0, #8
    e8e4:	e313000f 	tst	r3, #15
    e8e8:	01a03223 	lsreq	r3, r3, #4
    e8ec:	02800004 	addeq	r0, r0, #4
    e8f0:	e3130003 	tst	r3, #3
    e8f4:	01a03123 	lsreq	r3, r3, #2
    e8f8:	02800002 	addeq	r0, r0, #2
    e8fc:	e3130001 	tst	r3, #1
    e900:	1a000002 	bne	e910 <__lo0bits+0x88>
    e904:	e1b030a3 	lsrs	r3, r3, #1
    e908:	e2800001 	add	r0, r0, #1
    e90c:	0a000003 	beq	e920 <__lo0bits+0x98>
    e910:	e5813000 	str	r3, [r1]
    e914:	e12fff1e 	bx	lr
    e918:	e3a00000 	mov	r0, #0
    e91c:	e12fff1e 	bx	lr
    e920:	e3a00020 	mov	r0, #32
    e924:	e12fff1e 	bx	lr

0000e928 <__i2b>:
    e928:	e5903044 	ldr	r3, [r0, #68]	@ 0x44
    e92c:	e3530000 	cmp	r3, #0
    e930:	e92d4070 	push	{r4, r5, r6, lr}
    e934:	e1a04000 	mov	r4, r0
    e938:	e1a05001 	mov	r5, r1
    e93c:	0a00000b 	beq	e970 <__i2b+0x48>
    e940:	e5930004 	ldr	r0, [r3, #4]
    e944:	e3500000 	cmp	r0, #0
    e948:	0a000014 	beq	e9a0 <__i2b+0x78>
    e94c:	e5902000 	ldr	r2, [r0]
    e950:	e5832004 	str	r2, [r3, #4]
    e954:	e3a02000 	mov	r2, #0
    e958:	e3a03001 	mov	r3, #1
    e95c:	e5805014 	str	r5, [r0, #20]
    e960:	e580200c 	str	r2, [r0, #12]
    e964:	e5803010 	str	r3, [r0, #16]
    e968:	e8bd4070 	pop	{r4, r5, r6, lr}
    e96c:	e12fff1e 	bx	lr
    e970:	e3a02021 	mov	r2, #33	@ 0x21
    e974:	e3a01004 	mov	r1, #4
    e978:	eb000459 	bl	fae4 <_calloc_r>
    e97c:	e3500000 	cmp	r0, #0
    e980:	e1a03000 	mov	r3, r0
    e984:	e5840044 	str	r0, [r4, #68]	@ 0x44
    e988:	1affffec 	bne	e940 <__i2b+0x18>
    e98c:	e3a02000 	mov	r2, #0
    e990:	e59f3030 	ldr	r3, [pc, #48]	@ e9c8 <__i2b+0xa0>
    e994:	e59f1030 	ldr	r1, [pc, #48]	@ e9cc <__i2b+0xa4>
    e998:	e59f0030 	ldr	r0, [pc, #48]	@ e9d0 <__i2b+0xa8>
    e99c:	ebfffed8 	bl	e504 <__assert_func>
    e9a0:	e3a0201c 	mov	r2, #28
    e9a4:	e3a01001 	mov	r1, #1
    e9a8:	e1a00004 	mov	r0, r4
    e9ac:	eb00044c 	bl	fae4 <_calloc_r>
    e9b0:	e3500000 	cmp	r0, #0
    e9b4:	0afffff4 	beq	e98c <__i2b+0x64>
    e9b8:	e3a02001 	mov	r2, #1
    e9bc:	e3a03002 	mov	r3, #2
    e9c0:	e980000c 	stmib	r0, {r2, r3}
    e9c4:	eaffffe2 	b	e954 <__i2b+0x2c>
    e9c8:	000128bc 	.word	0x000128bc
    e9cc:	00000145 	.word	0x00000145
    e9d0:	00012934 	.word	0x00012934

0000e9d4 <__multiply>:
    e9d4:	e92d4ff0 	push	{r4, r5, r6, r7, r8, r9, sl, fp, lr}
    e9d8:	e5923010 	ldr	r3, [r2, #16]
    e9dc:	e5919010 	ldr	r9, [r1, #16]
    e9e0:	e1590003 	cmp	r9, r3
    e9e4:	e1a0a002 	mov	sl, r2
    e9e8:	b1a0a002 	movlt	sl, r2
    e9ec:	a1a0a001 	movge	sl, r1
    e9f0:	b1a06003 	movlt	r6, r3
    e9f4:	a1a06009 	movge	r6, r9
    e9f8:	a1a09003 	movge	r9, r3
    e9fc:	e1a07001 	mov	r7, r1
    ea00:	b1a07001 	movlt	r7, r1
    ea04:	e99a000a 	ldmib	sl, {r1, r3}
    ea08:	e0864009 	add	r4, r6, r9
    ea0c:	a1a07002 	movge	r7, r2
    ea10:	e1530004 	cmp	r3, r4
    ea14:	b2811001 	addlt	r1, r1, #1
    ea18:	e24dd014 	sub	sp, sp, #20
    ea1c:	ebfffed2 	bl	e56c <_Balloc>
    ea20:	e3500000 	cmp	r0, #0
    ea24:	0a000067 	beq	ebc8 <__multiply+0x1f4>
    ea28:	e2808014 	add	r8, r0, #20
    ea2c:	e0885104 	add	r5, r8, r4, lsl #2
    ea30:	e1580005 	cmp	r8, r5
    ea34:	31a03008 	movcc	r3, r8
    ea38:	33a02000 	movcc	r2, #0
    ea3c:	2a000002 	bcs	ea4c <__multiply+0x78>
    ea40:	e4832004 	str	r2, [r3], #4
    ea44:	e1550003 	cmp	r5, r3
    ea48:	8afffffc 	bhi	ea40 <__multiply+0x6c>
    ea4c:	e2877014 	add	r7, r7, #20
    ea50:	e0879109 	add	r9, r7, r9, lsl #2
    ea54:	e28ab014 	add	fp, sl, #20
    ea58:	e1570009 	cmp	r7, r9
    ea5c:	e08b6106 	add	r6, fp, r6, lsl #2
    ea60:	2a00004c 	bcs	eb98 <__multiply+0x1c4>
    ea64:	e046300a 	sub	r3, r6, sl
    ea68:	e2433015 	sub	r3, r3, #21
    ea6c:	e28aa015 	add	sl, sl, #21
    ea70:	e156000a 	cmp	r6, sl
    ea74:	e3c33003 	bic	r3, r3, #3
    ea78:	e2833004 	add	r3, r3, #4
    ea7c:	33a03004 	movcc	r3, #4
    ea80:	e1a02007 	mov	r2, r7
    ea84:	e1a0a003 	mov	sl, r3
    ea88:	e1a07000 	mov	r7, r0
    ea8c:	e59fc148 	ldr	ip, [pc, #328]	@ ebdc <__multiply+0x208>
    ea90:	e58d5008 	str	r5, [sp, #8]
    ea94:	e58d400c 	str	r4, [sp, #12]
    ea98:	ea000004 	b	eab0 <__multiply+0xdc>
    ea9c:	e1b01821 	lsrs	r1, r1, #16
    eaa0:	1a00001e 	bne	eb20 <__multiply+0x14c>
    eaa4:	e1590002 	cmp	r9, r2
    eaa8:	e2888004 	add	r8, r8, #4
    eaac:	9a000036 	bls	eb8c <__multiply+0x1b8>
    eab0:	e4921004 	ldr	r1, [r2], #4
    eab4:	e011500c 	ands	r5, r1, ip
    eab8:	0afffff7 	beq	ea9c <__multiply+0xc8>
    eabc:	e1a0400b 	mov	r4, fp
    eac0:	e1a0e008 	mov	lr, r8
    eac4:	e3a03000 	mov	r3, #0
    eac8:	e88d0804 	stm	sp, {r2, fp}
    eacc:	e4940004 	ldr	r0, [r4], #4
    ead0:	e59e1000 	ldr	r1, [lr]
    ead4:	e000b00c 	and	fp, r0, ip
    ead8:	e001200c 	and	r2, r1, ip
    eadc:	e0222b95 	mla	r2, r5, fp, r2
    eae0:	e1a00820 	lsr	r0, r0, #16
    eae4:	e1a01821 	lsr	r1, r1, #16
    eae8:	e0211095 	mla	r1, r5, r0, r1
    eaec:	e0822003 	add	r2, r2, r3
    eaf0:	e0811822 	add	r1, r1, r2, lsr #16
    eaf4:	e002200c 	and	r2, r2, ip
    eaf8:	e1822801 	orr	r2, r2, r1, lsl #16
    eafc:	e1560004 	cmp	r6, r4
    eb00:	e48e2004 	str	r2, [lr], #4
    eb04:	e1a03821 	lsr	r3, r1, #16
    eb08:	8affffef 	bhi	eacc <__multiply+0xf8>
    eb0c:	e89d0804 	ldm	sp, {r2, fp}
    eb10:	e788300a 	str	r3, [r8, sl]
    eb14:	e5121004 	ldr	r1, [r2, #-4]
    eb18:	e1b01821 	lsrs	r1, r1, #16
    eb1c:	0affffe0 	beq	eaa4 <__multiply+0xd0>
    eb20:	e5983000 	ldr	r3, [r8]
    eb24:	e1a0000b 	mov	r0, fp
    eb28:	e1a04003 	mov	r4, r3
    eb2c:	e1a0e008 	mov	lr, r8
    eb30:	e3a05000 	mov	r5, #0
    eb34:	e58d2000 	str	r2, [sp]
    eb38:	e003200c 	and	r2, r3, ip
    eb3c:	e5903000 	ldr	r3, [r0]
    eb40:	e003300c 	and	r3, r3, ip
    eb44:	e0235391 	mla	r3, r1, r3, r5
    eb48:	e0833824 	add	r3, r3, r4, lsr #16
    eb4c:	e1822803 	orr	r2, r2, r3, lsl #16
    eb50:	e48e2004 	str	r2, [lr], #4
    eb54:	e4905004 	ldr	r5, [r0], #4
    eb58:	e59e4000 	ldr	r4, [lr]
    eb5c:	e1a05825 	lsr	r5, r5, #16
    eb60:	e004200c 	and	r2, r4, ip
    eb64:	e0222591 	mla	r2, r1, r5, r2
    eb68:	e1500006 	cmp	r0, r6
    eb6c:	e0823823 	add	r3, r2, r3, lsr #16
    eb70:	e1a05823 	lsr	r5, r3, #16
    eb74:	3affffef 	bcc	eb38 <__multiply+0x164>
    eb78:	e59d2000 	ldr	r2, [sp]
    eb7c:	e1590002 	cmp	r9, r2
    eb80:	e788300a 	str	r3, [r8, sl]
    eb84:	e2888004 	add	r8, r8, #4
    eb88:	8affffc8 	bhi	eab0 <__multiply+0xdc>
    eb8c:	e1a00007 	mov	r0, r7
    eb90:	e59d5008 	ldr	r5, [sp, #8]
    eb94:	e59d400c 	ldr	r4, [sp, #12]
    eb98:	e3540000 	cmp	r4, #0
    eb9c:	ca000002 	bgt	ebac <__multiply+0x1d8>
    eba0:	ea000004 	b	ebb8 <__multiply+0x1e4>
    eba4:	e2544001 	subs	r4, r4, #1
    eba8:	0a000002 	beq	ebb8 <__multiply+0x1e4>
    ebac:	e5353004 	ldr	r3, [r5, #-4]!
    ebb0:	e3530000 	cmp	r3, #0
    ebb4:	0afffffa 	beq	eba4 <__multiply+0x1d0>
    ebb8:	e5804010 	str	r4, [r0, #16]
    ebbc:	e28dd014 	add	sp, sp, #20
    ebc0:	e8bd4ff0 	pop	{r4, r5, r6, r7, r8, r9, sl, fp, lr}
    ebc4:	e12fff1e 	bx	lr
    ebc8:	e1a02000 	mov	r2, r0
    ebcc:	e59f300c 	ldr	r3, [pc, #12]	@ ebe0 <__multiply+0x20c>
    ebd0:	e59f100c 	ldr	r1, [pc, #12]	@ ebe4 <__multiply+0x210>
    ebd4:	e59f000c 	ldr	r0, [pc, #12]	@ ebe8 <__multiply+0x214>
    ebd8:	ebfffe49 	bl	e504 <__assert_func>
    ebdc:	0000ffff 	.word	0x0000ffff
    ebe0:	000128bc 	.word	0x000128bc
    ebe4:	00000162 	.word	0x00000162
    ebe8:	00012934 	.word	0x00012934

0000ebec <__pow5mult>:
    ebec:	e2123003 	ands	r3, r2, #3
    ebf0:	e92d41f0 	push	{r4, r5, r6, r7, r8, lr}
    ebf4:	e1a04002 	mov	r4, r2
    ebf8:	e1a07000 	mov	r7, r0
    ebfc:	01a06001 	moveq	r6, r1
    ec00:	1a000026 	bne	eca0 <__pow5mult+0xb4>
    ec04:	e1b04144 	asrs	r4, r4, #2
    ec08:	0a00001a 	beq	ec78 <__pow5mult+0x8c>
    ec0c:	e5975040 	ldr	r5, [r7, #64]	@ 0x40
    ec10:	e3550000 	cmp	r5, #0
    ec14:	0a000028 	beq	ecbc <__pow5mult+0xd0>
    ec18:	e3a08000 	mov	r8, #0
    ec1c:	ea000005 	b	ec38 <__pow5mult+0x4c>
    ec20:	e1b040c4 	asrs	r4, r4, #1
    ec24:	0a000013 	beq	ec78 <__pow5mult+0x8c>
    ec28:	e5950000 	ldr	r0, [r5]
    ec2c:	e3500000 	cmp	r0, #0
    ec30:	0a000013 	beq	ec84 <__pow5mult+0x98>
    ec34:	e1a05000 	mov	r5, r0
    ec38:	e3140001 	tst	r4, #1
    ec3c:	0afffff7 	beq	ec20 <__pow5mult+0x34>
    ec40:	e1a02005 	mov	r2, r5
    ec44:	e1a01006 	mov	r1, r6
    ec48:	e1a00007 	mov	r0, r7
    ec4c:	ebffff60 	bl	e9d4 <__multiply>
    ec50:	e3560000 	cmp	r6, #0
    ec54:	0a000004 	beq	ec6c <__pow5mult+0x80>
    ec58:	e5973044 	ldr	r3, [r7, #68]	@ 0x44
    ec5c:	e5962004 	ldr	r2, [r6, #4]
    ec60:	e7931102 	ldr	r1, [r3, r2, lsl #2]
    ec64:	e5861000 	str	r1, [r6]
    ec68:	e7836102 	str	r6, [r3, r2, lsl #2]
    ec6c:	e1b040c4 	asrs	r4, r4, #1
    ec70:	e1a06000 	mov	r6, r0
    ec74:	1affffeb 	bne	ec28 <__pow5mult+0x3c>
    ec78:	e1a00006 	mov	r0, r6
    ec7c:	e8bd41f0 	pop	{r4, r5, r6, r7, r8, lr}
    ec80:	e12fff1e 	bx	lr
    ec84:	e1a02005 	mov	r2, r5
    ec88:	e1a01005 	mov	r1, r5
    ec8c:	e1a00007 	mov	r0, r7
    ec90:	ebffff4f 	bl	e9d4 <__multiply>
    ec94:	e5850000 	str	r0, [r5]
    ec98:	e5808000 	str	r8, [r0]
    ec9c:	eaffffe4 	b	ec34 <__pow5mult+0x48>
    eca0:	e59f205c 	ldr	r2, [pc, #92]	@ ed04 <__pow5mult+0x118>
    eca4:	e2433001 	sub	r3, r3, #1
    eca8:	e7922103 	ldr	r2, [r2, r3, lsl #2]
    ecac:	e3a03000 	mov	r3, #0
    ecb0:	ebfffe57 	bl	e614 <__multadd>
    ecb4:	e1a06000 	mov	r6, r0
    ecb8:	eaffffd1 	b	ec04 <__pow5mult+0x18>
    ecbc:	e3a01001 	mov	r1, #1
    ecc0:	e1a00007 	mov	r0, r7
    ecc4:	ebfffe28 	bl	e56c <_Balloc>
    ecc8:	e2505000 	subs	r5, r0, #0
    eccc:	0a000007 	beq	ecf0 <__pow5mult+0x104>
    ecd0:	e59f3030 	ldr	r3, [pc, #48]	@ ed08 <__pow5mult+0x11c>
    ecd4:	e3a02001 	mov	r2, #1
    ecd8:	e5853014 	str	r3, [r5, #20]
    ecdc:	e3a03000 	mov	r3, #0
    ece0:	e5852010 	str	r2, [r5, #16]
    ece4:	e5875040 	str	r5, [r7, #64]	@ 0x40
    ece8:	e5853000 	str	r3, [r5]
    ecec:	eaffffc9 	b	ec18 <__pow5mult+0x2c>
    ecf0:	e1a02005 	mov	r2, r5
    ecf4:	e59f3010 	ldr	r3, [pc, #16]	@ ed0c <__pow5mult+0x120>
    ecf8:	e59f1010 	ldr	r1, [pc, #16]	@ ed10 <__pow5mult+0x124>
    ecfc:	e59f0010 	ldr	r0, [pc, #16]	@ ed14 <__pow5mult+0x128>
    ed00:	ebfffdff 	bl	e504 <__assert_func>
    ed04:	00012618 	.word	0x00012618
    ed08:	00000271 	.word	0x00000271
    ed0c:	000128bc 	.word	0x000128bc
    ed10:	00000145 	.word	0x00000145
    ed14:	00012934 	.word	0x00012934

0000ed18 <__lshift>:
    ed18:	e92d47f0 	push	{r4, r5, r6, r7, r8, r9, sl, lr}
    ed1c:	e1a04001 	mov	r4, r1
    ed20:	e5947010 	ldr	r7, [r4, #16]
    ed24:	e5943008 	ldr	r3, [r4, #8]
    ed28:	e08772c2 	add	r7, r7, r2, asr #5
    ed2c:	e2875001 	add	r5, r7, #1
    ed30:	e1550003 	cmp	r5, r3
    ed34:	e1a08002 	mov	r8, r2
    ed38:	e1a06000 	mov	r6, r0
    ed3c:	e5911004 	ldr	r1, [r1, #4]
    ed40:	e1a092c2 	asr	r9, r2, #5
    ed44:	da000003 	ble	ed58 <__lshift+0x40>
    ed48:	e1a03083 	lsl	r3, r3, #1
    ed4c:	e1550003 	cmp	r5, r3
    ed50:	e2811001 	add	r1, r1, #1
    ed54:	cafffffb 	bgt	ed48 <__lshift+0x30>
    ed58:	e1a00006 	mov	r0, r6
    ed5c:	ebfffe02 	bl	e56c <_Balloc>
    ed60:	e3500000 	cmp	r0, #0
    ed64:	0a000034 	beq	ee3c <__lshift+0x124>
    ed68:	e3590000 	cmp	r9, #0
    ed6c:	e280e014 	add	lr, r0, #20
    ed70:	da000009 	ble	ed9c <__lshift+0x84>
    ed74:	e1a0300e 	mov	r3, lr
    ed78:	e3a01000 	mov	r1, #0
    ed7c:	e2892005 	add	r2, r9, #5
    ed80:	e1a0c102 	lsl	ip, r2, #2
    ed84:	e0802102 	add	r2, r0, r2, lsl #2
    ed88:	e4831004 	str	r1, [r3], #4
    ed8c:	e1530002 	cmp	r3, r2
    ed90:	1afffffc 	bne	ed88 <__lshift+0x70>
    ed94:	e24c3014 	sub	r3, ip, #20
    ed98:	e08ee003 	add	lr, lr, r3
    ed9c:	e5942010 	ldr	r2, [r4, #16]
    eda0:	e2843014 	add	r3, r4, #20
    eda4:	e218801f 	ands	r8, r8, #31
    eda8:	e0832102 	add	r2, r3, r2, lsl #2
    edac:	0a00001c 	beq	ee24 <__lshift+0x10c>
    edb0:	e1a0900e 	mov	r9, lr
    edb4:	e3a0c000 	mov	ip, #0
    edb8:	e268a020 	rsb	sl, r8, #32
    edbc:	e5931000 	ldr	r1, [r3]
    edc0:	e18c1811 	orr	r1, ip, r1, lsl r8
    edc4:	e4891004 	str	r1, [r9], #4
    edc8:	e493c004 	ldr	ip, [r3], #4
    edcc:	e1520003 	cmp	r2, r3
    edd0:	e1a0ca3c 	lsr	ip, ip, sl
    edd4:	8afffff8 	bhi	edbc <__lshift+0xa4>
    edd8:	e0423004 	sub	r3, r2, r4
    eddc:	e2433015 	sub	r3, r3, #21
    ede0:	e2841015 	add	r1, r4, #21
    ede4:	e1520001 	cmp	r2, r1
    ede8:	e3c33003 	bic	r3, r3, #3
    edec:	e2833004 	add	r3, r3, #4
    edf0:	33a03004 	movcc	r3, #4
    edf4:	e35c0000 	cmp	ip, #0
    edf8:	e78ec003 	str	ip, [lr, r3]
    edfc:	1a000000 	bne	ee04 <__lshift+0xec>
    ee00:	e1a05007 	mov	r5, r7
    ee04:	e5963044 	ldr	r3, [r6, #68]	@ 0x44
    ee08:	e5942004 	ldr	r2, [r4, #4]
    ee0c:	e7931102 	ldr	r1, [r3, r2, lsl #2]
    ee10:	e5805010 	str	r5, [r0, #16]
    ee14:	e5841000 	str	r1, [r4]
    ee18:	e7834102 	str	r4, [r3, r2, lsl #2]
    ee1c:	e8bd47f0 	pop	{r4, r5, r6, r7, r8, r9, sl, lr}
    ee20:	e12fff1e 	bx	lr
    ee24:	e24e1004 	sub	r1, lr, #4
    ee28:	e493c004 	ldr	ip, [r3], #4
    ee2c:	e1520003 	cmp	r2, r3
    ee30:	e5a1c004 	str	ip, [r1, #4]!
    ee34:	8afffffb 	bhi	ee28 <__lshift+0x110>
    ee38:	eafffff0 	b	ee00 <__lshift+0xe8>
    ee3c:	e1a02000 	mov	r2, r0
    ee40:	e59f3008 	ldr	r3, [pc, #8]	@ ee50 <__lshift+0x138>
    ee44:	e59f1008 	ldr	r1, [pc, #8]	@ ee54 <__lshift+0x13c>
    ee48:	e59f0008 	ldr	r0, [pc, #8]	@ ee58 <__lshift+0x140>
    ee4c:	ebfffdac 	bl	e504 <__assert_func>
    ee50:	000128bc 	.word	0x000128bc
    ee54:	000001de 	.word	0x000001de
    ee58:	00012934 	.word	0x00012934

0000ee5c <__mcmp>:
    ee5c:	e52de004 	push	{lr}		@ (str lr, [sp, #-4]!)
    ee60:	e5913010 	ldr	r3, [r1, #16]
    ee64:	e1a0e000 	mov	lr, r0
    ee68:	e5900010 	ldr	r0, [r0, #16]
    ee6c:	e0500003 	subs	r0, r0, r3
    ee70:	1a00000c 	bne	eea8 <__mcmp+0x4c>
    ee74:	e28ee014 	add	lr, lr, #20
    ee78:	e2811014 	add	r1, r1, #20
    ee7c:	e08e2103 	add	r2, lr, r3, lsl #2
    ee80:	e0813103 	add	r3, r1, r3, lsl #2
    ee84:	ea000001 	b	ee90 <__mcmp+0x34>
    ee88:	e15e0002 	cmp	lr, r2
    ee8c:	2a000005 	bcs	eea8 <__mcmp+0x4c>
    ee90:	e532c004 	ldr	ip, [r2, #-4]!
    ee94:	e5331004 	ldr	r1, [r3, #-4]!
    ee98:	e15c0001 	cmp	ip, r1
    ee9c:	0afffff9 	beq	ee88 <__mcmp+0x2c>
    eea0:	33e00000 	mvncc	r0, #0
    eea4:	23a00001 	movcs	r0, #1
    eea8:	e49de004 	pop	{lr}		@ (ldr lr, [sp], #4)
    eeac:	e12fff1e 	bx	lr

0000eeb0 <__mdiff>:
    eeb0:	e92d4ff0 	push	{r4, r5, r6, r7, r8, r9, sl, fp, lr}
    eeb4:	e1a04002 	mov	r4, r2
    eeb8:	e5912010 	ldr	r2, [r1, #16]
    eebc:	e5943010 	ldr	r3, [r4, #16]
    eec0:	e0422003 	sub	r2, r2, r3
    eec4:	e3520000 	cmp	r2, #0
    eec8:	e1a09001 	mov	r9, r1
    eecc:	e24dd00c 	sub	sp, sp, #12
    eed0:	1a00005c 	bne	f048 <__mdiff+0x198>
    eed4:	e281e014 	add	lr, r1, #20
    eed8:	e2842014 	add	r2, r4, #20
    eedc:	e0822103 	add	r2, r2, r3, lsl #2
    eee0:	e08e3103 	add	r3, lr, r3, lsl #2
    eee4:	ea000001 	b	eef0 <__mdiff+0x40>
    eee8:	e15e0003 	cmp	lr, r3
    eeec:	2a000058 	bcs	f054 <__mdiff+0x1a4>
    eef0:	e533c004 	ldr	ip, [r3, #-4]!
    eef4:	e5321004 	ldr	r1, [r2, #-4]!
    eef8:	e15c0001 	cmp	ip, r1
    eefc:	0afffff9 	beq	eee8 <__mdiff+0x38>
    ef00:	3a000051 	bcc	f04c <__mdiff+0x19c>
    ef04:	e1a03004 	mov	r3, r4
    ef08:	e3a05000 	mov	r5, #0
    ef0c:	e1a04009 	mov	r4, r9
    ef10:	e1a09003 	mov	r9, r3
    ef14:	e5941004 	ldr	r1, [r4, #4]
    ef18:	ebfffd93 	bl	e56c <_Balloc>
    ef1c:	e3500000 	cmp	r0, #0
    ef20:	0a00005d 	beq	f09c <__mdiff+0x1ec>
    ef24:	e280a014 	add	sl, r0, #20
    ef28:	e1a0800a 	mov	r8, sl
    ef2c:	e3a0c000 	mov	ip, #0
    ef30:	e5947010 	ldr	r7, [r4, #16]
    ef34:	e284b014 	add	fp, r4, #20
    ef38:	e5996010 	ldr	r6, [r9, #16]
    ef3c:	e580500c 	str	r5, [r0, #12]
    ef40:	e2842010 	add	r2, r4, #16
    ef44:	e59f5164 	ldr	r5, [pc, #356]	@ f0b0 <__mdiff+0x200>
    ef48:	e2894014 	add	r4, r9, #20
    ef4c:	e58db004 	str	fp, [sp, #4]
    ef50:	e0846106 	add	r6, r4, r6, lsl #2
    ef54:	e08b1107 	add	r1, fp, r7, lsl #2
    ef58:	e494e004 	ldr	lr, [r4], #4
    ef5c:	e5b23004 	ldr	r3, [r2, #4]!
    ef60:	e00eb005 	and	fp, lr, r5
    ef64:	e1a0e82e 	lsr	lr, lr, #16
    ef68:	e06ee823 	rsb	lr, lr, r3, lsr #16
    ef6c:	e0033005 	and	r3, r3, r5
    ef70:	e043300b 	sub	r3, r3, fp
    ef74:	e083300c 	add	r3, r3, ip
    ef78:	e08ec843 	add	ip, lr, r3, asr #16
    ef7c:	e0033005 	and	r3, r3, r5
    ef80:	e183380c 	orr	r3, r3, ip, lsl #16
    ef84:	e1560004 	cmp	r6, r4
    ef88:	e4883004 	str	r3, [r8], #4
    ef8c:	e1a0c84c 	asr	ip, ip, #16
    ef90:	8afffff0 	bhi	ef58 <__mdiff+0xa8>
    ef94:	e2892015 	add	r2, r9, #21
    ef98:	e1560002 	cmp	r6, r2
    ef9c:	33a02000 	movcc	r2, #0
    efa0:	23a02001 	movcs	r2, #1
    efa4:	e0466009 	sub	r6, r6, r9
    efa8:	e2466015 	sub	r6, r6, #21
    efac:	e1a06126 	lsr	r6, r6, #2
    efb0:	e2864001 	add	r4, r6, #1
    efb4:	e3520000 	cmp	r2, #0
    efb8:	03a04004 	moveq	r4, #4
    efbc:	11a04104 	lslne	r4, r4, #2
    efc0:	e59db004 	ldr	fp, [sp, #4]
    efc4:	e08b8004 	add	r8, fp, r4
    efc8:	e1510008 	cmp	r1, r8
    efcc:	e08a4004 	add	r4, sl, r4
    efd0:	81a06004 	movhi	r6, r4
    efd4:	81a0e008 	movhi	lr, r8
    efd8:	859f50d0 	ldrhi	r5, [pc, #208]	@ f0b0 <__mdiff+0x200>
    efdc:	9a000029 	bls	f088 <__mdiff+0x1d8>
    efe0:	e1a0a00c 	mov	sl, ip
    efe4:	e49e2004 	ldr	r2, [lr], #4
    efe8:	e0023005 	and	r3, r2, r5
    efec:	e083300c 	add	r3, r3, ip
    eff0:	e1a09822 	lsr	r9, r2, #16
    eff4:	e0899843 	add	r9, r9, r3, asr #16
    eff8:	e082300a 	add	r3, r2, sl
    effc:	e0033005 	and	r3, r3, r5
    f000:	e1833809 	orr	r3, r3, r9, lsl #16
    f004:	e151000e 	cmp	r1, lr
    f008:	e4863004 	str	r3, [r6], #4
    f00c:	e1a0c849 	asr	ip, r9, #16
    f010:	8afffff2 	bhi	efe0 <__mdiff+0x130>
    f014:	e2411001 	sub	r1, r1, #1
    f018:	e0411008 	sub	r1, r1, r8
    f01c:	e3c11003 	bic	r1, r1, #3
    f020:	e0844001 	add	r4, r4, r1
    f024:	ea000001 	b	f030 <__mdiff+0x180>
    f028:	e5343004 	ldr	r3, [r4, #-4]!
    f02c:	e2477001 	sub	r7, r7, #1
    f030:	e3530000 	cmp	r3, #0
    f034:	0afffffb 	beq	f028 <__mdiff+0x178>
    f038:	e5807010 	str	r7, [r0, #16]
    f03c:	e28dd00c 	add	sp, sp, #12
    f040:	e8bd4ff0 	pop	{r4, r5, r6, r7, r8, r9, sl, fp, lr}
    f044:	e12fff1e 	bx	lr
    f048:	aaffffad 	bge	ef04 <__mdiff+0x54>
    f04c:	e3a05001 	mov	r5, #1
    f050:	eaffffaf 	b	ef14 <__mdiff+0x64>
    f054:	e3a01000 	mov	r1, #0
    f058:	ebfffd43 	bl	e56c <_Balloc>
    f05c:	e3500000 	cmp	r0, #0
    f060:	13a02001 	movne	r2, #1
    f064:	13a03000 	movne	r3, #0
    f068:	15802010 	strne	r2, [r0, #16]
    f06c:	15803014 	strne	r3, [r0, #20]
    f070:	1afffff1 	bne	f03c <__mdiff+0x18c>
    f074:	e1a02000 	mov	r2, r0
    f078:	e59f3034 	ldr	r3, [pc, #52]	@ f0b4 <__mdiff+0x204>
    f07c:	e59f1034 	ldr	r1, [pc, #52]	@ f0b8 <__mdiff+0x208>
    f080:	e59f0034 	ldr	r0, [pc, #52]	@ f0bc <__mdiff+0x20c>
    f084:	ebfffd1e 	bl	e504 <__assert_func>
    f088:	e3520000 	cmp	r2, #0
    f08c:	03a06000 	moveq	r6, #0
    f090:	11a06106 	lslne	r6, r6, #2
    f094:	e08a4006 	add	r4, sl, r6
    f098:	eaffffe4 	b	f030 <__mdiff+0x180>
    f09c:	e1a02000 	mov	r2, r0
    f0a0:	e59f300c 	ldr	r3, [pc, #12]	@ f0b4 <__mdiff+0x204>
    f0a4:	e59f1014 	ldr	r1, [pc, #20]	@ f0c0 <__mdiff+0x210>
    f0a8:	e59f000c 	ldr	r0, [pc, #12]	@ f0bc <__mdiff+0x20c>
    f0ac:	ebfffd14 	bl	e504 <__assert_func>
    f0b0:	0000ffff 	.word	0x0000ffff
    f0b4:	000128bc 	.word	0x000128bc
    f0b8:	00000237 	.word	0x00000237
    f0bc:	00012934 	.word	0x00012934
    f0c0:	00000245 	.word	0x00000245

0000f0c4 <__ulp>:
    f0c4:	e59f3058 	ldr	r3, [pc, #88]	@ f124 <__ulp+0x60>
    f0c8:	e0033001 	and	r3, r3, r1
    f0cc:	e243350d 	sub	r3, r3, #54525952	@ 0x3400000
    f0d0:	e3530000 	cmp	r3, #0
    f0d4:	e1a02001 	mov	r2, r1
    f0d8:	c3a02000 	movgt	r2, #0
    f0dc:	da000002 	ble	f0ec <__ulp+0x28>
    f0e0:	e1a01003 	mov	r1, r3
    f0e4:	e1a00002 	mov	r0, r2
    f0e8:	e12fff1e 	bx	lr
    f0ec:	e2633000 	rsb	r3, r3, #0
    f0f0:	e3530505 	cmp	r3, #20971520	@ 0x1400000
    f0f4:	e1a03a43 	asr	r3, r3, #20
    f0f8:	b3a01702 	movlt	r1, #524288	@ 0x80000
    f0fc:	b3a02000 	movlt	r2, #0
    f100:	b1a03351 	asrlt	r3, r1, r3
    f104:	bafffff5 	blt	f0e0 <__ulp+0x1c>
    f108:	e2433014 	sub	r3, r3, #20
    f10c:	e353001e 	cmp	r3, #30
    f110:	d3a02102 	movle	r2, #-2147483648	@ 0x80000000
    f114:	c3a02001 	movgt	r2, #1
    f118:	d1a02332 	lsrle	r2, r2, r3
    f11c:	e3a03000 	mov	r3, #0
    f120:	eaffffee 	b	f0e0 <__ulp+0x1c>
    f124:	7ff00000 	.word	0x7ff00000

0000f128 <__b2d>:
    f128:	e92d4070 	push	{r4, r5, r6, lr}
    f12c:	e5904010 	ldr	r4, [r0, #16]
    f130:	e2802014 	add	r2, r0, #20
    f134:	e0824104 	add	r4, r2, r4, lsl #2
    f138:	e5145004 	ldr	r5, [r4, #-4]
    f13c:	e1a00005 	mov	r0, r5
    f140:	ebfffdb8 	bl	e828 <__hi0bits>
    f144:	e1a03000 	mov	r3, r0
    f148:	e350000a 	cmp	r0, #10
    f14c:	e2600020 	rsb	r0, r0, #32
    f150:	e5810000 	str	r0, [r1]
    f154:	e2446004 	sub	r6, r4, #4
    f158:	da00001b 	ble	f1cc <__b2d+0xa4>
    f15c:	e1520006 	cmp	r2, r6
    f160:	e243c00b 	sub	ip, r3, #11
    f164:	2a000010 	bcs	f1ac <__b2d+0x84>
    f168:	e35c0000 	cmp	ip, #0
    f16c:	e5143008 	ldr	r3, [r4, #-8]
    f170:	0a000010 	beq	f1b8 <__b2d+0x90>
    f174:	e26c6020 	rsb	r6, ip, #32
    f178:	e1a0e633 	lsr	lr, r3, r6
    f17c:	e2441008 	sub	r1, r4, #8
    f180:	e18eec15 	orr	lr, lr, r5, lsl ip
    f184:	e1520001 	cmp	r2, r1
    f188:	e38e15ff 	orr	r1, lr, #1069547520	@ 0x3fc00000
    f18c:	e1a03c13 	lsl	r3, r3, ip
    f190:	e3811603 	orr	r1, r1, #3145728	@ 0x300000
    f194:	2a000009 	bcs	f1c0 <__b2d+0x98>
    f198:	e514200c 	ldr	r2, [r4, #-12]
    f19c:	e1833632 	orr	r3, r3, r2, lsr r6
    f1a0:	e1a00003 	mov	r0, r3
    f1a4:	e8bd4070 	pop	{r4, r5, r6, lr}
    f1a8:	e12fff1e 	bx	lr
    f1ac:	e353000b 	cmp	r3, #11
    f1b0:	03a03000 	moveq	r3, #0
    f1b4:	1a000010 	bne	f1fc <__b2d+0xd4>
    f1b8:	e38515ff 	orr	r1, r5, #1069547520	@ 0x3fc00000
    f1bc:	e3811603 	orr	r1, r1, #3145728	@ 0x300000
    f1c0:	e1a00003 	mov	r0, r3
    f1c4:	e8bd4070 	pop	{r4, r5, r6, lr}
    f1c8:	e12fff1e 	bx	lr
    f1cc:	e1520006 	cmp	r2, r6
    f1d0:	e59f203c 	ldr	r2, [pc, #60]	@ f214 <__b2d+0xec>
    f1d4:	e263c00b 	rsb	ip, r3, #11
    f1d8:	e1821c35 	orr	r1, r2, r5, lsr ip
    f1dc:	23a02000 	movcs	r2, #0
    f1e0:	35142008 	ldrcc	r2, [r4, #-8]
    f1e4:	e2833015 	add	r3, r3, #21
    f1e8:	31a02c32 	lsrcc	r2, r2, ip
    f1ec:	e1823315 	orr	r3, r2, r5, lsl r3
    f1f0:	e1a00003 	mov	r0, r3
    f1f4:	e8bd4070 	pop	{r4, r5, r6, lr}
    f1f8:	e12fff1e 	bx	lr
    f1fc:	e3a03000 	mov	r3, #0
    f200:	e59f200c 	ldr	r2, [pc, #12]	@ f214 <__b2d+0xec>
    f204:	e1a00003 	mov	r0, r3
    f208:	e1821c15 	orr	r1, r2, r5, lsl ip
    f20c:	e8bd4070 	pop	{r4, r5, r6, lr}
    f210:	e12fff1e 	bx	lr
    f214:	3ff00000 	.word	0x3ff00000

0000f218 <__d2b>:
    f218:	e92d40f0 	push	{r4, r5, r6, r7, lr}
    f21c:	e3a01001 	mov	r1, #1
    f220:	e24dd00c 	sub	sp, sp, #12
    f224:	e1a06002 	mov	r6, r2
    f228:	e1a07003 	mov	r7, r3
    f22c:	ebfffcce 	bl	e56c <_Balloc>
    f230:	e2504000 	subs	r4, r0, #0
    f234:	0a000038 	beq	f31c <__d2b+0x104>
    f238:	e59f20f0 	ldr	r2, [pc, #240]	@ f330 <__d2b+0x118>
    f23c:	e3c714ff 	bic	r1, r7, #-16777216	@ 0xff000000
    f240:	e0125a27 	ands	r5, r2, r7, lsr #20
    f244:	e3c1160f 	bic	r1, r1, #15728640	@ 0xf00000
    f248:	13811601 	orrne	r1, r1, #1048576	@ 0x100000
    f24c:	e2562000 	subs	r2, r6, #0
    f250:	e58d1004 	str	r1, [sp, #4]
    f254:	1a000014 	bne	f2ac <__d2b+0x94>
    f258:	e28d0004 	add	r0, sp, #4
    f25c:	ebfffd89 	bl	e888 <__lo0bits>
    f260:	e3a02001 	mov	r2, #1
    f264:	e59d3004 	ldr	r3, [sp, #4]
    f268:	e3550000 	cmp	r5, #0
    f26c:	e5843014 	str	r3, [r4, #20]
    f270:	e5842010 	str	r2, [r4, #16]
    f274:	e2800020 	add	r0, r0, #32
    f278:	0a00001e 	beq	f2f8 <__d2b+0xe0>
    f27c:	e2453e43 	sub	r3, r5, #1072	@ 0x430
    f280:	e59d2020 	ldr	r2, [sp, #32]
    f284:	e2433003 	sub	r3, r3, #3
    f288:	e0833000 	add	r3, r3, r0
    f28c:	e5823000 	str	r3, [r2]
    f290:	e2600035 	rsb	r0, r0, #53	@ 0x35
    f294:	e59d3024 	ldr	r3, [sp, #36]	@ 0x24
    f298:	e5830000 	str	r0, [r3]
    f29c:	e1a00004 	mov	r0, r4
    f2a0:	e28dd00c 	add	sp, sp, #12
    f2a4:	e8bd40f0 	pop	{r4, r5, r6, r7, lr}
    f2a8:	e12fff1e 	bx	lr
    f2ac:	e1a0000d 	mov	r0, sp
    f2b0:	e58d2000 	str	r2, [sp]
    f2b4:	ebfffd73 	bl	e888 <__lo0bits>
    f2b8:	e3500000 	cmp	r0, #0
    f2bc:	e59d3004 	ldr	r3, [sp, #4]
    f2c0:	159d2000 	ldrne	r2, [sp]
    f2c4:	12601020 	rsbne	r1, r0, #32
    f2c8:	11822113 	orrne	r2, r2, r3, lsl r1
    f2cc:	059d2000 	ldreq	r2, [sp]
    f2d0:	11a03033 	lsrne	r3, r3, r0
    f2d4:	158d3004 	strne	r3, [sp, #4]
    f2d8:	e3530000 	cmp	r3, #0
    f2dc:	e5842014 	str	r2, [r4, #20]
    f2e0:	03a02001 	moveq	r2, #1
    f2e4:	13a02002 	movne	r2, #2
    f2e8:	e3550000 	cmp	r5, #0
    f2ec:	e5843018 	str	r3, [r4, #24]
    f2f0:	e5842010 	str	r2, [r4, #16]
    f2f4:	1affffe0 	bne	f27c <__d2b+0x64>
    f2f8:	e59d1020 	ldr	r1, [sp, #32]
    f2fc:	e2400e43 	sub	r0, r0, #1072	@ 0x430
    f300:	e2400002 	sub	r0, r0, #2
    f304:	e0843102 	add	r3, r4, r2, lsl #2
    f308:	e5810000 	str	r0, [r1]
    f30c:	e5930010 	ldr	r0, [r3, #16]
    f310:	ebfffd44 	bl	e828 <__hi0bits>
    f314:	e0600282 	rsb	r0, r0, r2, lsl #5
    f318:	eaffffdd 	b	f294 <__d2b+0x7c>
    f31c:	e1a02004 	mov	r2, r4
    f320:	e59f300c 	ldr	r3, [pc, #12]	@ f334 <__d2b+0x11c>
    f324:	e59f100c 	ldr	r1, [pc, #12]	@ f338 <__d2b+0x120>
    f328:	e59f000c 	ldr	r0, [pc, #12]	@ f33c <__d2b+0x124>
    f32c:	ebfffc74 	bl	e504 <__assert_func>
    f330:	000007ff 	.word	0x000007ff
    f334:	000128bc 	.word	0x000128bc
    f338:	0000030f 	.word	0x0000030f
    f33c:	00012934 	.word	0x00012934

0000f340 <__ratio>:
    f340:	e92d43f0 	push	{r4, r5, r6, r7, r8, r9, lr}
    f344:	e24dd00c 	sub	sp, sp, #12
    f348:	e1a08001 	mov	r8, r1
    f34c:	e1a0100d 	mov	r1, sp
    f350:	e1a09000 	mov	r9, r0
    f354:	ebffff73 	bl	f128 <__b2d>
    f358:	e1a04000 	mov	r4, r0
    f35c:	e1a05001 	mov	r5, r1
    f360:	e1a00008 	mov	r0, r8
    f364:	e28d1004 	add	r1, sp, #4
    f368:	ebffff6e 	bl	f128 <__b2d>
    f36c:	e5993010 	ldr	r3, [r9, #16]
    f370:	e5982010 	ldr	r2, [r8, #16]
    f374:	e0432002 	sub	r2, r3, r2
    f378:	e89d1008 	ldm	sp, {r3, ip}
    f37c:	e043300c 	sub	r3, r3, ip
    f380:	e0833282 	add	r3, r3, r2, lsl #5
    f384:	e3530000 	cmp	r3, #0
    f388:	da000009 	ble	f3b4 <__ratio+0x74>
    f38c:	e0857a03 	add	r7, r5, r3, lsl #20
    f390:	e1a05007 	mov	r5, r7
    f394:	e1a02000 	mov	r2, r0
    f398:	e1a03001 	mov	r3, r1
    f39c:	e1a00004 	mov	r0, r4
    f3a0:	e1a01005 	mov	r1, r5
    f3a4:	eb000b85 	bl	121c0 <__aeabi_ddiv>
    f3a8:	e28dd00c 	add	sp, sp, #12
    f3ac:	e8bd43f0 	pop	{r4, r5, r6, r7, r8, r9, lr}
    f3b0:	e12fff1e 	bx	lr
    f3b4:	e0633603 	rsb	r3, r3, r3, lsl #12
    f3b8:	e0819a03 	add	r9, r1, r3, lsl #20
    f3bc:	e1a01009 	mov	r1, r9
    f3c0:	eafffff3 	b	f394 <__ratio+0x54>

0000f3c4 <_mprec_log10>:
    f3c4:	e3500017 	cmp	r0, #23
    f3c8:	e92d4070 	push	{r4, r5, r6, lr}
    f3cc:	e1a06000 	mov	r6, r0
    f3d0:	da00000a 	ble	f400 <_mprec_log10+0x3c>
    f3d4:	e3a00000 	mov	r0, #0
    f3d8:	e3a04000 	mov	r4, #0
    f3dc:	e59f1034 	ldr	r1, [pc, #52]	@ f418 <_mprec_log10+0x54>
    f3e0:	e59f5034 	ldr	r5, [pc, #52]	@ f41c <_mprec_log10+0x58>
    f3e4:	e1a02004 	mov	r2, r4
    f3e8:	e1a03005 	mov	r3, r5
    f3ec:	eb000acf 	bl	11f30 <__aeabi_dmul>
    f3f0:	e2566001 	subs	r6, r6, #1
    f3f4:	1afffffa 	bne	f3e4 <_mprec_log10+0x20>
    f3f8:	e8bd4070 	pop	{r4, r5, r6, lr}
    f3fc:	e12fff1e 	bx	lr
    f400:	e59f3018 	ldr	r3, [pc, #24]	@ f420 <_mprec_log10+0x5c>
    f404:	e0833180 	add	r3, r3, r0, lsl #3
    f408:	e2831010 	add	r1, r3, #16
    f40c:	e8910003 	ldm	r1, {r0, r1}
    f410:	e8bd4070 	pop	{r4, r5, r6, lr}
    f414:	e12fff1e 	bx	lr
    f418:	3ff00000 	.word	0x3ff00000
    f41c:	40240000 	.word	0x40240000
    f420:	00012618 	.word	0x00012618

0000f424 <__copybits>:
    f424:	e241c001 	sub	ip, r1, #1
    f428:	e5921010 	ldr	r1, [r2, #16]
    f42c:	e2823014 	add	r3, r2, #20
    f430:	e1a0c2cc 	asr	ip, ip, #5
    f434:	e0831101 	add	r1, r3, r1, lsl #2
    f438:	e28cc001 	add	ip, ip, #1
    f43c:	e1530001 	cmp	r3, r1
    f440:	e080c10c 	add	ip, r0, ip, lsl #2
    f444:	2a000012 	bcs	f494 <__copybits+0x70>
    f448:	e92d4010 	push	{r4, lr}
    f44c:	e240e004 	sub	lr, r0, #4
    f450:	e4934004 	ldr	r4, [r3], #4
    f454:	e1510003 	cmp	r1, r3
    f458:	e5ae4004 	str	r4, [lr, #4]!
    f45c:	8afffffb 	bhi	f450 <__copybits+0x2c>
    f460:	e0413002 	sub	r3, r1, r2
    f464:	e2433015 	sub	r3, r3, #21
    f468:	e3c33003 	bic	r3, r3, #3
    f46c:	e2833004 	add	r3, r3, #4
    f470:	e0800003 	add	r0, r0, r3
    f474:	e15c0000 	cmp	ip, r0
    f478:	9a000003 	bls	f48c <__copybits+0x68>
    f47c:	e3a03000 	mov	r3, #0
    f480:	e4803004 	str	r3, [r0], #4
    f484:	e15c0000 	cmp	ip, r0
    f488:	8afffffc 	bhi	f480 <__copybits+0x5c>
    f48c:	e8bd4010 	pop	{r4, lr}
    f490:	e12fff1e 	bx	lr
    f494:	e15c0000 	cmp	ip, r0
    f498:	912fff1e 	bxls	lr
    f49c:	e3a03000 	mov	r3, #0
    f4a0:	e4803004 	str	r3, [r0], #4
    f4a4:	e15c0000 	cmp	ip, r0
    f4a8:	8afffffc 	bhi	f4a0 <__copybits+0x7c>
    f4ac:	e12fff1e 	bx	lr

0000f4b0 <__any_on>:
    f4b0:	e5903010 	ldr	r3, [r0, #16]
    f4b4:	e1a022c1 	asr	r2, r1, #5
    f4b8:	e1530002 	cmp	r3, r2
    f4bc:	e2800014 	add	r0, r0, #20
    f4c0:	b0803103 	addlt	r3, r0, r3, lsl #2
    f4c4:	ba00000c 	blt	f4fc <__any_on+0x4c>
    f4c8:	e0803102 	add	r3, r0, r2, lsl #2
    f4cc:	da00000a 	ble	f4fc <__any_on+0x4c>
    f4d0:	e211101f 	ands	r1, r1, #31
    f4d4:	0a000008 	beq	f4fc <__any_on+0x4c>
    f4d8:	e7902102 	ldr	r2, [r0, r2, lsl #2]
    f4dc:	e1a0c132 	lsr	ip, r2, r1
    f4e0:	e152011c 	cmp	r2, ip, lsl r1
    f4e4:	0a000004 	beq	f4fc <__any_on+0x4c>
    f4e8:	e3a00001 	mov	r0, #1
    f4ec:	e12fff1e 	bx	lr
    f4f0:	e5332004 	ldr	r2, [r3, #-4]!
    f4f4:	e3520000 	cmp	r2, #0
    f4f8:	1afffffa 	bne	f4e8 <__any_on+0x38>
    f4fc:	e1530000 	cmp	r3, r0
    f500:	8afffffa 	bhi	f4f0 <__any_on+0x40>
    f504:	e3a00000 	mov	r0, #0
    f508:	e12fff1e 	bx	lr

0000f50c <_fwalk_sglue>:
    f50c:	e92d47f0 	push	{r4, r5, r6, r7, r8, r9, sl, lr}
    f510:	e3a09000 	mov	r9, #0
    f514:	e1a08000 	mov	r8, r0
    f518:	e1a07001 	mov	r7, r1
    f51c:	e1a06002 	mov	r6, r2
    f520:	e5965004 	ldr	r5, [r6, #4]
    f524:	e2555001 	subs	r5, r5, #1
    f528:	e5964008 	ldr	r4, [r6, #8]
    f52c:	4a00000e 	bmi	f56c <_fwalk_sglue+0x60>
    f530:	e1d430bc 	ldrh	r3, [r4, #12]
    f534:	e3530001 	cmp	r3, #1
    f538:	9a000007 	bls	f55c <_fwalk_sglue+0x50>
    f53c:	e1d430fe 	ldrsh	r3, [r4, #14]
    f540:	e3730001 	cmn	r3, #1
    f544:	0a000004 	beq	f55c <_fwalk_sglue+0x50>
    f548:	e1a01004 	mov	r1, r4
    f54c:	e1a00008 	mov	r0, r8
    f550:	e1a0e00f 	mov	lr, pc
    f554:	e12fff17 	bx	r7
    f558:	e1899000 	orr	r9, r9, r0
    f55c:	e2455001 	sub	r5, r5, #1
    f560:	e3750001 	cmn	r5, #1
    f564:	e2844068 	add	r4, r4, #104	@ 0x68
    f568:	1afffff0 	bne	f530 <_fwalk_sglue+0x24>
    f56c:	e5966000 	ldr	r6, [r6]
    f570:	e3560000 	cmp	r6, #0
    f574:	1affffe9 	bne	f520 <_fwalk_sglue+0x14>
    f578:	e1a00009 	mov	r0, r9
    f57c:	e8bd47f0 	pop	{r4, r5, r6, r7, r8, r9, sl, lr}
    f580:	e12fff1e 	bx	lr

0000f584 <__localeconv_l>:
    f584:	e28000f0 	add	r0, r0, #240	@ 0xf0
    f588:	e12fff1e 	bx	lr

0000f58c <_localeconv_r>:
    f58c:	e59f0000 	ldr	r0, [pc]	@ f594 <_localeconv_r+0x8>
    f590:	e12fff1e 	bx	lr
    f594:	00012fa4 	.word	0x00012fa4

0000f598 <localeconv>:
    f598:	e59f0000 	ldr	r0, [pc]	@ f5a0 <localeconv+0x8>
    f59c:	e12fff1e 	bx	lr
    f5a0:	00012fa4 	.word	0x00012fa4

0000f5a4 <__smakebuf_r>:
    f5a4:	e92d41f0 	push	{r4, r5, r6, r7, r8, lr}
    f5a8:	e1d130fc 	ldrsh	r3, [r1, #12]
    f5ac:	e3130002 	tst	r3, #2
    f5b0:	e1a04001 	mov	r4, r1
    f5b4:	e24dd058 	sub	sp, sp, #88	@ 0x58
    f5b8:	0a000007 	beq	f5dc <__smakebuf_r+0x38>
    f5bc:	e3a02001 	mov	r2, #1
    f5c0:	e2813043 	add	r3, r1, #67	@ 0x43
    f5c4:	e5813000 	str	r3, [r1]
    f5c8:	e5813010 	str	r3, [r1, #16]
    f5cc:	e5812014 	str	r2, [r1, #20]
    f5d0:	e28dd058 	add	sp, sp, #88	@ 0x58
    f5d4:	e8bd41f0 	pop	{r4, r5, r6, r7, r8, lr}
    f5d8:	e12fff1e 	bx	lr
    f5dc:	e1d110fe 	ldrsh	r1, [r1, #14]
    f5e0:	e3510000 	cmp	r1, #0
    f5e4:	e1a06000 	mov	r6, r0
    f5e8:	ba00001d 	blt	f664 <__smakebuf_r+0xc0>
    f5ec:	e1a0200d 	mov	r2, sp
    f5f0:	eb000259 	bl	ff5c <_fstat_r>
    f5f4:	e3500000 	cmp	r0, #0
    f5f8:	ba000018 	blt	f660 <__smakebuf_r+0xbc>
    f5fc:	e3a08b01 	mov	r8, #1024	@ 0x400
    f600:	e3a07b02 	mov	r7, #2048	@ 0x800
    f604:	e59d5004 	ldr	r5, [sp, #4]
    f608:	e2055a0f 	and	r5, r5, #61440	@ 0xf000
    f60c:	e2453a02 	sub	r3, r5, #8192	@ 0x2000
    f610:	e2735000 	rsbs	r5, r3, #0
    f614:	e0a55003 	adc	r5, r5, r3
    f618:	e1a01008 	mov	r1, r8
    f61c:	e1a00006 	mov	r0, r6
    f620:	ebffefa9 	bl	b4cc <_malloc_r>
    f624:	e3500000 	cmp	r0, #0
    f628:	0a000014 	beq	f680 <__smakebuf_r+0xdc>
    f62c:	e1d430fc 	ldrsh	r3, [r4, #12]
    f630:	e3550000 	cmp	r5, #0
    f634:	e3833080 	orr	r3, r3, #128	@ 0x80
    f638:	e5848014 	str	r8, [r4, #20]
    f63c:	e5840000 	str	r0, [r4]
    f640:	e5840010 	str	r0, [r4, #16]
    f644:	e1c430bc 	strh	r3, [r4, #12]
    f648:	1a000018 	bne	f6b0 <__smakebuf_r+0x10c>
    f64c:	e1833007 	orr	r3, r3, r7
    f650:	e1c430bc 	strh	r3, [r4, #12]
    f654:	e28dd058 	add	sp, sp, #88	@ 0x58
    f658:	e8bd41f0 	pop	{r4, r5, r6, r7, r8, lr}
    f65c:	e12fff1e 	bx	lr
    f660:	e1d430fc 	ldrsh	r3, [r4, #12]
    f664:	e2135080 	ands	r5, r3, #128	@ 0x80
    f668:	03a08b01 	moveq	r8, #1024	@ 0x400
    f66c:	01a07005 	moveq	r7, r5
    f670:	13a05000 	movne	r5, #0
    f674:	13a08040 	movne	r8, #64	@ 0x40
    f678:	11a07005 	movne	r7, r5
    f67c:	eaffffe5 	b	f618 <__smakebuf_r+0x74>
    f680:	e1d430fc 	ldrsh	r3, [r4, #12]
    f684:	e3130c02 	tst	r3, #512	@ 0x200
    f688:	1affffd0 	bne	f5d0 <__smakebuf_r+0x2c>
    f68c:	e3a01001 	mov	r1, #1
    f690:	e3c33003 	bic	r3, r3, #3
    f694:	e2842043 	add	r2, r4, #67	@ 0x43
    f698:	e3833002 	orr	r3, r3, #2
    f69c:	e1c430bc 	strh	r3, [r4, #12]
    f6a0:	e5842000 	str	r2, [r4]
    f6a4:	e5842010 	str	r2, [r4, #16]
    f6a8:	e5841014 	str	r1, [r4, #20]
    f6ac:	eaffffc7 	b	f5d0 <__smakebuf_r+0x2c>
    f6b0:	e1a00006 	mov	r0, r6
    f6b4:	e1d410fe 	ldrsh	r1, [r4, #14]
    f6b8:	eb000237 	bl	ff9c <_isatty_r>
    f6bc:	e3500000 	cmp	r0, #0
    f6c0:	11d430bc 	ldrhne	r3, [r4, #12]
    f6c4:	13c33003 	bicne	r3, r3, #3
    f6c8:	13833001 	orrne	r3, r3, #1
    f6cc:	11a03803 	lslne	r3, r3, #16
    f6d0:	01d430fc 	ldrsheq	r3, [r4, #12]
    f6d4:	11a03843 	asrne	r3, r3, #16
    f6d8:	eaffffdb 	b	f64c <__smakebuf_r+0xa8>

0000f6dc <__swhatbuf_r>:
    f6dc:	e92d4070 	push	{r4, r5, r6, lr}
    f6e0:	e1a04001 	mov	r4, r1
    f6e4:	e1d110fe 	ldrsh	r1, [r1, #14]
    f6e8:	e3510000 	cmp	r1, #0
    f6ec:	e1a05002 	mov	r5, r2
    f6f0:	e1a06003 	mov	r6, r3
    f6f4:	e24dd058 	sub	sp, sp, #88	@ 0x58
    f6f8:	ba00000f 	blt	f73c <__swhatbuf_r+0x60>
    f6fc:	e1a0200d 	mov	r2, sp
    f700:	eb000215 	bl	ff5c <_fstat_r>
    f704:	e3500000 	cmp	r0, #0
    f708:	ba00000b 	blt	f73c <__swhatbuf_r+0x60>
    f70c:	e3a03b01 	mov	r3, #1024	@ 0x400
    f710:	e3a00b02 	mov	r0, #2048	@ 0x800
    f714:	e59d1004 	ldr	r1, [sp, #4]
    f718:	e2011a0f 	and	r1, r1, #61440	@ 0xf000
    f71c:	e2412a02 	sub	r2, r1, #8192	@ 0x2000
    f720:	e2721000 	rsbs	r1, r2, #0
    f724:	e0a11002 	adc	r1, r1, r2
    f728:	e5861000 	str	r1, [r6]
    f72c:	e5853000 	str	r3, [r5]
    f730:	e28dd058 	add	sp, sp, #88	@ 0x58
    f734:	e8bd4070 	pop	{r4, r5, r6, lr}
    f738:	e12fff1e 	bx	lr
    f73c:	e1d410bc 	ldrh	r1, [r4, #12]
    f740:	e2111080 	ands	r1, r1, #128	@ 0x80
    f744:	03a03b01 	moveq	r3, #1024	@ 0x400
    f748:	01a00001 	moveq	r0, r1
    f74c:	13a01000 	movne	r1, #0
    f750:	13a03040 	movne	r3, #64	@ 0x40
    f754:	11a00001 	movne	r0, r1
    f758:	eafffff2 	b	f728 <__swhatbuf_r+0x4c>

0000f75c <_setlocale_r>:
    f75c:	e92d4010 	push	{r4, lr}
    f760:	e2524000 	subs	r4, r2, #0
    f764:	0a000004 	beq	f77c <_setlocale_r+0x20>
    f768:	e1a00004 	mov	r0, r4
    f76c:	e59f1044 	ldr	r1, [pc, #68]	@ f7b8 <_setlocale_r+0x5c>
    f770:	eb000031 	bl	f83c <strcmp>
    f774:	e3500000 	cmp	r0, #0
    f778:	1a000002 	bne	f788 <_setlocale_r+0x2c>
    f77c:	e59f0038 	ldr	r0, [pc, #56]	@ f7bc <_setlocale_r+0x60>
    f780:	e8bd4010 	pop	{r4, lr}
    f784:	e12fff1e 	bx	lr
    f788:	e1a00004 	mov	r0, r4
    f78c:	e59f1028 	ldr	r1, [pc, #40]	@ f7bc <_setlocale_r+0x60>
    f790:	eb000029 	bl	f83c <strcmp>
    f794:	e3500000 	cmp	r0, #0
    f798:	0afffff7 	beq	f77c <_setlocale_r+0x20>
    f79c:	e1a00004 	mov	r0, r4
    f7a0:	e59f1018 	ldr	r1, [pc, #24]	@ f7c0 <_setlocale_r+0x64>
    f7a4:	eb000024 	bl	f83c <strcmp>
    f7a8:	e3500000 	cmp	r0, #0
    f7ac:	0afffff2 	beq	f77c <_setlocale_r+0x20>
    f7b0:	e3a00000 	mov	r0, #0
    f7b4:	eafffff1 	b	f780 <_setlocale_r+0x24>
    f7b8:	0001295c 	.word	0x0001295c
    f7bc:	00012958 	.word	0x00012958
    f7c0:	00012900 	.word	0x00012900

0000f7c4 <__locale_mb_cur_max>:
    f7c4:	e59f3004 	ldr	r3, [pc, #4]	@ f7d0 <__locale_mb_cur_max+0xc>
    f7c8:	e5d30128 	ldrb	r0, [r3, #296]	@ 0x128
    f7cc:	e12fff1e 	bx	lr
    f7d0:	00012eb4 	.word	0x00012eb4

0000f7d4 <setlocale>:
    f7d4:	e92d4010 	push	{r4, lr}
    f7d8:	e2514000 	subs	r4, r1, #0
    f7dc:	0a000004 	beq	f7f4 <setlocale+0x20>
    f7e0:	e1a00004 	mov	r0, r4
    f7e4:	e59f1044 	ldr	r1, [pc, #68]	@ f830 <setlocale+0x5c>
    f7e8:	eb000013 	bl	f83c <strcmp>
    f7ec:	e3500000 	cmp	r0, #0
    f7f0:	1a000002 	bne	f800 <setlocale+0x2c>
    f7f4:	e59f0038 	ldr	r0, [pc, #56]	@ f834 <setlocale+0x60>
    f7f8:	e8bd4010 	pop	{r4, lr}
    f7fc:	e12fff1e 	bx	lr
    f800:	e1a00004 	mov	r0, r4
    f804:	e59f1028 	ldr	r1, [pc, #40]	@ f834 <setlocale+0x60>
    f808:	eb00000b 	bl	f83c <strcmp>
    f80c:	e3500000 	cmp	r0, #0
    f810:	0afffff7 	beq	f7f4 <setlocale+0x20>
    f814:	e1a00004 	mov	r0, r4
    f818:	e59f1018 	ldr	r1, [pc, #24]	@ f838 <setlocale+0x64>
    f81c:	eb000006 	bl	f83c <strcmp>
    f820:	e3500000 	cmp	r0, #0
    f824:	13a00000 	movne	r0, #0
    f828:	0afffff1 	beq	f7f4 <setlocale+0x20>
    f82c:	eafffff1 	b	f7f8 <setlocale+0x24>
    f830:	0001295c 	.word	0x0001295c
    f834:	00012958 	.word	0x00012958
    f838:	00012900 	.word	0x00012900

0000f83c <strcmp>:
    f83c:	e020c001 	eor	ip, r0, r1
    f840:	e31c0003 	tst	ip, #3
    f844:	1a000021 	bne	f8d0 <strcmp+0x94>
    f848:	e210c003 	ands	ip, r0, #3
    f84c:	e3c00003 	bic	r0, r0, #3
    f850:	e3c11003 	bic	r1, r1, #3
    f854:	e4902004 	ldr	r2, [r0], #4
    f858:	04913004 	ldreq	r3, [r1], #4
    f85c:	0a000006 	beq	f87c <strcmp+0x40>
    f860:	e22cc003 	eor	ip, ip, #3
    f864:	e3e034ff 	mvn	r3, #-16777216	@ 0xff000000
    f868:	e1a0c18c 	lsl	ip, ip, #3
    f86c:	e1a0cc33 	lsr	ip, r3, ip
    f870:	e4913004 	ldr	r3, [r1], #4
    f874:	e182200c 	orr	r2, r2, ip
    f878:	e183300c 	orr	r3, r3, ip
    f87c:	e52d4004 	push	{r4}		@ (str r4, [sp, #-4]!)
    f880:	e3a04001 	mov	r4, #1
    f884:	e1844404 	orr	r4, r4, r4, lsl #8
    f888:	e1844804 	orr	r4, r4, r4, lsl #16
    f88c:	e042c004 	sub	ip, r2, r4
    f890:	e1520003 	cmp	r2, r3
    f894:	01ccc002 	biceq	ip, ip, r2
    f898:	011c0384 	tsteq	ip, r4, lsl #7
    f89c:	04902004 	ldreq	r2, [r0], #4
    f8a0:	04913004 	ldreq	r3, [r1], #4
    f8a4:	0afffff8 	beq	f88c <strcmp+0x50>
    f8a8:	e1a00c02 	lsl	r0, r2, #24
    f8ac:	e1a02422 	lsr	r2, r2, #8
    f8b0:	e3500001 	cmp	r0, #1
    f8b4:	21500c03 	cmpcs	r0, r3, lsl #24
    f8b8:	01a03423 	lsreq	r3, r3, #8
    f8bc:	0afffff9 	beq	f8a8 <strcmp+0x6c>
    f8c0:	e20330ff 	and	r3, r3, #255	@ 0xff
    f8c4:	e0630c20 	rsb	r0, r3, r0, lsr #24
    f8c8:	e49d4004 	pop	{r4}		@ (ldr r4, [sp], #4)
    f8cc:	e12fff1e 	bx	lr
    f8d0:	e3100003 	tst	r0, #3
    f8d4:	0a000006 	beq	f8f4 <strcmp+0xb8>
    f8d8:	e4d02001 	ldrb	r2, [r0], #1
    f8dc:	e4d13001 	ldrb	r3, [r1], #1
    f8e0:	e3520001 	cmp	r2, #1
    f8e4:	21520003 	cmpcs	r2, r3
    f8e8:	0afffff8 	beq	f8d0 <strcmp+0x94>
    f8ec:	e0420003 	sub	r0, r2, r3
    f8f0:	e12fff1e 	bx	lr
    f8f4:	e92d0030 	push	{r4, r5}
    f8f8:	e3a04001 	mov	r4, #1
    f8fc:	e1844404 	orr	r4, r4, r4, lsl #8
    f900:	e1844804 	orr	r4, r4, r4, lsl #16
    f904:	e4902004 	ldr	r2, [r0], #4
    f908:	e2015003 	and	r5, r1, #3
    f90c:	e3c11003 	bic	r1, r1, #3
    f910:	e4913004 	ldr	r3, [r1], #4
    f914:	e3550002 	cmp	r5, #2
    f918:	0a000017 	beq	f97c <strcmp+0x140>
    f91c:	8a00002d 	bhi	f9d8 <strcmp+0x19c>
    f920:	e3c254ff 	bic	r5, r2, #-16777216	@ 0xff000000
    f924:	e1550423 	cmp	r5, r3, lsr #8
    f928:	e042c004 	sub	ip, r2, r4
    f92c:	e1ccc002 	bic	ip, ip, r2
    f930:	1a000007 	bne	f954 <strcmp+0x118>
    f934:	e01cc384 	ands	ip, ip, r4, lsl #7
    f938:	04913004 	ldreq	r3, [r1], #4
    f93c:	1a000006 	bne	f95c <strcmp+0x120>
    f940:	e0255002 	eor	r5, r5, r2
    f944:	e1550c03 	cmp	r5, r3, lsl #24
    f948:	1a000008 	bne	f970 <strcmp+0x134>
    f94c:	e4902004 	ldr	r2, [r0], #4
    f950:	eafffff2 	b	f920 <strcmp+0xe4>
    f954:	e1a03423 	lsr	r3, r3, #8
    f958:	ea000036 	b	fa38 <strcmp+0x1fc>
    f95c:	e3dcc4ff 	bics	ip, ip, #-16777216	@ 0xff000000
    f960:	1a000031 	bne	fa2c <strcmp+0x1f0>
    f964:	e5d13000 	ldrb	r3, [r1]
    f968:	e1a05c22 	lsr	r5, r2, #24
    f96c:	ea000031 	b	fa38 <strcmp+0x1fc>
    f970:	e1a05c22 	lsr	r5, r2, #24
    f974:	e20330ff 	and	r3, r3, #255	@ 0xff
    f978:	ea00002e 	b	fa38 <strcmp+0x1fc>
    f97c:	e1a05802 	lsl	r5, r2, #16
    f980:	e042c004 	sub	ip, r2, r4
    f984:	e1a05825 	lsr	r5, r5, #16
    f988:	e1ccc002 	bic	ip, ip, r2
    f98c:	e1550823 	cmp	r5, r3, lsr #16
    f990:	1a00000e 	bne	f9d0 <strcmp+0x194>
    f994:	e01cc384 	ands	ip, ip, r4, lsl #7
    f998:	04913004 	ldreq	r3, [r1], #4
    f99c:	1a000004 	bne	f9b4 <strcmp+0x178>
    f9a0:	e0255002 	eor	r5, r5, r2
    f9a4:	e1550803 	cmp	r5, r3, lsl #16
    f9a8:	1a000006 	bne	f9c8 <strcmp+0x18c>
    f9ac:	e4902004 	ldr	r2, [r0], #4
    f9b0:	eafffff1 	b	f97c <strcmp+0x140>
    f9b4:	e1b0c80c 	lsls	ip, ip, #16
    f9b8:	1a00001b 	bne	fa2c <strcmp+0x1f0>
    f9bc:	e1d130b0 	ldrh	r3, [r1]
    f9c0:	e1a05822 	lsr	r5, r2, #16
    f9c4:	ea00001b 	b	fa38 <strcmp+0x1fc>
    f9c8:	e1a03803 	lsl	r3, r3, #16
    f9cc:	e1a05822 	lsr	r5, r2, #16
    f9d0:	e1a03823 	lsr	r3, r3, #16
    f9d4:	ea000017 	b	fa38 <strcmp+0x1fc>
    f9d8:	e20250ff 	and	r5, r2, #255	@ 0xff
    f9dc:	e1550c23 	cmp	r5, r3, lsr #24
    f9e0:	e042c004 	sub	ip, r2, r4
    f9e4:	e1ccc002 	bic	ip, ip, r2
    f9e8:	1a000007 	bne	fa0c <strcmp+0x1d0>
    f9ec:	e01cc384 	ands	ip, ip, r4, lsl #7
    f9f0:	04913004 	ldreq	r3, [r1], #4
    f9f4:	1a000006 	bne	fa14 <strcmp+0x1d8>
    f9f8:	e0255002 	eor	r5, r5, r2
    f9fc:	e1550403 	cmp	r5, r3, lsl #8
    fa00:	1a000006 	bne	fa20 <strcmp+0x1e4>
    fa04:	e4902004 	ldr	r2, [r0], #4
    fa08:	eafffff2 	b	f9d8 <strcmp+0x19c>
    fa0c:	e1a03c23 	lsr	r3, r3, #24
    fa10:	ea000008 	b	fa38 <strcmp+0x1fc>
    fa14:	e31200ff 	tst	r2, #255	@ 0xff
    fa18:	0a000003 	beq	fa2c <strcmp+0x1f0>
    fa1c:	e4913004 	ldr	r3, [r1], #4
    fa20:	e1a05422 	lsr	r5, r2, #8
    fa24:	e3c334ff 	bic	r3, r3, #-16777216	@ 0xff000000
    fa28:	ea000002 	b	fa38 <strcmp+0x1fc>
    fa2c:	e3a00000 	mov	r0, #0
    fa30:	e8bd0030 	pop	{r4, r5}
    fa34:	e12fff1e 	bx	lr
    fa38:	e20520ff 	and	r2, r5, #255	@ 0xff
    fa3c:	e20300ff 	and	r0, r3, #255	@ 0xff
    fa40:	e3500001 	cmp	r0, #1
    fa44:	21500002 	cmpcs	r0, r2
    fa48:	01a05425 	lsreq	r5, r5, #8
    fa4c:	01a03423 	lsreq	r3, r3, #8
    fa50:	0afffff8 	beq	fa38 <strcmp+0x1fc>
    fa54:	e0420000 	sub	r0, r2, r0
    fa58:	e8bd0030 	pop	{r4, r5}
    fa5c:	e12fff1e 	bx	lr

0000fa60 <_mbtowc_r>:
    fa60:	e59fc010 	ldr	ip, [pc, #16]	@ fa78 <_mbtowc_r+0x18>
    fa64:	e52de004 	push	{lr}		@ (str lr, [sp, #-4]!)
    fa68:	e59ce0e4 	ldr	lr, [ip, #228]	@ 0xe4
    fa6c:	e1a0c00e 	mov	ip, lr
    fa70:	e49de004 	pop	{lr}		@ (ldr lr, [sp], #4)
    fa74:	e12fff1c 	bx	ip
    fa78:	00012eb4 	.word	0x00012eb4

0000fa7c <__ascii_mbtowc>:
    fa7c:	e3510000 	cmp	r1, #0
    fa80:	e24dd008 	sub	sp, sp, #8
    fa84:	028d1004 	addeq	r1, sp, #4
    fa88:	e3520000 	cmp	r2, #0
    fa8c:	01a00002 	moveq	r0, r2
    fa90:	0a000006 	beq	fab0 <__ascii_mbtowc+0x34>
    fa94:	e3530000 	cmp	r3, #0
    fa98:	0a000006 	beq	fab8 <__ascii_mbtowc+0x3c>
    fa9c:	e5d23000 	ldrb	r3, [r2]
    faa0:	e5813000 	str	r3, [r1]
    faa4:	e5d22000 	ldrb	r2, [r2]
    faa8:	e2520000 	subs	r0, r2, #0
    faac:	13a00001 	movne	r0, #1
    fab0:	e28dd008 	add	sp, sp, #8
    fab4:	e12fff1e 	bx	lr
    fab8:	e3e00001 	mvn	r0, #1
    fabc:	eafffffb 	b	fab0 <__ascii_mbtowc+0x34>

0000fac0 <__errno>:
    fac0:	e59f3004 	ldr	r3, [pc, #4]	@ facc <__errno+0xc>
    fac4:	e5930000 	ldr	r0, [r3]
    fac8:	e12fff1e 	bx	lr
    facc:	00012970 	.word	0x00012970

0000fad0 <abort>:
    fad0:	e3a00006 	mov	r0, #6
    fad4:	e92d4010 	push	{r4, lr}
    fad8:	eb0001d5 	bl	10234 <raise>
    fadc:	e3a00001 	mov	r0, #1
    fae0:	ebffe312 	bl	8730 <_exit>

0000fae4 <_calloc_r>:
    fae4:	e1a03001 	mov	r3, r1
    fae8:	e92d4070 	push	{r4, r5, r6, lr}
    faec:	e0851293 	umull	r1, r5, r3, r2
    faf0:	e3550000 	cmp	r5, #0
    faf4:	1a000027 	bne	fb98 <_calloc_r+0xb4>
    faf8:	ebffee73 	bl	b4cc <_malloc_r>
    fafc:	e2504000 	subs	r4, r0, #0
    fb00:	0a000027 	beq	fba4 <_calloc_r+0xc0>
    fb04:	e5142004 	ldr	r2, [r4, #-4]
    fb08:	e3c22003 	bic	r2, r2, #3
    fb0c:	e2422004 	sub	r2, r2, #4
    fb10:	e3520024 	cmp	r2, #36	@ 0x24
    fb14:	8a00000e 	bhi	fb54 <_calloc_r+0x70>
    fb18:	e3520013 	cmp	r2, #19
    fb1c:	91a02004 	movls	r2, r4
    fb20:	9a000004 	bls	fb38 <_calloc_r+0x54>
    fb24:	e352001b 	cmp	r2, #27
    fb28:	e5845000 	str	r5, [r4]
    fb2c:	e5845004 	str	r5, [r4, #4]
    fb30:	92842008 	addls	r2, r4, #8
    fb34:	8a00000b 	bhi	fb68 <_calloc_r+0x84>
    fb38:	e3a03000 	mov	r3, #0
    fb3c:	e5823000 	str	r3, [r2]
    fb40:	e5823004 	str	r3, [r2, #4]
    fb44:	e5823008 	str	r3, [r2, #8]
    fb48:	e1a00004 	mov	r0, r4
    fb4c:	e8bd4070 	pop	{r4, r5, r6, lr}
    fb50:	e12fff1e 	bx	lr
    fb54:	e1a01005 	mov	r1, r5
    fb58:	ebfffa1d 	bl	e3d4 <memset>
    fb5c:	e1a00004 	mov	r0, r4
    fb60:	e8bd4070 	pop	{r4, r5, r6, lr}
    fb64:	e12fff1e 	bx	lr
    fb68:	e3a03000 	mov	r3, #0
    fb6c:	e3520024 	cmp	r2, #36	@ 0x24
    fb70:	12842010 	addne	r2, r4, #16
    fb74:	02842018 	addeq	r2, r4, #24
    fb78:	e5845008 	str	r5, [r4, #8]
    fb7c:	e584500c 	str	r5, [r4, #12]
    fb80:	05845010 	streq	r5, [r4, #16]
    fb84:	05845014 	streq	r5, [r4, #20]
    fb88:	e5823000 	str	r3, [r2]
    fb8c:	e5823004 	str	r3, [r2, #4]
    fb90:	e5823008 	str	r3, [r2, #8]
    fb94:	eaffffeb 	b	fb48 <_calloc_r+0x64>
    fb98:	ebffffc8 	bl	fac0 <__errno>
    fb9c:	e3a0300c 	mov	r3, #12
    fba0:	e5803000 	str	r3, [r0]
    fba4:	e3a04000 	mov	r4, #0
    fba8:	e1a00004 	mov	r0, r4
    fbac:	e8bd4070 	pop	{r4, r5, r6, lr}
    fbb0:	e12fff1e 	bx	lr

0000fbb4 <_fiprintf_r>:
    fbb4:	e92d000c 	push	{r2, r3}
    fbb8:	e52de004 	push	{lr}		@ (str lr, [sp, #-4]!)
    fbbc:	e24dd00c 	sub	sp, sp, #12
    fbc0:	e28d3014 	add	r3, sp, #20
    fbc4:	e59d2010 	ldr	r2, [sp, #16]
    fbc8:	e58d3004 	str	r3, [sp, #4]
    fbcc:	eb000238 	bl	104b4 <_vfiprintf_r>
    fbd0:	e28dd00c 	add	sp, sp, #12
    fbd4:	e49de004 	pop	{lr}		@ (ldr lr, [sp], #4)
    fbd8:	e28dd008 	add	sp, sp, #8
    fbdc:	e12fff1e 	bx	lr

0000fbe0 <fiprintf>:
    fbe0:	e92d000e 	push	{r1, r2, r3}
    fbe4:	e52de004 	push	{lr}		@ (str lr, [sp, #-4]!)
    fbe8:	e1a01000 	mov	r1, r0
    fbec:	e59f0024 	ldr	r0, [pc, #36]	@ fc18 <fiprintf+0x38>
    fbf0:	e24dd008 	sub	sp, sp, #8
    fbf4:	e28d3010 	add	r3, sp, #16
    fbf8:	e59d200c 	ldr	r2, [sp, #12]
    fbfc:	e5900000 	ldr	r0, [r0]
    fc00:	e58d3004 	str	r3, [sp, #4]
    fc04:	eb00022a 	bl	104b4 <_vfiprintf_r>
    fc08:	e28dd008 	add	sp, sp, #8
    fc0c:	e49de004 	pop	{lr}		@ (ldr lr, [sp], #4)
    fc10:	e28dd00c 	add	sp, sp, #12
    fc14:	e12fff1e 	bx	lr
    fc18:	00012970 	.word	0x00012970

0000fc1c <_fclose_r>:
    fc1c:	e92d4070 	push	{r4, r5, r6, lr}
    fc20:	e2514000 	subs	r4, r1, #0
    fc24:	0a000008 	beq	fc4c <_fclose_r+0x30>
    fc28:	e3500000 	cmp	r0, #0
    fc2c:	e1a05000 	mov	r5, r0
    fc30:	0a000002 	beq	fc40 <_fclose_r+0x24>
    fc34:	e5903034 	ldr	r3, [r0, #52]	@ 0x34
    fc38:	e3530000 	cmp	r3, #0
    fc3c:	0a00002d 	beq	fcf8 <_fclose_r+0xdc>
    fc40:	e1d430fc 	ldrsh	r3, [r4, #12]
    fc44:	e3530000 	cmp	r3, #0
    fc48:	1a000003 	bne	fc5c <_fclose_r+0x40>
    fc4c:	e3a06000 	mov	r6, #0
    fc50:	e1a00006 	mov	r0, r6
    fc54:	e8bd4070 	pop	{r4, r5, r6, lr}
    fc58:	e12fff1e 	bx	lr
    fc5c:	e1a01004 	mov	r1, r4
    fc60:	e1a00005 	mov	r0, r5
    fc64:	ebffed09 	bl	b090 <__sflush_r>
    fc68:	e594302c 	ldr	r3, [r4, #44]	@ 0x2c
    fc6c:	e3530000 	cmp	r3, #0
    fc70:	e1a06000 	mov	r6, r0
    fc74:	0a000005 	beq	fc90 <_fclose_r+0x74>
    fc78:	e1a00005 	mov	r0, r5
    fc7c:	e594101c 	ldr	r1, [r4, #28]
    fc80:	e1a0e00f 	mov	lr, pc
    fc84:	e12fff13 	bx	r3
    fc88:	e3500000 	cmp	r0, #0
    fc8c:	b3e06000 	mvnlt	r6, #0
    fc90:	e1d430bc 	ldrh	r3, [r4, #12]
    fc94:	e3130080 	tst	r3, #128	@ 0x80
    fc98:	1a000018 	bne	fd00 <_fclose_r+0xe4>
    fc9c:	e5941030 	ldr	r1, [r4, #48]	@ 0x30
    fca0:	e3510000 	cmp	r1, #0
    fca4:	0a000005 	beq	fcc0 <_fclose_r+0xa4>
    fca8:	e2843040 	add	r3, r4, #64	@ 0x40
    fcac:	e1510003 	cmp	r1, r3
    fcb0:	11a00005 	movne	r0, r5
    fcb4:	1bfff6ed 	blne	d870 <_free_r>
    fcb8:	e3a03000 	mov	r3, #0
    fcbc:	e5843030 	str	r3, [r4, #48]	@ 0x30
    fcc0:	e5941044 	ldr	r1, [r4, #68]	@ 0x44
    fcc4:	e3510000 	cmp	r1, #0
    fcc8:	0a000003 	beq	fcdc <_fclose_r+0xc0>
    fccc:	e1a00005 	mov	r0, r5
    fcd0:	ebfff6e6 	bl	d870 <_free_r>
    fcd4:	e3a03000 	mov	r3, #0
    fcd8:	e5843044 	str	r3, [r4, #68]	@ 0x44
    fcdc:	ebfff997 	bl	e340 <__sfp_lock_acquire>
    fce0:	e3a03000 	mov	r3, #0
    fce4:	e1c430bc 	strh	r3, [r4, #12]
    fce8:	ebfff995 	bl	e344 <__sfp_lock_release>
    fcec:	e1a00006 	mov	r0, r6
    fcf0:	e8bd4070 	pop	{r4, r5, r6, lr}
    fcf4:	e12fff1e 	bx	lr
    fcf8:	ebfff984 	bl	e310 <__sinit>
    fcfc:	eaffffcf 	b	fc40 <_fclose_r+0x24>
    fd00:	e1a00005 	mov	r0, r5
    fd04:	e5941010 	ldr	r1, [r4, #16]
    fd08:	ebfff6d8 	bl	d870 <_free_r>
    fd0c:	eaffffe2 	b	fc9c <_fclose_r+0x80>

0000fd10 <fclose>:
    fd10:	e59f3008 	ldr	r3, [pc, #8]	@ fd20 <fclose+0x10>
    fd14:	e1a01000 	mov	r1, r0
    fd18:	e5930000 	ldr	r0, [r3]
    fd1c:	eaffffbe 	b	fc1c <_fclose_r>
    fd20:	00012970 	.word	0x00012970

0000fd24 <_wctomb_r>:
    fd24:	e59fc010 	ldr	ip, [pc, #16]	@ fd3c <_wctomb_r+0x18>
    fd28:	e52de004 	push	{lr}		@ (str lr, [sp, #-4]!)
    fd2c:	e59ce0e0 	ldr	lr, [ip, #224]	@ 0xe0
    fd30:	e1a0c00e 	mov	ip, lr
    fd34:	e49de004 	pop	{lr}		@ (ldr lr, [sp], #4)
    fd38:	e12fff1c 	bx	ip
    fd3c:	00012eb4 	.word	0x00012eb4

0000fd40 <__ascii_wctomb>:
    fd40:	e3510000 	cmp	r1, #0
    fd44:	e1a03000 	mov	r3, r0
    fd48:	0a000006 	beq	fd68 <__ascii_wctomb+0x28>
    fd4c:	e35200ff 	cmp	r2, #255	@ 0xff
    fd50:	83a0208a 	movhi	r2, #138	@ 0x8a
    fd54:	83e00000 	mvnhi	r0, #0
    fd58:	85832000 	strhi	r2, [r3]
    fd5c:	93a00001 	movls	r0, #1
    fd60:	95c12000 	strbls	r2, [r1]
    fd64:	e12fff1e 	bx	lr
    fd68:	e1a00001 	mov	r0, r1
    fd6c:	e12fff1e 	bx	lr

0000fd70 <__sread>:
    fd70:	e92d4010 	push	{r4, lr}
    fd74:	e1a04001 	mov	r4, r1
    fd78:	e1d110fe 	ldrsh	r1, [r1, #14]
    fd7c:	eb000602 	bl	1158c <_read_r>
    fd80:	e3500000 	cmp	r0, #0
    fd84:	a5943050 	ldrge	r3, [r4, #80]	@ 0x50
    fd88:	b1d430bc 	ldrhlt	r3, [r4, #12]
    fd8c:	a0833000 	addge	r3, r3, r0
    fd90:	b3c33a01 	biclt	r3, r3, #4096	@ 0x1000
    fd94:	a5843050 	strge	r3, [r4, #80]	@ 0x50
    fd98:	b1c430bc 	strhlt	r3, [r4, #12]
    fd9c:	e8bd4010 	pop	{r4, lr}
    fda0:	e12fff1e 	bx	lr

0000fda4 <__seofread>:
    fda4:	e3a00000 	mov	r0, #0
    fda8:	e12fff1e 	bx	lr

0000fdac <__swrite>:
    fdac:	e92d41f0 	push	{r4, r5, r6, r7, r8, lr}
    fdb0:	e1a04001 	mov	r4, r1
    fdb4:	e1d110fc 	ldrsh	r1, [r1, #12]
    fdb8:	e3110c01 	tst	r1, #256	@ 0x100
    fdbc:	e1a05000 	mov	r5, r0
    fdc0:	e1a06002 	mov	r6, r2
    fdc4:	e1a07003 	mov	r7, r3
    fdc8:	1a000008 	bne	fdf0 <__swrite+0x44>
    fdcc:	e3c11a01 	bic	r1, r1, #4096	@ 0x1000
    fdd0:	e1c410bc 	strh	r1, [r4, #12]
    fdd4:	e1a03007 	mov	r3, r7
    fdd8:	e1a02006 	mov	r2, r6
    fddc:	e1a00005 	mov	r0, r5
    fde0:	e1d410fe 	ldrsh	r1, [r4, #14]
    fde4:	eb00004a 	bl	ff14 <_write_r>
    fde8:	e8bd41f0 	pop	{r4, r5, r6, r7, r8, lr}
    fdec:	e12fff1e 	bx	lr
    fdf0:	e1d410fe 	ldrsh	r1, [r4, #14]
    fdf4:	e3a03002 	mov	r3, #2
    fdf8:	e3a02000 	mov	r2, #0
    fdfc:	eb0005f4 	bl	115d4 <_lseek_r>
    fe00:	e1d410fc 	ldrsh	r1, [r4, #12]
    fe04:	eafffff0 	b	fdcc <__swrite+0x20>

0000fe08 <__sseek>:
    fe08:	e92d4010 	push	{r4, lr}
    fe0c:	e1a04001 	mov	r4, r1
    fe10:	e1d110fe 	ldrsh	r1, [r1, #14]
    fe14:	eb0005ee 	bl	115d4 <_lseek_r>
    fe18:	e1d430fc 	ldrsh	r3, [r4, #12]
    fe1c:	e3700001 	cmn	r0, #1
    fe20:	03c33a01 	biceq	r3, r3, #4096	@ 0x1000
    fe24:	13833a01 	orrne	r3, r3, #4096	@ 0x1000
    fe28:	15840050 	strne	r0, [r4, #80]	@ 0x50
    fe2c:	e1c430bc 	strh	r3, [r4, #12]
    fe30:	e8bd4010 	pop	{r4, lr}
    fe34:	e12fff1e 	bx	lr

0000fe38 <__sclose>:
    fe38:	e92d4010 	push	{r4, lr}
    fe3c:	e1d110fe 	ldrsh	r1, [r1, #14]
    fe40:	eb000064 	bl	ffd8 <_close_r>
    fe44:	e8bd4010 	pop	{r4, lr}
    fe48:	e12fff1e 	bx	lr

0000fe4c <_reclaim_reent>:
    fe4c:	e59f30bc 	ldr	r3, [pc, #188]	@ ff10 <_reclaim_reent+0xc4>
    fe50:	e5933000 	ldr	r3, [r3]
    fe54:	e1530000 	cmp	r3, r0
    fe58:	012fff1e 	bxeq	lr
    fe5c:	e5901044 	ldr	r1, [r0, #68]	@ 0x44
    fe60:	e3510000 	cmp	r1, #0
    fe64:	e92d4070 	push	{r4, r5, r6, lr}
    fe68:	e1a05000 	mov	r5, r0
    fe6c:	0a00000f 	beq	feb0 <_reclaim_reent+0x64>
    fe70:	e3a06000 	mov	r6, #0
    fe74:	e7914006 	ldr	r4, [r1, r6]
    fe78:	e3540000 	cmp	r4, #0
    fe7c:	0a000006 	beq	fe9c <_reclaim_reent+0x50>
    fe80:	e1a01004 	mov	r1, r4
    fe84:	e5944000 	ldr	r4, [r4]
    fe88:	e1a00005 	mov	r0, r5
    fe8c:	ebfff677 	bl	d870 <_free_r>
    fe90:	e3540000 	cmp	r4, #0
    fe94:	1afffff9 	bne	fe80 <_reclaim_reent+0x34>
    fe98:	e5951044 	ldr	r1, [r5, #68]	@ 0x44
    fe9c:	e2866004 	add	r6, r6, #4
    fea0:	e3560080 	cmp	r6, #128	@ 0x80
    fea4:	1afffff2 	bne	fe74 <_reclaim_reent+0x28>
    fea8:	e1a00005 	mov	r0, r5
    feac:	ebfff66f 	bl	d870 <_free_r>
    feb0:	e5951038 	ldr	r1, [r5, #56]	@ 0x38
    feb4:	e3510000 	cmp	r1, #0
    feb8:	11a00005 	movne	r0, r5
    febc:	1bfff66b 	blne	d870 <_free_r>
    fec0:	e5954040 	ldr	r4, [r5, #64]	@ 0x40
    fec4:	e3540000 	cmp	r4, #0
    fec8:	0a000005 	beq	fee4 <_reclaim_reent+0x98>
    fecc:	e1a01004 	mov	r1, r4
    fed0:	e5944000 	ldr	r4, [r4]
    fed4:	e1a00005 	mov	r0, r5
    fed8:	ebfff664 	bl	d870 <_free_r>
    fedc:	e3540000 	cmp	r4, #0
    fee0:	1afffff9 	bne	fecc <_reclaim_reent+0x80>
    fee4:	e595104c 	ldr	r1, [r5, #76]	@ 0x4c
    fee8:	e3510000 	cmp	r1, #0
    feec:	11a00005 	movne	r0, r5
    fef0:	1bfff65e 	blne	d870 <_free_r>
    fef4:	e5953034 	ldr	r3, [r5, #52]	@ 0x34
    fef8:	e3530000 	cmp	r3, #0
    fefc:	11a00005 	movne	r0, r5
    ff00:	18bd4070 	popne	{r4, r5, r6, lr}
    ff04:	112fff13 	bxne	r3
    ff08:	e8bd4070 	pop	{r4, r5, r6, lr}
    ff0c:	e12fff1e 	bx	lr
    ff10:	00012970 	.word	0x00012970

0000ff14 <_write_r>:
    ff14:	e92d4070 	push	{r4, r5, r6, lr}
    ff18:	e1a0e001 	mov	lr, r1
    ff1c:	e1a01002 	mov	r1, r2
    ff20:	e3a02000 	mov	r2, #0
    ff24:	e59f502c 	ldr	r5, [pc, #44]	@ ff58 <_write_r+0x44>
    ff28:	e1a04000 	mov	r4, r0
    ff2c:	e5852000 	str	r2, [r5]
    ff30:	e1a0000e 	mov	r0, lr
    ff34:	e1a02003 	mov	r2, r3
    ff38:	ebffe1ac 	bl	85f0 <_write>
    ff3c:	e3700001 	cmn	r0, #1
    ff40:	1a000002 	bne	ff50 <_write_r+0x3c>
    ff44:	e5953000 	ldr	r3, [r5]
    ff48:	e3530000 	cmp	r3, #0
    ff4c:	15843000 	strne	r3, [r4]
    ff50:	e8bd4070 	pop	{r4, r5, r6, lr}
    ff54:	e12fff1e 	bx	lr
    ff58:	00013194 	.word	0x00013194

0000ff5c <_fstat_r>:
    ff5c:	e3a0c000 	mov	ip, #0
    ff60:	e92d4070 	push	{r4, r5, r6, lr}
    ff64:	e59f502c 	ldr	r5, [pc, #44]	@ ff98 <_fstat_r+0x3c>
    ff68:	e1a04000 	mov	r4, r0
    ff6c:	e1a00001 	mov	r0, r1
    ff70:	e1a01002 	mov	r1, r2
    ff74:	e585c000 	str	ip, [r5]
    ff78:	ebffe17b 	bl	856c <_fstat>
    ff7c:	e3700001 	cmn	r0, #1
    ff80:	1a000002 	bne	ff90 <_fstat_r+0x34>
    ff84:	e5953000 	ldr	r3, [r5]
    ff88:	e3530000 	cmp	r3, #0
    ff8c:	15843000 	strne	r3, [r4]
    ff90:	e8bd4070 	pop	{r4, r5, r6, lr}
    ff94:	e12fff1e 	bx	lr
    ff98:	00013194 	.word	0x00013194

0000ff9c <_isatty_r>:
    ff9c:	e3a02000 	mov	r2, #0
    ffa0:	e92d4070 	push	{r4, r5, r6, lr}
    ffa4:	e59f5028 	ldr	r5, [pc, #40]	@ ffd4 <_isatty_r+0x38>
    ffa8:	e1a04000 	mov	r4, r0
    ffac:	e1a00001 	mov	r0, r1
    ffb0:	e5852000 	str	r2, [r5]
    ffb4:	ebffe1d4 	bl	870c <_isatty>
    ffb8:	e3700001 	cmn	r0, #1
    ffbc:	1a000002 	bne	ffcc <_isatty_r+0x30>
    ffc0:	e5953000 	ldr	r3, [r5]
    ffc4:	e3530000 	cmp	r3, #0
    ffc8:	15843000 	strne	r3, [r4]
    ffcc:	e8bd4070 	pop	{r4, r5, r6, lr}
    ffd0:	e12fff1e 	bx	lr
    ffd4:	00013194 	.word	0x00013194

0000ffd8 <_close_r>:
    ffd8:	e3a02000 	mov	r2, #0
    ffdc:	e92d4070 	push	{r4, r5, r6, lr}
    ffe0:	e59f5028 	ldr	r5, [pc, #40]	@ 10010 <_close_r+0x38>
    ffe4:	e1a04000 	mov	r4, r0
    ffe8:	e1a00001 	mov	r0, r1
    ffec:	e5852000 	str	r2, [r5]
    fff0:	ebffe175 	bl	85cc <_close>
    fff4:	e3700001 	cmn	r0, #1
    fff8:	1a000002 	bne	10008 <_close_r+0x30>
    fffc:	e5953000 	ldr	r3, [r5]
   10000:	e3530000 	cmp	r3, #0
   10004:	15843000 	strne	r3, [r4]
   10008:	e8bd4070 	pop	{r4, r5, r6, lr}
   1000c:	e12fff1e 	bx	lr
   10010:	00013194 	.word	0x00013194

00010014 <_init_signal_r>:
   10014:	e92d4070 	push	{r4, r5, r6, lr}
   10018:	e5904118 	ldr	r4, [r0, #280]	@ 0x118
   1001c:	e3540000 	cmp	r4, #0
   10020:	0a000002 	beq	10030 <_init_signal_r+0x1c>
   10024:	e3a00000 	mov	r0, #0
   10028:	e8bd4070 	pop	{r4, r5, r6, lr}
   1002c:	e12fff1e 	bx	lr
   10030:	e3a01080 	mov	r1, #128	@ 0x80
   10034:	e1a05000 	mov	r5, r0
   10038:	ebffed23 	bl	b4cc <_malloc_r>
   1003c:	e3500000 	cmp	r0, #0
   10040:	e5850118 	str	r0, [r5, #280]	@ 0x118
   10044:	0a000005 	beq	10060 <_init_signal_r+0x4c>
   10048:	e2403004 	sub	r3, r0, #4
   1004c:	e280207c 	add	r2, r0, #124	@ 0x7c
   10050:	e5a34004 	str	r4, [r3, #4]!
   10054:	e1530002 	cmp	r3, r2
   10058:	1afffffc 	bne	10050 <_init_signal_r+0x3c>
   1005c:	eafffff0 	b	10024 <_init_signal_r+0x10>
   10060:	e3e00000 	mvn	r0, #0
   10064:	eaffffef 	b	10028 <_init_signal_r+0x14>

00010068 <_signal_r>:
   10068:	e351001f 	cmp	r1, #31
   1006c:	83a03016 	movhi	r3, #22
   10070:	e92d4030 	push	{r4, r5, lr}
   10074:	e1a05000 	mov	r5, r0
   10078:	85803000 	strhi	r3, [r0]
   1007c:	e24dd00c 	sub	sp, sp, #12
   10080:	8a000017 	bhi	100e4 <_signal_r+0x7c>
   10084:	e5903118 	ldr	r3, [r0, #280]	@ 0x118
   10088:	e3530000 	cmp	r3, #0
   1008c:	e1a04001 	mov	r4, r1
   10090:	0a000004 	beq	100a8 <_signal_r+0x40>
   10094:	e7930104 	ldr	r0, [r3, r4, lsl #2]
   10098:	e7832104 	str	r2, [r3, r4, lsl #2]
   1009c:	e28dd00c 	add	sp, sp, #12
   100a0:	e8bd4030 	pop	{r4, r5, lr}
   100a4:	e12fff1e 	bx	lr
   100a8:	e3a01080 	mov	r1, #128	@ 0x80
   100ac:	e58d2004 	str	r2, [sp, #4]
   100b0:	ebffed05 	bl	b4cc <_malloc_r>
   100b4:	e3500000 	cmp	r0, #0
   100b8:	e1a03000 	mov	r3, r0
   100bc:	e5850118 	str	r0, [r5, #280]	@ 0x118
   100c0:	12401004 	subne	r1, r0, #4
   100c4:	1280c07c 	addne	ip, r0, #124	@ 0x7c
   100c8:	e59d2004 	ldr	r2, [sp, #4]
   100cc:	13a00000 	movne	r0, #0
   100d0:	0a000003 	beq	100e4 <_signal_r+0x7c>
   100d4:	e5a10004 	str	r0, [r1, #4]!
   100d8:	e151000c 	cmp	r1, ip
   100dc:	1afffffc 	bne	100d4 <_signal_r+0x6c>
   100e0:	eaffffeb 	b	10094 <_signal_r+0x2c>
   100e4:	e3e00000 	mvn	r0, #0
   100e8:	eaffffeb 	b	1009c <_signal_r+0x34>

000100ec <_raise_r>:
   100ec:	e351001f 	cmp	r1, #31
   100f0:	e92d4070 	push	{r4, r5, r6, lr}
   100f4:	83a03016 	movhi	r3, #22
   100f8:	e1a05000 	mov	r5, r0
   100fc:	83e00000 	mvnhi	r0, #0
   10100:	85853000 	strhi	r3, [r5]
   10104:	8a000013 	bhi	10158 <_raise_r+0x6c>
   10108:	e5952118 	ldr	r2, [r5, #280]	@ 0x118
   1010c:	e3520000 	cmp	r2, #0
   10110:	e1a04001 	mov	r4, r1
   10114:	0a000011 	beq	10160 <_raise_r+0x74>
   10118:	e7923101 	ldr	r3, [r2, r1, lsl #2]
   1011c:	e3530000 	cmp	r3, #0
   10120:	0a00000e 	beq	10160 <_raise_r+0x74>
   10124:	e3530001 	cmp	r3, #1
   10128:	0a000009 	beq	10154 <_raise_r+0x68>
   1012c:	e3730001 	cmn	r3, #1
   10130:	03a03016 	moveq	r3, #22
   10134:	03a00001 	moveq	r0, #1
   10138:	05853000 	streq	r3, [r5]
   1013c:	0a000005 	beq	10158 <_raise_r+0x6c>
   10140:	e3a01000 	mov	r1, #0
   10144:	e1a00004 	mov	r0, r4
   10148:	e7821104 	str	r1, [r2, r4, lsl #2]
   1014c:	e1a0e00f 	mov	lr, pc
   10150:	e12fff13 	bx	r3
   10154:	e3a00000 	mov	r0, #0
   10158:	e8bd4070 	pop	{r4, r5, r6, lr}
   1015c:	e12fff1e 	bx	lr
   10160:	e1a00005 	mov	r0, r5
   10164:	eb0000ce 	bl	104a4 <_getpid_r>
   10168:	e1a02004 	mov	r2, r4
   1016c:	e1a01000 	mov	r1, r0
   10170:	e1a00005 	mov	r0, r5
   10174:	eb0000ba 	bl	10464 <_kill_r>
   10178:	e8bd4070 	pop	{r4, r5, r6, lr}
   1017c:	e12fff1e 	bx	lr

00010180 <__sigtramp_r>:
   10180:	e351001f 	cmp	r1, #31
   10184:	8a000028 	bhi	1022c <__sigtramp_r+0xac>
   10188:	e5903118 	ldr	r3, [r0, #280]	@ 0x118
   1018c:	e3530000 	cmp	r3, #0
   10190:	e92d4070 	push	{r4, r5, r6, lr}
   10194:	e1a04001 	mov	r4, r1
   10198:	e1a05000 	mov	r5, r0
   1019c:	0a000013 	beq	101f0 <__sigtramp_r+0x70>
   101a0:	e7932104 	ldr	r2, [r3, r4, lsl #2]
   101a4:	e3520000 	cmp	r2, #0
   101a8:	03a00001 	moveq	r0, #1
   101ac:	e0833104 	add	r3, r3, r4, lsl #2
   101b0:	0a00000a 	beq	101e0 <__sigtramp_r+0x60>
   101b4:	e3720001 	cmn	r2, #1
   101b8:	0a00000a 	beq	101e8 <__sigtramp_r+0x68>
   101bc:	e3520001 	cmp	r2, #1
   101c0:	03a00003 	moveq	r0, #3
   101c4:	0a000005 	beq	101e0 <__sigtramp_r+0x60>
   101c8:	e3a05000 	mov	r5, #0
   101cc:	e1a00004 	mov	r0, r4
   101d0:	e5835000 	str	r5, [r3]
   101d4:	e1a0e00f 	mov	lr, pc
   101d8:	e12fff12 	bx	r2
   101dc:	e1a00005 	mov	r0, r5
   101e0:	e8bd4070 	pop	{r4, r5, r6, lr}
   101e4:	e12fff1e 	bx	lr
   101e8:	e3a00002 	mov	r0, #2
   101ec:	eafffffb 	b	101e0 <__sigtramp_r+0x60>
   101f0:	e3a01080 	mov	r1, #128	@ 0x80
   101f4:	ebffecb4 	bl	b4cc <_malloc_r>
   101f8:	e3500000 	cmp	r0, #0
   101fc:	e1a03000 	mov	r3, r0
   10200:	e5850118 	str	r0, [r5, #280]	@ 0x118
   10204:	0a000006 	beq	10224 <__sigtramp_r+0xa4>
   10208:	e3a00000 	mov	r0, #0
   1020c:	e2432004 	sub	r2, r3, #4
   10210:	e283107c 	add	r1, r3, #124	@ 0x7c
   10214:	e5a20004 	str	r0, [r2, #4]!
   10218:	e1520001 	cmp	r2, r1
   1021c:	1afffffc 	bne	10214 <__sigtramp_r+0x94>
   10220:	eaffffde 	b	101a0 <__sigtramp_r+0x20>
   10224:	e3e00000 	mvn	r0, #0
   10228:	eaffffec 	b	101e0 <__sigtramp_r+0x60>
   1022c:	e3e00000 	mvn	r0, #0
   10230:	e12fff1e 	bx	lr

00010234 <raise>:
   10234:	e59f308c 	ldr	r3, [pc, #140]	@ 102c8 <raise+0x94>
   10238:	e350001f 	cmp	r0, #31
   1023c:	e92d4070 	push	{r4, r5, r6, lr}
   10240:	e5935000 	ldr	r5, [r3]
   10244:	83a03016 	movhi	r3, #22
   10248:	83e00000 	mvnhi	r0, #0
   1024c:	85853000 	strhi	r3, [r5]
   10250:	8a000012 	bhi	102a0 <raise+0x6c>
   10254:	e5952118 	ldr	r2, [r5, #280]	@ 0x118
   10258:	e3520000 	cmp	r2, #0
   1025c:	e1a04000 	mov	r4, r0
   10260:	0a000010 	beq	102a8 <raise+0x74>
   10264:	e7923100 	ldr	r3, [r2, r0, lsl #2]
   10268:	e3530000 	cmp	r3, #0
   1026c:	0a00000d 	beq	102a8 <raise+0x74>
   10270:	e3530001 	cmp	r3, #1
   10274:	0a000008 	beq	1029c <raise+0x68>
   10278:	e3730001 	cmn	r3, #1
   1027c:	03a03016 	moveq	r3, #22
   10280:	03a00001 	moveq	r0, #1
   10284:	05853000 	streq	r3, [r5]
   10288:	0a000004 	beq	102a0 <raise+0x6c>
   1028c:	e3a01000 	mov	r1, #0
   10290:	e7821104 	str	r1, [r2, r4, lsl #2]
   10294:	e1a0e00f 	mov	lr, pc
   10298:	e12fff13 	bx	r3
   1029c:	e3a00000 	mov	r0, #0
   102a0:	e8bd4070 	pop	{r4, r5, r6, lr}
   102a4:	e12fff1e 	bx	lr
   102a8:	e1a00005 	mov	r0, r5
   102ac:	eb00007c 	bl	104a4 <_getpid_r>
   102b0:	e1a02004 	mov	r2, r4
   102b4:	e1a01000 	mov	r1, r0
   102b8:	e1a00005 	mov	r0, r5
   102bc:	eb000068 	bl	10464 <_kill_r>
   102c0:	e8bd4070 	pop	{r4, r5, r6, lr}
   102c4:	e12fff1e 	bx	lr
   102c8:	00012970 	.word	0x00012970

000102cc <signal>:
   102cc:	e59f3078 	ldr	r3, [pc, #120]	@ 1034c <signal+0x80>
   102d0:	e350001f 	cmp	r0, #31
   102d4:	e92d4070 	push	{r4, r5, r6, lr}
   102d8:	e5936000 	ldr	r6, [r3]
   102dc:	83a03016 	movhi	r3, #22
   102e0:	85863000 	strhi	r3, [r6]
   102e4:	8a000016 	bhi	10344 <signal+0x78>
   102e8:	e5963118 	ldr	r3, [r6, #280]	@ 0x118
   102ec:	e3530000 	cmp	r3, #0
   102f0:	e1a04000 	mov	r4, r0
   102f4:	e1a05001 	mov	r5, r1
   102f8:	0a000003 	beq	1030c <signal+0x40>
   102fc:	e7930104 	ldr	r0, [r3, r4, lsl #2]
   10300:	e7835104 	str	r5, [r3, r4, lsl #2]
   10304:	e8bd4070 	pop	{r4, r5, r6, lr}
   10308:	e12fff1e 	bx	lr
   1030c:	e3a01080 	mov	r1, #128	@ 0x80
   10310:	e1a00006 	mov	r0, r6
   10314:	ebffec6c 	bl	b4cc <_malloc_r>
   10318:	e3500000 	cmp	r0, #0
   1031c:	e1a03000 	mov	r3, r0
   10320:	e5860118 	str	r0, [r6, #280]	@ 0x118
   10324:	12402004 	subne	r2, r0, #4
   10328:	13a01000 	movne	r1, #0
   1032c:	1280007c 	addne	r0, r0, #124	@ 0x7c
   10330:	0a000003 	beq	10344 <signal+0x78>
   10334:	e5a21004 	str	r1, [r2, #4]!
   10338:	e1520000 	cmp	r2, r0
   1033c:	1afffffc 	bne	10334 <signal+0x68>
   10340:	eaffffed 	b	102fc <signal+0x30>
   10344:	e3e00000 	mvn	r0, #0
   10348:	eaffffed 	b	10304 <signal+0x38>
   1034c:	00012970 	.word	0x00012970

00010350 <_init_signal>:
   10350:	e59f3054 	ldr	r3, [pc, #84]	@ 103ac <_init_signal+0x5c>
   10354:	e92d4070 	push	{r4, r5, r6, lr}
   10358:	e5935000 	ldr	r5, [r3]
   1035c:	e5954118 	ldr	r4, [r5, #280]	@ 0x118
   10360:	e3540000 	cmp	r4, #0
   10364:	0a000002 	beq	10374 <_init_signal+0x24>
   10368:	e3a00000 	mov	r0, #0
   1036c:	e8bd4070 	pop	{r4, r5, r6, lr}
   10370:	e12fff1e 	bx	lr
   10374:	e3a01080 	mov	r1, #128	@ 0x80
   10378:	e1a00005 	mov	r0, r5
   1037c:	ebffec52 	bl	b4cc <_malloc_r>
   10380:	e3500000 	cmp	r0, #0
   10384:	e5850118 	str	r0, [r5, #280]	@ 0x118
   10388:	0a000005 	beq	103a4 <_init_signal+0x54>
   1038c:	e2403004 	sub	r3, r0, #4
   10390:	e280207c 	add	r2, r0, #124	@ 0x7c
   10394:	e5a34004 	str	r4, [r3, #4]!
   10398:	e1530002 	cmp	r3, r2
   1039c:	1afffffc 	bne	10394 <_init_signal+0x44>
   103a0:	eafffff0 	b	10368 <_init_signal+0x18>
   103a4:	e3e00000 	mvn	r0, #0
   103a8:	eaffffef 	b	1036c <_init_signal+0x1c>
   103ac:	00012970 	.word	0x00012970

000103b0 <__sigtramp>:
   103b0:	e59f30a8 	ldr	r3, [pc, #168]	@ 10460 <__sigtramp+0xb0>
   103b4:	e350001f 	cmp	r0, #31
   103b8:	e92d4070 	push	{r4, r5, r6, lr}
   103bc:	e5935000 	ldr	r5, [r3]
   103c0:	8a000024 	bhi	10458 <__sigtramp+0xa8>
   103c4:	e1a04000 	mov	r4, r0
   103c8:	e5950118 	ldr	r0, [r5, #280]	@ 0x118
   103cc:	e3500000 	cmp	r0, #0
   103d0:	0a000013 	beq	10424 <__sigtramp+0x74>
   103d4:	e7902104 	ldr	r2, [r0, r4, lsl #2]
   103d8:	e3520000 	cmp	r2, #0
   103dc:	e0803104 	add	r3, r0, r4, lsl #2
   103e0:	03a00001 	moveq	r0, #1
   103e4:	0a00000a 	beq	10414 <__sigtramp+0x64>
   103e8:	e3720001 	cmn	r2, #1
   103ec:	0a00000a 	beq	1041c <__sigtramp+0x6c>
   103f0:	e3520001 	cmp	r2, #1
   103f4:	03a00003 	moveq	r0, #3
   103f8:	0a000005 	beq	10414 <__sigtramp+0x64>
   103fc:	e3a05000 	mov	r5, #0
   10400:	e1a00004 	mov	r0, r4
   10404:	e5835000 	str	r5, [r3]
   10408:	e1a0e00f 	mov	lr, pc
   1040c:	e12fff12 	bx	r2
   10410:	e1a00005 	mov	r0, r5
   10414:	e8bd4070 	pop	{r4, r5, r6, lr}
   10418:	e12fff1e 	bx	lr
   1041c:	e3a00002 	mov	r0, #2
   10420:	eafffffb 	b	10414 <__sigtramp+0x64>
   10424:	e3a01080 	mov	r1, #128	@ 0x80
   10428:	e1a00005 	mov	r0, r5
   1042c:	ebffec26 	bl	b4cc <_malloc_r>
   10430:	e3500000 	cmp	r0, #0
   10434:	e5850118 	str	r0, [r5, #280]	@ 0x118
   10438:	0a000006 	beq	10458 <__sigtramp+0xa8>
   1043c:	e3a01000 	mov	r1, #0
   10440:	e2403004 	sub	r3, r0, #4
   10444:	e280207c 	add	r2, r0, #124	@ 0x7c
   10448:	e5a31004 	str	r1, [r3, #4]!
   1044c:	e1530002 	cmp	r3, r2
   10450:	1afffffc 	bne	10448 <__sigtramp+0x98>
   10454:	eaffffde 	b	103d4 <__sigtramp+0x24>
   10458:	e3e00000 	mvn	r0, #0
   1045c:	eaffffec 	b	10414 <__sigtramp+0x64>
   10460:	00012970 	.word	0x00012970

00010464 <_kill_r>:
   10464:	e3a0c000 	mov	ip, #0
   10468:	e92d4070 	push	{r4, r5, r6, lr}
   1046c:	e59f502c 	ldr	r5, [pc, #44]	@ 104a0 <_kill_r+0x3c>
   10470:	e1a04000 	mov	r4, r0
   10474:	e1a00001 	mov	r0, r1
   10478:	e1a01002 	mov	r1, r2
   1047c:	e585c000 	str	ip, [r5]
   10480:	ebffe0af 	bl	8744 <_kill>
   10484:	e3700001 	cmn	r0, #1
   10488:	1a000002 	bne	10498 <_kill_r+0x34>
   1048c:	e5953000 	ldr	r3, [r5]
   10490:	e3530000 	cmp	r3, #0
   10494:	15843000 	strne	r3, [r4]
   10498:	e8bd4070 	pop	{r4, r5, r6, lr}
   1049c:	e12fff1e 	bx	lr
   104a0:	00013194 	.word	0x00013194

000104a4 <_getpid_r>:
   104a4:	e92d4010 	push	{r4, lr}
   104a8:	ebffe0ae 	bl	8768 <_getpid>
   104ac:	e8bd4010 	pop	{r4, lr}
   104b0:	e12fff1e 	bx	lr

000104b4 <_vfiprintf_r>:
   104b4:	e92d4ff0 	push	{r4, r5, r6, r7, r8, r9, sl, fp, lr}
   104b8:	e1a04003 	mov	r4, r3
   104bc:	e24dd0ac 	sub	sp, sp, #172	@ 0xac
   104c0:	e2503000 	subs	r3, r0, #0
   104c4:	e1a0b002 	mov	fp, r2
   104c8:	e58d301c 	str	r3, [sp, #28]
   104cc:	e58d1008 	str	r1, [sp, #8]
   104d0:	e58d4018 	str	r4, [sp, #24]
   104d4:	0a000002 	beq	104e4 <_vfiprintf_r+0x30>
   104d8:	e5933034 	ldr	r3, [r3, #52]	@ 0x34
   104dc:	e3530000 	cmp	r3, #0
   104e0:	0a0003d1 	beq	1142c <_vfiprintf_r+0xf78>
   104e4:	e59d1008 	ldr	r1, [sp, #8]
   104e8:	e1d120fc 	ldrsh	r2, [r1, #12]
   104ec:	e5913064 	ldr	r3, [r1, #100]	@ 0x64
   104f0:	e3120a02 	tst	r2, #8192	@ 0x2000
   104f4:	03822a02 	orreq	r2, r2, #8192	@ 0x2000
   104f8:	03c33a02 	biceq	r3, r3, #8192	@ 0x2000
   104fc:	01c120bc 	strheq	r2, [r1, #12]
   10500:	05813064 	streq	r3, [r1, #100]	@ 0x64
   10504:	e3130a02 	tst	r3, #8192	@ 0x2000
   10508:	1a0003d6 	bne	11468 <_vfiprintf_r+0xfb4>
   1050c:	e59d3008 	ldr	r3, [sp, #8]
   10510:	e1d320fc 	ldrsh	r2, [r3, #12]
   10514:	e3120008 	tst	r2, #8
   10518:	0a0000c0 	beq	10820 <_vfiprintf_r+0x36c>
   1051c:	e5933010 	ldr	r3, [r3, #16]
   10520:	e3530000 	cmp	r3, #0
   10524:	0a0000bd 	beq	10820 <_vfiprintf_r+0x36c>
   10528:	e202201a 	and	r2, r2, #26
   1052c:	e352000a 	cmp	r2, #10
   10530:	0a0000c4 	beq	10848 <_vfiprintf_r+0x394>
   10534:	e28d3068 	add	r3, sp, #104	@ 0x68
   10538:	e58d3034 	str	r3, [sp, #52]	@ 0x34
   1053c:	e3a03000 	mov	r3, #0
   10540:	e58d303c 	str	r3, [sp, #60]	@ 0x3c
   10544:	e58d3038 	str	r3, [sp, #56]	@ 0x38
   10548:	e58d3024 	str	r3, [sp, #36]	@ 0x24
   1054c:	e58d3014 	str	r3, [sp, #20]
   10550:	e28da068 	add	sl, sp, #104	@ 0x68
   10554:	e5db3000 	ldrb	r3, [fp]
   10558:	e3530000 	cmp	r3, #0
   1055c:	13530025 	cmpne	r3, #37	@ 0x25
   10560:	e1a0400b 	mov	r4, fp
   10564:	0a000015 	beq	105c0 <_vfiprintf_r+0x10c>
   10568:	e1a05004 	mov	r5, r4
   1056c:	e5f43001 	ldrb	r3, [r4, #1]!
   10570:	e3530000 	cmp	r3, #0
   10574:	13530025 	cmpne	r3, #37	@ 0x25
   10578:	1afffffa 	bne	10568 <_vfiprintf_r+0xb4>
   1057c:	e054600b 	subs	r6, r4, fp
   10580:	0a00000e 	beq	105c0 <_vfiprintf_r+0x10c>
   10584:	e59d3038 	ldr	r3, [sp, #56]	@ 0x38
   10588:	e2833001 	add	r3, r3, #1
   1058c:	e3530007 	cmp	r3, #7
   10590:	e58d3038 	str	r3, [sp, #56]	@ 0x38
   10594:	e59d303c 	ldr	r3, [sp, #60]	@ 0x3c
   10598:	e0833006 	add	r3, r3, r6
   1059c:	e58ab000 	str	fp, [sl]
   105a0:	e58a6004 	str	r6, [sl, #4]
   105a4:	e58d303c 	str	r3, [sp, #60]	@ 0x3c
   105a8:	d28aa008 	addle	sl, sl, #8
   105ac:	ca0000d9 	bgt	10918 <_vfiprintf_r+0x464>
   105b0:	e59d3014 	ldr	r3, [sp, #20]
   105b4:	e0833006 	add	r3, r3, r6
   105b8:	e58d3014 	str	r3, [sp, #20]
   105bc:	e5d53001 	ldrb	r3, [r5, #1]
   105c0:	e3530000 	cmp	r3, #0
   105c4:	0a0000db 	beq	10938 <_vfiprintf_r+0x484>
   105c8:	e3a02000 	mov	r2, #0
   105cc:	e3a03000 	mov	r3, #0
   105d0:	e3e09000 	mvn	r9, #0
   105d4:	e1a07002 	mov	r7, r2
   105d8:	e5cd302f 	strb	r3, [sp, #47]	@ 0x2f
   105dc:	e58d2010 	str	r2, [sp, #16]
   105e0:	e5d43001 	ldrb	r3, [r4, #1]
   105e4:	e284b001 	add	fp, r4, #1
   105e8:	e28bb001 	add	fp, fp, #1
   105ec:	e2432020 	sub	r2, r3, #32
   105f0:	e3520058 	cmp	r2, #88	@ 0x58
   105f4:	979ff102 	ldrls	pc, [pc, r2, lsl #2]
   105f8:	ea0000d9 	b	10964 <_vfiprintf_r+0x4b0>
   105fc:	00010c04 	.word	0x00010c04
   10600:	00010964 	.word	0x00010964
   10604:	00010964 	.word	0x00010964
   10608:	00010bf8 	.word	0x00010bf8
   1060c:	00010964 	.word	0x00010964
   10610:	00010964 	.word	0x00010964
   10614:	00010964 	.word	0x00010964
   10618:	00010964 	.word	0x00010964
   1061c:	00010964 	.word	0x00010964
   10620:	00010964 	.word	0x00010964
   10624:	00010b60 	.word	0x00010b60
   10628:	00010be8 	.word	0x00010be8
   1062c:	00010964 	.word	0x00010964
   10630:	00010b84 	.word	0x00010b84
   10634:	00010b90 	.word	0x00010b90
   10638:	00010964 	.word	0x00010964
   1063c:	00010bdc 	.word	0x00010bdc
   10640:	00010760 	.word	0x00010760
   10644:	00010760 	.word	0x00010760
   10648:	00010760 	.word	0x00010760
   1064c:	00010760 	.word	0x00010760
   10650:	00010760 	.word	0x00010760
   10654:	00010760 	.word	0x00010760
   10658:	00010760 	.word	0x00010760
   1065c:	00010760 	.word	0x00010760
   10660:	00010760 	.word	0x00010760
   10664:	00010964 	.word	0x00010964
   10668:	00010964 	.word	0x00010964
   1066c:	00010964 	.word	0x00010964
   10670:	00010964 	.word	0x00010964
   10674:	00010964 	.word	0x00010964
   10678:	00010964 	.word	0x00010964
   1067c:	00010964 	.word	0x00010964
   10680:	00010964 	.word	0x00010964
   10684:	00010964 	.word	0x00010964
   10688:	00010964 	.word	0x00010964
   1068c:	0001078c 	.word	0x0001078c
   10690:	00010964 	.word	0x00010964
   10694:	00010964 	.word	0x00010964
   10698:	00010964 	.word	0x00010964
   1069c:	00010964 	.word	0x00010964
   106a0:	00010964 	.word	0x00010964
   106a4:	00010964 	.word	0x00010964
   106a8:	00010964 	.word	0x00010964
   106ac:	00010964 	.word	0x00010964
   106b0:	00010964 	.word	0x00010964
   106b4:	00010964 	.word	0x00010964
   106b8:	00010874 	.word	0x00010874
   106bc:	00010964 	.word	0x00010964
   106c0:	00010964 	.word	0x00010964
   106c4:	00010964 	.word	0x00010964
   106c8:	00010964 	.word	0x00010964
   106cc:	00010964 	.word	0x00010964
   106d0:	00010d24 	.word	0x00010d24
   106d4:	00010964 	.word	0x00010964
   106d8:	00010964 	.word	0x00010964
   106dc:	000112bc 	.word	0x000112bc
   106e0:	00010964 	.word	0x00010964
   106e4:	00010964 	.word	0x00010964
   106e8:	00010964 	.word	0x00010964
   106ec:	00010964 	.word	0x00010964
   106f0:	00010964 	.word	0x00010964
   106f4:	00010964 	.word	0x00010964
   106f8:	00010964 	.word	0x00010964
   106fc:	00010964 	.word	0x00010964
   10700:	00010964 	.word	0x00010964
   10704:	00010964 	.word	0x00010964
   10708:	00010cf8 	.word	0x00010cf8
   1070c:	00010790 	.word	0x00010790
   10710:	00010964 	.word	0x00010964
   10714:	00010964 	.word	0x00010964
   10718:	00010964 	.word	0x00010964
   1071c:	00010cec 	.word	0x00010cec
   10720:	00010790 	.word	0x00010790
   10724:	00010964 	.word	0x00010964
   10728:	00010964 	.word	0x00010964
   1072c:	00010cd0 	.word	0x00010cd0
   10730:	00010964 	.word	0x00010964
   10734:	00010ca0 	.word	0x00010ca0
   10738:	00010878 	.word	0x00010878
   1073c:	00010c1c 	.word	0x00010c1c
   10740:	00010dd0 	.word	0x00010dd0
   10744:	00010964 	.word	0x00010964
   10748:	00010d64 	.word	0x00010d64
   1074c:	00010964 	.word	0x00010964
   10750:	0001131c 	.word	0x0001131c
   10754:	00010964 	.word	0x00010964
   10758:	00010964 	.word	0x00010964
   1075c:	00011324 	.word	0x00011324
   10760:	e2432030 	sub	r2, r3, #48	@ 0x30
   10764:	e3a03000 	mov	r3, #0
   10768:	e1a01003 	mov	r1, r3
   1076c:	e4db3001 	ldrb	r3, [fp], #1
   10770:	e0811101 	add	r1, r1, r1, lsl #2
   10774:	e0821081 	add	r1, r2, r1, lsl #1
   10778:	e2432030 	sub	r2, r3, #48	@ 0x30
   1077c:	e3520009 	cmp	r2, #9
   10780:	9afffff9 	bls	1076c <_vfiprintf_r+0x2b8>
   10784:	e58d1010 	str	r1, [sp, #16]
   10788:	eaffff97 	b	105ec <_vfiprintf_r+0x138>
   1078c:	e3877010 	orr	r7, r7, #16
   10790:	e3170020 	tst	r7, #32
   10794:	0a0000d1 	beq	10ae0 <_vfiprintf_r+0x62c>
   10798:	e59d3018 	ldr	r3, [sp, #24]
   1079c:	e2833007 	add	r3, r3, #7
   107a0:	e3c33007 	bic	r3, r3, #7
   107a4:	e1a02003 	mov	r2, r3
   107a8:	e1a00002 	mov	r0, r2
   107ac:	e5933004 	ldr	r3, [r3, #4]
   107b0:	e1a01003 	mov	r1, r3
   107b4:	e4902008 	ldr	r2, [r0], #8
   107b8:	e58d0018 	str	r0, [sp, #24]
   107bc:	e3530000 	cmp	r3, #0
   107c0:	ba0000d6 	blt	10b20 <_vfiprintf_r+0x66c>
   107c4:	e3590000 	cmp	r9, #0
   107c8:	ba0000da 	blt	10b38 <_vfiprintf_r+0x684>
   107cc:	e1823001 	orr	r3, r2, r1
   107d0:	e3530000 	cmp	r3, #0
   107d4:	03590000 	cmpeq	r9, #0
   107d8:	e3c77080 	bic	r7, r7, #128	@ 0x80
   107dc:	13a03001 	movne	r3, #1
   107e0:	03a03000 	moveq	r3, #0
   107e4:	1a0000d3 	bne	10b38 <_vfiprintf_r+0x684>
   107e8:	e1a09003 	mov	r9, r3
   107ec:	e5dd302f 	ldrb	r3, [sp, #47]	@ 0x2f
   107f0:	e58d900c 	str	r9, [sp, #12]
   107f4:	e28d4068 	add	r4, sp, #104	@ 0x68
   107f8:	e59d200c 	ldr	r2, [sp, #12]
   107fc:	e1520009 	cmp	r2, r9
   10800:	b1a02009 	movlt	r2, r9
   10804:	e3530000 	cmp	r3, #0
   10808:	e58d2004 	str	r2, [sp, #4]
   1080c:	0a00003b 	beq	10900 <_vfiprintf_r+0x44c>
   10810:	e59d3004 	ldr	r3, [sp, #4]
   10814:	e2833001 	add	r3, r3, #1
   10818:	e58d3004 	str	r3, [sp, #4]
   1081c:	ea000037 	b	10900 <_vfiprintf_r+0x44c>
   10820:	e59d5008 	ldr	r5, [sp, #8]
   10824:	e59d001c 	ldr	r0, [sp, #28]
   10828:	e1a01005 	mov	r1, r5
   1082c:	ebfff376 	bl	d60c <__swsetup_r>
   10830:	e3500000 	cmp	r0, #0
   10834:	1a00030b 	bne	11468 <_vfiprintf_r+0xfb4>
   10838:	e1d520fc 	ldrsh	r2, [r5, #12]
   1083c:	e202201a 	and	r2, r2, #26
   10840:	e352000a 	cmp	r2, #10
   10844:	1affff3a 	bne	10534 <_vfiprintf_r+0x80>
   10848:	e59d3008 	ldr	r3, [sp, #8]
   1084c:	e1d330fe 	ldrsh	r3, [r3, #14]
   10850:	e3530000 	cmp	r3, #0
   10854:	baffff36 	blt	10534 <_vfiprintf_r+0x80>
   10858:	e1a03004 	mov	r3, r4
   1085c:	e1a0200b 	mov	r2, fp
   10860:	e59d1008 	ldr	r1, [sp, #8]
   10864:	e59d001c 	ldr	r0, [sp, #28]
   10868:	e28dd0ac 	add	sp, sp, #172	@ 0xac
   1086c:	e8bd4ff0 	pop	{r4, r5, r6, r7, r8, r9, sl, fp, lr}
   10870:	ea000319 	b	114dc <__sbprintf>
   10874:	e3877010 	orr	r7, r7, #16
   10878:	e2171020 	ands	r1, r7, #32
   1087c:	0a00008d 	beq	10ab8 <_vfiprintf_r+0x604>
   10880:	e59d3018 	ldr	r3, [sp, #24]
   10884:	e2833007 	add	r3, r3, #7
   10888:	e3c33007 	bic	r3, r3, #7
   1088c:	e5931004 	ldr	r1, [r3, #4]
   10890:	e4932008 	ldr	r2, [r3], #8
   10894:	e58d3018 	str	r3, [sp, #24]
   10898:	e3a00000 	mov	r0, #0
   1089c:	e3590000 	cmp	r9, #0
   108a0:	e5cd002f 	strb	r0, [sp, #47]	@ 0x2f
   108a4:	aa000279 	bge	11290 <_vfiprintf_r+0xddc>
   108a8:	e28d4068 	add	r4, sp, #104	@ 0x68
   108ac:	e1a001a2 	lsr	r0, r2, #3
   108b0:	e2023007 	and	r3, r2, #7
   108b4:	e1802e81 	orr	r2, r0, r1, lsl #29
   108b8:	e1a011a1 	lsr	r1, r1, #3
   108bc:	e2833030 	add	r3, r3, #48	@ 0x30
   108c0:	e1920001 	orrs	r0, r2, r1
   108c4:	e1a00004 	mov	r0, r4
   108c8:	e5643001 	strb	r3, [r4, #-1]!
   108cc:	1afffff6 	bne	108ac <_vfiprintf_r+0x3f8>
   108d0:	e3530030 	cmp	r3, #48	@ 0x30
   108d4:	03a02000 	moveq	r2, #0
   108d8:	12072001 	andne	r2, r7, #1
   108dc:	e3520000 	cmp	r2, #0
   108e0:	1a0002a5 	bne	1137c <_vfiprintf_r+0xec8>
   108e4:	e28d3068 	add	r3, sp, #104	@ 0x68
   108e8:	e0433004 	sub	r3, r3, r4
   108ec:	e58d300c 	str	r3, [sp, #12]
   108f0:	e59d300c 	ldr	r3, [sp, #12]
   108f4:	e1590003 	cmp	r9, r3
   108f8:	a1a03009 	movge	r3, r9
   108fc:	e58d3004 	str	r3, [sp, #4]
   10900:	e2176002 	ands	r6, r7, #2
   10904:	159d3004 	ldrne	r3, [sp, #4]
   10908:	12833002 	addne	r3, r3, #2
   1090c:	13a06002 	movne	r6, #2
   10910:	158d3004 	strne	r3, [sp, #4]
   10914:	ea00001d 	b	10990 <_vfiprintf_r+0x4dc>
   10918:	e59d1008 	ldr	r1, [sp, #8]
   1091c:	e59d001c 	ldr	r0, [sp, #28]
   10920:	e28d2034 	add	r2, sp, #52	@ 0x34
   10924:	ebfff6e9 	bl	e4d0 <__sprint_r>
   10928:	e3500000 	cmp	r0, #0
   1092c:	1a000004 	bne	10944 <_vfiprintf_r+0x490>
   10930:	e28da068 	add	sl, sp, #104	@ 0x68
   10934:	eaffff1d 	b	105b0 <_vfiprintf_r+0xfc>
   10938:	e59d303c 	ldr	r3, [sp, #60]	@ 0x3c
   1093c:	e3530000 	cmp	r3, #0
   10940:	1a0002c3 	bne	11454 <_vfiprintf_r+0xfa0>
   10944:	e59d3008 	ldr	r3, [sp, #8]
   10948:	e1d330bc 	ldrh	r3, [r3, #12]
   1094c:	e3130040 	tst	r3, #64	@ 0x40
   10950:	1a0002c4 	bne	11468 <_vfiprintf_r+0xfb4>
   10954:	e59d0014 	ldr	r0, [sp, #20]
   10958:	e28dd0ac 	add	sp, sp, #172	@ 0xac
   1095c:	e8bd4ff0 	pop	{r4, r5, r6, r7, r8, r9, sl, fp, lr}
   10960:	e12fff1e 	bx	lr
   10964:	e3530000 	cmp	r3, #0
   10968:	0afffff2 	beq	10938 <_vfiprintf_r+0x484>
   1096c:	e5cd3040 	strb	r3, [sp, #64]	@ 0x40
   10970:	e3a03000 	mov	r3, #0
   10974:	e5cd302f 	strb	r3, [sp, #47]	@ 0x2f
   10978:	e3a03001 	mov	r3, #1
   1097c:	e58d3004 	str	r3, [sp, #4]
   10980:	e58d300c 	str	r3, [sp, #12]
   10984:	e28d4040 	add	r4, sp, #64	@ 0x40
   10988:	e3a09000 	mov	r9, #0
   1098c:	e1a06009 	mov	r6, r9
   10990:	e2173084 	ands	r3, r7, #132	@ 0x84
   10994:	e58d3020 	str	r3, [sp, #32]
   10998:	e59d103c 	ldr	r1, [sp, #60]	@ 0x3c
   1099c:	e59d2038 	ldr	r2, [sp, #56]	@ 0x38
   109a0:	1a000004 	bne	109b8 <_vfiprintf_r+0x504>
   109a4:	e59d3010 	ldr	r3, [sp, #16]
   109a8:	e59d0004 	ldr	r0, [sp, #4]
   109ac:	e0435000 	sub	r5, r3, r0
   109b0:	e3550000 	cmp	r5, #0
   109b4:	ca000193 	bgt	11008 <_vfiprintf_r+0xb54>
   109b8:	e5dd302f 	ldrb	r3, [sp, #47]	@ 0x2f
   109bc:	e3530000 	cmp	r3, #0
   109c0:	0a00000a 	beq	109f0 <_vfiprintf_r+0x53c>
   109c4:	e3a03001 	mov	r3, #1
   109c8:	e2822001 	add	r2, r2, #1
   109cc:	e58a3004 	str	r3, [sl, #4]
   109d0:	e2811001 	add	r1, r1, #1
   109d4:	e3520007 	cmp	r2, #7
   109d8:	e28d302f 	add	r3, sp, #47	@ 0x2f
   109dc:	e58a3000 	str	r3, [sl]
   109e0:	e58d103c 	str	r1, [sp, #60]	@ 0x3c
   109e4:	e58d2038 	str	r2, [sp, #56]	@ 0x38
   109e8:	d28aa008 	addle	sl, sl, #8
   109ec:	ca0001c0 	bgt	110f4 <_vfiprintf_r+0xc40>
   109f0:	e3560000 	cmp	r6, #0
   109f4:	0a00000a 	beq	10a24 <_vfiprintf_r+0x570>
   109f8:	e3a03002 	mov	r3, #2
   109fc:	e2822001 	add	r2, r2, #1
   10a00:	e58a3004 	str	r3, [sl, #4]
   10a04:	e2811002 	add	r1, r1, #2
   10a08:	e3520007 	cmp	r2, #7
   10a0c:	e28d3030 	add	r3, sp, #48	@ 0x30
   10a10:	e58a3000 	str	r3, [sl]
   10a14:	e58d103c 	str	r1, [sp, #60]	@ 0x3c
   10a18:	e58d2038 	str	r2, [sp, #56]	@ 0x38
   10a1c:	d28aa008 	addle	sl, sl, #8
   10a20:	ca0001bd 	bgt	1111c <_vfiprintf_r+0xc68>
   10a24:	e59d3020 	ldr	r3, [sp, #32]
   10a28:	e3530080 	cmp	r3, #128	@ 0x80
   10a2c:	0a0000ea 	beq	10ddc <_vfiprintf_r+0x928>
   10a30:	e59d300c 	ldr	r3, [sp, #12]
   10a34:	e0495003 	sub	r5, r9, r3
   10a38:	e3550000 	cmp	r5, #0
   10a3c:	ca000129 	bgt	10ee8 <_vfiprintf_r+0xa34>
   10a40:	e59d300c 	ldr	r3, [sp, #12]
   10a44:	e2822001 	add	r2, r2, #1
   10a48:	e0831001 	add	r1, r3, r1
   10a4c:	e3520007 	cmp	r2, #7
   10a50:	e58a4000 	str	r4, [sl]
   10a54:	e58a3004 	str	r3, [sl, #4]
   10a58:	e58d2038 	str	r2, [sp, #56]	@ 0x38
   10a5c:	e58d103c 	str	r1, [sp, #60]	@ 0x3c
   10a60:	d28aa008 	addle	sl, sl, #8
   10a64:	ca000157 	bgt	10fc8 <_vfiprintf_r+0xb14>
   10a68:	e3170004 	tst	r7, #4
   10a6c:	0a000004 	beq	10a84 <_vfiprintf_r+0x5d0>
   10a70:	e59d3010 	ldr	r3, [sp, #16]
   10a74:	e59d2004 	ldr	r2, [sp, #4]
   10a78:	e0434002 	sub	r4, r3, r2
   10a7c:	e3540000 	cmp	r4, #0
   10a80:	ca0001af 	bgt	11144 <_vfiprintf_r+0xc90>
   10a84:	e28d2010 	add	r2, sp, #16
   10a88:	e892000c 	ldm	r2, {r2, r3}
   10a8c:	e59d0004 	ldr	r0, [sp, #4]
   10a90:	e1520000 	cmp	r2, r0
   10a94:	a0833002 	addge	r3, r3, r2
   10a98:	b0833000 	addlt	r3, r3, r0
   10a9c:	e3510000 	cmp	r1, #0
   10aa0:	e58d3014 	str	r3, [sp, #20]
   10aa4:	1a000150 	bne	10fec <_vfiprintf_r+0xb38>
   10aa8:	e3a03000 	mov	r3, #0
   10aac:	e28da068 	add	sl, sp, #104	@ 0x68
   10ab0:	e58d3038 	str	r3, [sp, #56]	@ 0x38
   10ab4:	eafffea6 	b	10554 <_vfiprintf_r+0xa0>
   10ab8:	e59d0018 	ldr	r0, [sp, #24]
   10abc:	e4902004 	ldr	r2, [r0], #4
   10ac0:	e2173010 	ands	r3, r7, #16
   10ac4:	e58d0018 	str	r0, [sp, #24]
   10ac8:	1affff72 	bne	10898 <_vfiprintf_r+0x3e4>
   10acc:	e2171040 	ands	r1, r7, #64	@ 0x40
   10ad0:	11a02802 	lslne	r2, r2, #16
   10ad4:	11a01003 	movne	r1, r3
   10ad8:	11a02822 	lsrne	r2, r2, #16
   10adc:	eaffff6d 	b	10898 <_vfiprintf_r+0x3e4>
   10ae0:	e59d3018 	ldr	r3, [sp, #24]
   10ae4:	e4932004 	ldr	r2, [r3], #4
   10ae8:	e3170010 	tst	r7, #16
   10aec:	e58d3018 	str	r3, [sp, #24]
   10af0:	1a000006 	bne	10b10 <_vfiprintf_r+0x65c>
   10af4:	e3170040 	tst	r7, #64	@ 0x40
   10af8:	0a000004 	beq	10b10 <_vfiprintf_r+0x65c>
   10afc:	e1a02802 	lsl	r2, r2, #16
   10b00:	e1a01fc2 	asr	r1, r2, #31
   10b04:	e1a03001 	mov	r3, r1
   10b08:	e1a02842 	asr	r2, r2, #16
   10b0c:	eaffff2a 	b	107bc <_vfiprintf_r+0x308>
   10b10:	e1a01fc2 	asr	r1, r2, #31
   10b14:	e1a03001 	mov	r3, r1
   10b18:	e3530000 	cmp	r3, #0
   10b1c:	aaffff28 	bge	107c4 <_vfiprintf_r+0x310>
   10b20:	e3a0302d 	mov	r3, #45	@ 0x2d
   10b24:	e2722000 	rsbs	r2, r2, #0
   10b28:	e2e11000 	rsc	r1, r1, #0
   10b2c:	e5cd302f 	strb	r3, [sp, #47]	@ 0x2f
   10b30:	e3590000 	cmp	r9, #0
   10b34:	a3c77080 	bicge	r7, r7, #128	@ 0x80
   10b38:	e352000a 	cmp	r2, #10
   10b3c:	e2d13000 	sbcs	r3, r1, #0
   10b40:	2a000215 	bcs	1139c <_vfiprintf_r+0xee8>
   10b44:	e3a03001 	mov	r3, #1
   10b48:	e2822030 	add	r2, r2, #48	@ 0x30
   10b4c:	e58d300c 	str	r3, [sp, #12]
   10b50:	e5cd2067 	strb	r2, [sp, #103]	@ 0x67
   10b54:	e5dd302f 	ldrb	r3, [sp, #47]	@ 0x2f
   10b58:	e28d4067 	add	r4, sp, #103	@ 0x67
   10b5c:	eaffff25 	b	107f8 <_vfiprintf_r+0x344>
   10b60:	e59d3018 	ldr	r3, [sp, #24]
   10b64:	e4932004 	ldr	r2, [r3], #4
   10b68:	e3520000 	cmp	r2, #0
   10b6c:	e58d2010 	str	r2, [sp, #16]
   10b70:	e58d3018 	str	r3, [sp, #24]
   10b74:	aa000003 	bge	10b88 <_vfiprintf_r+0x6d4>
   10b78:	e59d3010 	ldr	r3, [sp, #16]
   10b7c:	e2633000 	rsb	r3, r3, #0
   10b80:	e58d3010 	str	r3, [sp, #16]
   10b84:	e3877004 	orr	r7, r7, #4
   10b88:	e5db3000 	ldrb	r3, [fp]
   10b8c:	eafffe95 	b	105e8 <_vfiprintf_r+0x134>
   10b90:	e1a0100b 	mov	r1, fp
   10b94:	e4d13001 	ldrb	r3, [r1], #1
   10b98:	e353002a 	cmp	r3, #42	@ 0x2a
   10b9c:	0a000234 	beq	11474 <_vfiprintf_r+0xfc0>
   10ba0:	e2432030 	sub	r2, r3, #48	@ 0x30
   10ba4:	e3520009 	cmp	r2, #9
   10ba8:	81a0b001 	movhi	fp, r1
   10bac:	83a09000 	movhi	r9, #0
   10bb0:	8afffe8d 	bhi	105ec <_vfiprintf_r+0x138>
   10bb4:	e3a09000 	mov	r9, #0
   10bb8:	e4d13001 	ldrb	r3, [r1], #1
   10bbc:	e0899109 	add	r9, r9, r9, lsl #2
   10bc0:	e0829089 	add	r9, r2, r9, lsl #1
   10bc4:	e2432030 	sub	r2, r3, #48	@ 0x30
   10bc8:	e3520009 	cmp	r2, #9
   10bcc:	9afffff9 	bls	10bb8 <_vfiprintf_r+0x704>
   10bd0:	e1a0b001 	mov	fp, r1
   10bd4:	e1899fc9 	orr	r9, r9, r9, asr #31
   10bd8:	eafffe83 	b	105ec <_vfiprintf_r+0x138>
   10bdc:	e5db3000 	ldrb	r3, [fp]
   10be0:	e3877080 	orr	r7, r7, #128	@ 0x80
   10be4:	eafffe7f 	b	105e8 <_vfiprintf_r+0x134>
   10be8:	e3a0302b 	mov	r3, #43	@ 0x2b
   10bec:	e5cd302f 	strb	r3, [sp, #47]	@ 0x2f
   10bf0:	e5db3000 	ldrb	r3, [fp]
   10bf4:	eafffe7b 	b	105e8 <_vfiprintf_r+0x134>
   10bf8:	e5db3000 	ldrb	r3, [fp]
   10bfc:	e3877001 	orr	r7, r7, #1
   10c00:	eafffe78 	b	105e8 <_vfiprintf_r+0x134>
   10c04:	e5dd302f 	ldrb	r3, [sp, #47]	@ 0x2f
   10c08:	e3530000 	cmp	r3, #0
   10c0c:	03a02020 	moveq	r2, #32
   10c10:	e5db3000 	ldrb	r3, [fp]
   10c14:	05cd202f 	strbeq	r2, [sp, #47]	@ 0x2f
   10c18:	eafffe72 	b	105e8 <_vfiprintf_r+0x134>
   10c1c:	e3a01000 	mov	r1, #0
   10c20:	e59f2868 	ldr	r2, [pc, #2152]	@ 11490 <_vfiprintf_r+0xfdc>
   10c24:	e59d3018 	ldr	r3, [sp, #24]
   10c28:	e1cd23b0 	strh	r2, [sp, #48]	@ 0x30
   10c2c:	e59f2860 	ldr	r2, [pc, #2144]	@ 11494 <_vfiprintf_r+0xfe0>
   10c30:	e58d2024 	str	r2, [sp, #36]	@ 0x24
   10c34:	e4932004 	ldr	r2, [r3], #4
   10c38:	e58d3018 	str	r3, [sp, #24]
   10c3c:	e3877002 	orr	r7, r7, #2
   10c40:	e3a03000 	mov	r3, #0
   10c44:	e3590000 	cmp	r9, #0
   10c48:	e5cd302f 	strb	r3, [sp, #47]	@ 0x2f
   10c4c:	ba000176 	blt	1122c <_vfiprintf_r+0xd78>
   10c50:	e1a0c007 	mov	ip, r7
   10c54:	e3a00002 	mov	r0, #2
   10c58:	e1823001 	orr	r3, r2, r1
   10c5c:	e3530000 	cmp	r3, #0
   10c60:	03590000 	cmpeq	r9, #0
   10c64:	e3cc7080 	bic	r7, ip, #128	@ 0x80
   10c68:	13a03001 	movne	r3, #1
   10c6c:	03a03000 	moveq	r3, #0
   10c70:	1a000169 	bne	1121c <_vfiprintf_r+0xd68>
   10c74:	e3500000 	cmp	r0, #0
   10c78:	1a000162 	bne	11208 <_vfiprintf_r+0xd54>
   10c7c:	e21c3001 	ands	r3, ip, #1
   10c80:	e58d3004 	str	r3, [sp, #4]
   10c84:	0a000173 	beq	11258 <_vfiprintf_r+0xda4>
   10c88:	e58d300c 	str	r3, [sp, #12]
   10c8c:	e3a03030 	mov	r3, #48	@ 0x30
   10c90:	e1a09000 	mov	r9, r0
   10c94:	e5cd3067 	strb	r3, [sp, #103]	@ 0x67
   10c98:	e28d4067 	add	r4, sp, #103	@ 0x67
   10c9c:	eaffff13 	b	108f0 <_vfiprintf_r+0x43c>
   10ca0:	e3170020 	tst	r7, #32
   10ca4:	0a00017b 	beq	11298 <_vfiprintf_r+0xde4>
   10ca8:	e59d3018 	ldr	r3, [sp, #24]
   10cac:	e59d2014 	ldr	r2, [sp, #20]
   10cb0:	e5933000 	ldr	r3, [r3]
   10cb4:	e5832000 	str	r2, [r3]
   10cb8:	e1a02fc2 	asr	r2, r2, #31
   10cbc:	e5832004 	str	r2, [r3, #4]
   10cc0:	e59d3018 	ldr	r3, [sp, #24]
   10cc4:	e2833004 	add	r3, r3, #4
   10cc8:	e58d3018 	str	r3, [sp, #24]
   10ccc:	eafffe20 	b	10554 <_vfiprintf_r+0xa0>
   10cd0:	e5db3000 	ldrb	r3, [fp]
   10cd4:	e353006c 	cmp	r3, #108	@ 0x6c
   10cd8:	05db3001 	ldrbeq	r3, [fp, #1]
   10cdc:	03877020 	orreq	r7, r7, #32
   10ce0:	028bb001 	addeq	fp, fp, #1
   10ce4:	13877010 	orrne	r7, r7, #16
   10ce8:	eafffe3e 	b	105e8 <_vfiprintf_r+0x134>
   10cec:	e5db3000 	ldrb	r3, [fp]
   10cf0:	e3877040 	orr	r7, r7, #64	@ 0x40
   10cf4:	eafffe3b 	b	105e8 <_vfiprintf_r+0x134>
   10cf8:	e3a02000 	mov	r2, #0
   10cfc:	e3a01001 	mov	r1, #1
   10d00:	e59d3018 	ldr	r3, [sp, #24]
   10d04:	e5cd202f 	strb	r2, [sp, #47]	@ 0x2f
   10d08:	e4932004 	ldr	r2, [r3], #4
   10d0c:	e58d1004 	str	r1, [sp, #4]
   10d10:	e5cd2040 	strb	r2, [sp, #64]	@ 0x40
   10d14:	e58d3018 	str	r3, [sp, #24]
   10d18:	e58d100c 	str	r1, [sp, #12]
   10d1c:	e28d4040 	add	r4, sp, #64	@ 0x40
   10d20:	eaffff18 	b	10988 <_vfiprintf_r+0x4d4>
   10d24:	e387c010 	orr	ip, r7, #16
   10d28:	e21c1020 	ands	r1, ip, #32
   10d2c:	0a00014d 	beq	11268 <_vfiprintf_r+0xdb4>
   10d30:	e59d3018 	ldr	r3, [sp, #24]
   10d34:	e2833007 	add	r3, r3, #7
   10d38:	e3c33007 	bic	r3, r3, #7
   10d3c:	e5931004 	ldr	r1, [r3, #4]
   10d40:	e4932008 	ldr	r2, [r3], #8
   10d44:	e58d3018 	str	r3, [sp, #24]
   10d48:	e3a03000 	mov	r3, #0
   10d4c:	e3590000 	cmp	r9, #0
   10d50:	b1a0700c 	movlt	r7, ip
   10d54:	e5cd302f 	strb	r3, [sp, #47]	@ 0x2f
   10d58:	baffff76 	blt	10b38 <_vfiprintf_r+0x684>
   10d5c:	e3a00001 	mov	r0, #1
   10d60:	eaffffbc 	b	10c58 <_vfiprintf_r+0x7a4>
   10d64:	e3a01000 	mov	r1, #0
   10d68:	e59d5018 	ldr	r5, [sp, #24]
   10d6c:	e4954004 	ldr	r4, [r5], #4
   10d70:	e1540001 	cmp	r4, r1
   10d74:	e5cd102f 	strb	r1, [sp, #47]	@ 0x2f
   10d78:	0a0001ad 	beq	11434 <_vfiprintf_r+0xf80>
   10d7c:	e3590000 	cmp	r9, #0
   10d80:	ba00016a 	blt	11330 <_vfiprintf_r+0xe7c>
   10d84:	e1a02009 	mov	r2, r9
   10d88:	e1a00004 	mov	r0, r4
   10d8c:	ebffe08e 	bl	8fcc <memchr>
   10d90:	e3500000 	cmp	r0, #0
   10d94:	058d900c 	streq	r9, [sp, #12]
   10d98:	10403004 	subne	r3, r0, r4
   10d9c:	158d300c 	strne	r3, [sp, #12]
   10da0:	e5dd302f 	ldrb	r3, [sp, #47]	@ 0x2f
   10da4:	e59d200c 	ldr	r2, [sp, #12]
   10da8:	e3530000 	cmp	r3, #0
   10dac:	e1c22fc2 	bic	r2, r2, r2, asr #31
   10db0:	13a09000 	movne	r9, #0
   10db4:	e58d2004 	str	r2, [sp, #4]
   10db8:	158d5018 	strne	r5, [sp, #24]
   10dbc:	1afffe93 	bne	10810 <_vfiprintf_r+0x35c>
   10dc0:	e1a09003 	mov	r9, r3
   10dc4:	e1a06003 	mov	r6, r3
   10dc8:	e58d5018 	str	r5, [sp, #24]
   10dcc:	eafffeef 	b	10990 <_vfiprintf_r+0x4dc>
   10dd0:	e5db3000 	ldrb	r3, [fp]
   10dd4:	e3877020 	orr	r7, r7, #32
   10dd8:	eafffe02 	b	105e8 <_vfiprintf_r+0x134>
   10ddc:	e59d3010 	ldr	r3, [sp, #16]
   10de0:	e59d0004 	ldr	r0, [sp, #4]
   10de4:	e0435000 	sub	r5, r3, r0
   10de8:	e3550000 	cmp	r5, #0
   10dec:	daffff0f 	ble	10a30 <_vfiprintf_r+0x57c>
   10df0:	e3550010 	cmp	r5, #16
   10df4:	d59f869c 	ldrle	r8, [pc, #1692]	@ 11498 <_vfiprintf_r+0xfe4>
   10df8:	da000024 	ble	10e90 <_vfiprintf_r+0x9dc>
   10dfc:	e1a0000a 	mov	r0, sl
   10e00:	e58d4020 	str	r4, [sp, #32]
   10e04:	e1a0a009 	mov	sl, r9
   10e08:	e3a06010 	mov	r6, #16
   10e0c:	e1a09007 	mov	r9, r7
   10e10:	e59f8680 	ldr	r8, [pc, #1664]	@ 11498 <_vfiprintf_r+0xfe4>
   10e14:	e59d401c 	ldr	r4, [sp, #28]
   10e18:	e59d7008 	ldr	r7, [sp, #8]
   10e1c:	ea000002 	b	10e2c <_vfiprintf_r+0x978>
   10e20:	e2455010 	sub	r5, r5, #16
   10e24:	e3550010 	cmp	r5, #16
   10e28:	da000014 	ble	10e80 <_vfiprintf_r+0x9cc>
   10e2c:	e2822001 	add	r2, r2, #1
   10e30:	e2811010 	add	r1, r1, #16
   10e34:	e3520007 	cmp	r2, #7
   10e38:	e5808000 	str	r8, [r0]
   10e3c:	e5806004 	str	r6, [r0, #4]
   10e40:	e58d103c 	str	r1, [sp, #60]	@ 0x3c
   10e44:	e58d2038 	str	r2, [sp, #56]	@ 0x38
   10e48:	d2800008 	addle	r0, r0, #8
   10e4c:	dafffff3 	ble	10e20 <_vfiprintf_r+0x96c>
   10e50:	e1a01007 	mov	r1, r7
   10e54:	e1a00004 	mov	r0, r4
   10e58:	e28d2034 	add	r2, sp, #52	@ 0x34
   10e5c:	ebfff59b 	bl	e4d0 <__sprint_r>
   10e60:	e3500000 	cmp	r0, #0
   10e64:	1afffeb6 	bne	10944 <_vfiprintf_r+0x490>
   10e68:	e2455010 	sub	r5, r5, #16
   10e6c:	e3550010 	cmp	r5, #16
   10e70:	e59d103c 	ldr	r1, [sp, #60]	@ 0x3c
   10e74:	e59d2038 	ldr	r2, [sp, #56]	@ 0x38
   10e78:	e28d0068 	add	r0, sp, #104	@ 0x68
   10e7c:	caffffea 	bgt	10e2c <_vfiprintf_r+0x978>
   10e80:	e1a07009 	mov	r7, r9
   10e84:	e1a0900a 	mov	r9, sl
   10e88:	e1a0a000 	mov	sl, r0
   10e8c:	e59d4020 	ldr	r4, [sp, #32]
   10e90:	e2822001 	add	r2, r2, #1
   10e94:	e0811005 	add	r1, r1, r5
   10e98:	e3520007 	cmp	r2, #7
   10e9c:	e58a8000 	str	r8, [sl]
   10ea0:	e58a5004 	str	r5, [sl, #4]
   10ea4:	e58d103c 	str	r1, [sp, #60]	@ 0x3c
   10ea8:	e58d2038 	str	r2, [sp, #56]	@ 0x38
   10eac:	d28aa008 	addle	sl, sl, #8
   10eb0:	dafffede 	ble	10a30 <_vfiprintf_r+0x57c>
   10eb4:	e59d1008 	ldr	r1, [sp, #8]
   10eb8:	e59d001c 	ldr	r0, [sp, #28]
   10ebc:	e28d2034 	add	r2, sp, #52	@ 0x34
   10ec0:	ebfff582 	bl	e4d0 <__sprint_r>
   10ec4:	e3500000 	cmp	r0, #0
   10ec8:	1afffe9d 	bne	10944 <_vfiprintf_r+0x490>
   10ecc:	e59d300c 	ldr	r3, [sp, #12]
   10ed0:	e0495003 	sub	r5, r9, r3
   10ed4:	e3550000 	cmp	r5, #0
   10ed8:	e59d103c 	ldr	r1, [sp, #60]	@ 0x3c
   10edc:	e59d2038 	ldr	r2, [sp, #56]	@ 0x38
   10ee0:	e28da068 	add	sl, sp, #104	@ 0x68
   10ee4:	dafffed5 	ble	10a40 <_vfiprintf_r+0x58c>
   10ee8:	e3550010 	cmp	r5, #16
   10eec:	e59f85a4 	ldr	r8, [pc, #1444]	@ 11498 <_vfiprintf_r+0xfe4>
   10ef0:	da000021 	ble	10f7c <_vfiprintf_r+0xac8>
   10ef4:	e1a0300a 	mov	r3, sl
   10ef8:	e3a09010 	mov	r9, #16
   10efc:	e1a0a005 	mov	sl, r5
   10f00:	e59d601c 	ldr	r6, [sp, #28]
   10f04:	e1a05004 	mov	r5, r4
   10f08:	e59d4008 	ldr	r4, [sp, #8]
   10f0c:	ea000002 	b	10f1c <_vfiprintf_r+0xa68>
   10f10:	e24aa010 	sub	sl, sl, #16
   10f14:	e35a0010 	cmp	sl, #16
   10f18:	da000014 	ble	10f70 <_vfiprintf_r+0xabc>
   10f1c:	e2822001 	add	r2, r2, #1
   10f20:	e59f0570 	ldr	r0, [pc, #1392]	@ 11498 <_vfiprintf_r+0xfe4>
   10f24:	e2811010 	add	r1, r1, #16
   10f28:	e3520007 	cmp	r2, #7
   10f2c:	e8830201 	stm	r3, {r0, r9}
   10f30:	e58d103c 	str	r1, [sp, #60]	@ 0x3c
   10f34:	e58d2038 	str	r2, [sp, #56]	@ 0x38
   10f38:	d2833008 	addle	r3, r3, #8
   10f3c:	dafffff3 	ble	10f10 <_vfiprintf_r+0xa5c>
   10f40:	e1a01004 	mov	r1, r4
   10f44:	e1a00006 	mov	r0, r6
   10f48:	e28d2034 	add	r2, sp, #52	@ 0x34
   10f4c:	ebfff55f 	bl	e4d0 <__sprint_r>
   10f50:	e3500000 	cmp	r0, #0
   10f54:	1afffe7a 	bne	10944 <_vfiprintf_r+0x490>
   10f58:	e24aa010 	sub	sl, sl, #16
   10f5c:	e35a0010 	cmp	sl, #16
   10f60:	e59d103c 	ldr	r1, [sp, #60]	@ 0x3c
   10f64:	e59d2038 	ldr	r2, [sp, #56]	@ 0x38
   10f68:	e28d3068 	add	r3, sp, #104	@ 0x68
   10f6c:	caffffea 	bgt	10f1c <_vfiprintf_r+0xa68>
   10f70:	e1a04005 	mov	r4, r5
   10f74:	e1a0500a 	mov	r5, sl
   10f78:	e1a0a003 	mov	sl, r3
   10f7c:	e2822001 	add	r2, r2, #1
   10f80:	e0811005 	add	r1, r1, r5
   10f84:	e3520007 	cmp	r2, #7
   10f88:	e58a8000 	str	r8, [sl]
   10f8c:	e58a5004 	str	r5, [sl, #4]
   10f90:	e58d103c 	str	r1, [sp, #60]	@ 0x3c
   10f94:	e58d2038 	str	r2, [sp, #56]	@ 0x38
   10f98:	d28aa008 	addle	sl, sl, #8
   10f9c:	dafffea7 	ble	10a40 <_vfiprintf_r+0x58c>
   10fa0:	e59d1008 	ldr	r1, [sp, #8]
   10fa4:	e59d001c 	ldr	r0, [sp, #28]
   10fa8:	e28d2034 	add	r2, sp, #52	@ 0x34
   10fac:	ebfff547 	bl	e4d0 <__sprint_r>
   10fb0:	e3500000 	cmp	r0, #0
   10fb4:	1afffe62 	bne	10944 <_vfiprintf_r+0x490>
   10fb8:	e59d103c 	ldr	r1, [sp, #60]	@ 0x3c
   10fbc:	e59d2038 	ldr	r2, [sp, #56]	@ 0x38
   10fc0:	e28da068 	add	sl, sp, #104	@ 0x68
   10fc4:	eafffe9d 	b	10a40 <_vfiprintf_r+0x58c>
   10fc8:	e59d1008 	ldr	r1, [sp, #8]
   10fcc:	e59d001c 	ldr	r0, [sp, #28]
   10fd0:	e28d2034 	add	r2, sp, #52	@ 0x34
   10fd4:	ebfff53d 	bl	e4d0 <__sprint_r>
   10fd8:	e3500000 	cmp	r0, #0
   10fdc:	1afffe58 	bne	10944 <_vfiprintf_r+0x490>
   10fe0:	e59d103c 	ldr	r1, [sp, #60]	@ 0x3c
   10fe4:	e28da068 	add	sl, sp, #104	@ 0x68
   10fe8:	eafffe9e 	b	10a68 <_vfiprintf_r+0x5b4>
   10fec:	e59d1008 	ldr	r1, [sp, #8]
   10ff0:	e59d001c 	ldr	r0, [sp, #28]
   10ff4:	e28d2034 	add	r2, sp, #52	@ 0x34
   10ff8:	ebfff534 	bl	e4d0 <__sprint_r>
   10ffc:	e3500000 	cmp	r0, #0
   11000:	0afffea8 	beq	10aa8 <_vfiprintf_r+0x5f4>
   11004:	eafffe4e 	b	10944 <_vfiprintf_r+0x490>
   11008:	e3550010 	cmp	r5, #16
   1100c:	d59f8488 	ldrle	r8, [pc, #1160]	@ 1149c <_vfiprintf_r+0xfe8>
   11010:	da000024 	ble	110a8 <_vfiprintf_r+0xbf4>
   11014:	e1a0000a 	mov	r0, sl
   11018:	e3a03010 	mov	r3, #16
   1101c:	e1a0a009 	mov	sl, r9
   11020:	e59f8474 	ldr	r8, [pc, #1140]	@ 1149c <_vfiprintf_r+0xfe8>
   11024:	e1a09007 	mov	r9, r7
   11028:	e1a07004 	mov	r7, r4
   1102c:	e59d401c 	ldr	r4, [sp, #28]
   11030:	ea000002 	b	11040 <_vfiprintf_r+0xb8c>
   11034:	e2455010 	sub	r5, r5, #16
   11038:	e3550010 	cmp	r5, #16
   1103c:	da000015 	ble	11098 <_vfiprintf_r+0xbe4>
   11040:	e2822001 	add	r2, r2, #1
   11044:	e2811010 	add	r1, r1, #16
   11048:	e3520007 	cmp	r2, #7
   1104c:	e5808000 	str	r8, [r0]
   11050:	e5803004 	str	r3, [r0, #4]
   11054:	e58d103c 	str	r1, [sp, #60]	@ 0x3c
   11058:	e58d2038 	str	r2, [sp, #56]	@ 0x38
   1105c:	d2800008 	addle	r0, r0, #8
   11060:	dafffff3 	ble	11034 <_vfiprintf_r+0xb80>
   11064:	e1a00004 	mov	r0, r4
   11068:	e59d1008 	ldr	r1, [sp, #8]
   1106c:	e28d2034 	add	r2, sp, #52	@ 0x34
   11070:	ebfff516 	bl	e4d0 <__sprint_r>
   11074:	e3500000 	cmp	r0, #0
   11078:	1afffe31 	bne	10944 <_vfiprintf_r+0x490>
   1107c:	e2455010 	sub	r5, r5, #16
   11080:	e3550010 	cmp	r5, #16
   11084:	e3a03010 	mov	r3, #16
   11088:	e59d103c 	ldr	r1, [sp, #60]	@ 0x3c
   1108c:	e59d2038 	ldr	r2, [sp, #56]	@ 0x38
   11090:	e28d0068 	add	r0, sp, #104	@ 0x68
   11094:	caffffe9 	bgt	11040 <_vfiprintf_r+0xb8c>
   11098:	e1a04007 	mov	r4, r7
   1109c:	e1a07009 	mov	r7, r9
   110a0:	e1a0900a 	mov	r9, sl
   110a4:	e1a0a000 	mov	sl, r0
   110a8:	e2822001 	add	r2, r2, #1
   110ac:	e0811005 	add	r1, r1, r5
   110b0:	e3520007 	cmp	r2, #7
   110b4:	e58a8000 	str	r8, [sl]
   110b8:	e58a5004 	str	r5, [sl, #4]
   110bc:	e58d103c 	str	r1, [sp, #60]	@ 0x3c
   110c0:	e58d2038 	str	r2, [sp, #56]	@ 0x38
   110c4:	d28aa008 	addle	sl, sl, #8
   110c8:	dafffe3a 	ble	109b8 <_vfiprintf_r+0x504>
   110cc:	e59d1008 	ldr	r1, [sp, #8]
   110d0:	e59d001c 	ldr	r0, [sp, #28]
   110d4:	e28d2034 	add	r2, sp, #52	@ 0x34
   110d8:	ebfff4fc 	bl	e4d0 <__sprint_r>
   110dc:	e3500000 	cmp	r0, #0
   110e0:	1afffe17 	bne	10944 <_vfiprintf_r+0x490>
   110e4:	e59d103c 	ldr	r1, [sp, #60]	@ 0x3c
   110e8:	e59d2038 	ldr	r2, [sp, #56]	@ 0x38
   110ec:	e28da068 	add	sl, sp, #104	@ 0x68
   110f0:	eafffe30 	b	109b8 <_vfiprintf_r+0x504>
   110f4:	e59d1008 	ldr	r1, [sp, #8]
   110f8:	e59d001c 	ldr	r0, [sp, #28]
   110fc:	e28d2034 	add	r2, sp, #52	@ 0x34
   11100:	ebfff4f2 	bl	e4d0 <__sprint_r>
   11104:	e3500000 	cmp	r0, #0
   11108:	1afffe0d 	bne	10944 <_vfiprintf_r+0x490>
   1110c:	e59d103c 	ldr	r1, [sp, #60]	@ 0x3c
   11110:	e59d2038 	ldr	r2, [sp, #56]	@ 0x38
   11114:	e28da068 	add	sl, sp, #104	@ 0x68
   11118:	eafffe34 	b	109f0 <_vfiprintf_r+0x53c>
   1111c:	e59d1008 	ldr	r1, [sp, #8]
   11120:	e59d001c 	ldr	r0, [sp, #28]
   11124:	e28d2034 	add	r2, sp, #52	@ 0x34
   11128:	ebfff4e8 	bl	e4d0 <__sprint_r>
   1112c:	e3500000 	cmp	r0, #0
   11130:	1afffe03 	bne	10944 <_vfiprintf_r+0x490>
   11134:	e59d103c 	ldr	r1, [sp, #60]	@ 0x3c
   11138:	e59d2038 	ldr	r2, [sp, #56]	@ 0x38
   1113c:	e28da068 	add	sl, sp, #104	@ 0x68
   11140:	eafffe37 	b	10a24 <_vfiprintf_r+0x570>
   11144:	e3540010 	cmp	r4, #16
   11148:	e59d3038 	ldr	r3, [sp, #56]	@ 0x38
   1114c:	d59f8348 	ldrle	r8, [pc, #840]	@ 1149c <_vfiprintf_r+0xfe8>
   11150:	da00001c 	ble	111c8 <_vfiprintf_r+0xd14>
   11154:	e3a05010 	mov	r5, #16
   11158:	e59f833c 	ldr	r8, [pc, #828]	@ 1149c <_vfiprintf_r+0xfe8>
   1115c:	e59d601c 	ldr	r6, [sp, #28]
   11160:	e59d7008 	ldr	r7, [sp, #8]
   11164:	ea000002 	b	11174 <_vfiprintf_r+0xcc0>
   11168:	e2444010 	sub	r4, r4, #16
   1116c:	e3540010 	cmp	r4, #16
   11170:	da000014 	ble	111c8 <_vfiprintf_r+0xd14>
   11174:	e2833001 	add	r3, r3, #1
   11178:	e2811010 	add	r1, r1, #16
   1117c:	e3530007 	cmp	r3, #7
   11180:	e58a8000 	str	r8, [sl]
   11184:	e58a5004 	str	r5, [sl, #4]
   11188:	e58d103c 	str	r1, [sp, #60]	@ 0x3c
   1118c:	e58d3038 	str	r3, [sp, #56]	@ 0x38
   11190:	d28aa008 	addle	sl, sl, #8
   11194:	dafffff3 	ble	11168 <_vfiprintf_r+0xcb4>
   11198:	e1a01007 	mov	r1, r7
   1119c:	e1a00006 	mov	r0, r6
   111a0:	e28d2034 	add	r2, sp, #52	@ 0x34
   111a4:	ebfff4c9 	bl	e4d0 <__sprint_r>
   111a8:	e3500000 	cmp	r0, #0
   111ac:	1afffde4 	bne	10944 <_vfiprintf_r+0x490>
   111b0:	e2444010 	sub	r4, r4, #16
   111b4:	e3540010 	cmp	r4, #16
   111b8:	e59d103c 	ldr	r1, [sp, #60]	@ 0x3c
   111bc:	e59d3038 	ldr	r3, [sp, #56]	@ 0x38
   111c0:	e28da068 	add	sl, sp, #104	@ 0x68
   111c4:	caffffea 	bgt	11174 <_vfiprintf_r+0xcc0>
   111c8:	e2833001 	add	r3, r3, #1
   111cc:	e0811004 	add	r1, r1, r4
   111d0:	e3530007 	cmp	r3, #7
   111d4:	e58a8000 	str	r8, [sl]
   111d8:	e58a4004 	str	r4, [sl, #4]
   111dc:	e58d3038 	str	r3, [sp, #56]	@ 0x38
   111e0:	e58d103c 	str	r1, [sp, #60]	@ 0x3c
   111e4:	dafffe26 	ble	10a84 <_vfiprintf_r+0x5d0>
   111e8:	e59d1008 	ldr	r1, [sp, #8]
   111ec:	e59d001c 	ldr	r0, [sp, #28]
   111f0:	e28d2034 	add	r2, sp, #52	@ 0x34
   111f4:	ebfff4b5 	bl	e4d0 <__sprint_r>
   111f8:	e3500000 	cmp	r0, #0
   111fc:	1afffdd0 	bne	10944 <_vfiprintf_r+0x490>
   11200:	e59d103c 	ldr	r1, [sp, #60]	@ 0x3c
   11204:	eafffe1e 	b	10a84 <_vfiprintf_r+0x5d0>
   11208:	e1a09003 	mov	r9, r3
   1120c:	e58d300c 	str	r3, [sp, #12]
   11210:	e58d3004 	str	r3, [sp, #4]
   11214:	e28d4068 	add	r4, sp, #104	@ 0x68
   11218:	eafffdb8 	b	10900 <_vfiprintf_r+0x44c>
   1121c:	e3500001 	cmp	r0, #1
   11220:	0afffe44 	beq	10b38 <_vfiprintf_r+0x684>
   11224:	e3500002 	cmp	r0, #2
   11228:	1afffd9e 	bne	108a8 <_vfiprintf_r+0x3f4>
   1122c:	e59d0024 	ldr	r0, [sp, #36]	@ 0x24
   11230:	e28d4068 	add	r4, sp, #104	@ 0x68
   11234:	e202300f 	and	r3, r2, #15
   11238:	e7d03003 	ldrb	r3, [r0, r3]
   1123c:	e1a02222 	lsr	r2, r2, #4
   11240:	e1822e01 	orr	r2, r2, r1, lsl #28
   11244:	e1a01221 	lsr	r1, r1, #4
   11248:	e5643001 	strb	r3, [r4, #-1]!
   1124c:	e1923001 	orrs	r3, r2, r1
   11250:	1afffff7 	bne	11234 <_vfiprintf_r+0xd80>
   11254:	eafffda2 	b	108e4 <_vfiprintf_r+0x430>
   11258:	e1a09000 	mov	r9, r0
   1125c:	e58d000c 	str	r0, [sp, #12]
   11260:	e28d4068 	add	r4, sp, #104	@ 0x68
   11264:	eafffda5 	b	10900 <_vfiprintf_r+0x44c>
   11268:	e59d0018 	ldr	r0, [sp, #24]
   1126c:	e4902004 	ldr	r2, [r0], #4
   11270:	e21c3010 	ands	r3, ip, #16
   11274:	e58d0018 	str	r0, [sp, #24]
   11278:	1afffeb2 	bne	10d48 <_vfiprintf_r+0x894>
   1127c:	e21c1040 	ands	r1, ip, #64	@ 0x40
   11280:	11a02802 	lslne	r2, r2, #16
   11284:	11a01003 	movne	r1, r3
   11288:	11a02822 	lsrne	r2, r2, #16
   1128c:	eafffead 	b	10d48 <_vfiprintf_r+0x894>
   11290:	e1a0c007 	mov	ip, r7
   11294:	eafffe6f 	b	10c58 <_vfiprintf_r+0x7a4>
   11298:	e3170010 	tst	r7, #16
   1129c:	1a000027 	bne	11340 <_vfiprintf_r+0xe8c>
   112a0:	e3170040 	tst	r7, #64	@ 0x40
   112a4:	0a000025 	beq	11340 <_vfiprintf_r+0xe8c>
   112a8:	e59d3018 	ldr	r3, [sp, #24]
   112ac:	e59d2014 	ldr	r2, [sp, #20]
   112b0:	e5933000 	ldr	r3, [r3]
   112b4:	e1c320b0 	strh	r2, [r3]
   112b8:	eafffe80 	b	10cc0 <_vfiprintf_r+0x80c>
   112bc:	e59f21dc 	ldr	r2, [pc, #476]	@ 114a0 <_vfiprintf_r+0xfec>
   112c0:	e58d2024 	str	r2, [sp, #36]	@ 0x24
   112c4:	e2171020 	ands	r1, r7, #32
   112c8:	0a000021 	beq	11354 <_vfiprintf_r+0xea0>
   112cc:	e59d2018 	ldr	r2, [sp, #24]
   112d0:	e2822007 	add	r2, r2, #7
   112d4:	e3c22007 	bic	r2, r2, #7
   112d8:	e1a00002 	mov	r0, r2
   112dc:	e5921004 	ldr	r1, [r2, #4]
   112e0:	e4902008 	ldr	r2, [r0], #8
   112e4:	e58d0018 	str	r0, [sp, #24]
   112e8:	e3170001 	tst	r7, #1
   112ec:	0afffe53 	beq	10c40 <_vfiprintf_r+0x78c>
   112f0:	e1920001 	orrs	r0, r2, r1
   112f4:	0afffe51 	beq	10c40 <_vfiprintf_r+0x78c>
   112f8:	e5cd3031 	strb	r3, [sp, #49]	@ 0x31
   112fc:	e3a03030 	mov	r3, #48	@ 0x30
   11300:	e5cd3030 	strb	r3, [sp, #48]	@ 0x30
   11304:	e3a03000 	mov	r3, #0
   11308:	e3590000 	cmp	r9, #0
   1130c:	e5cd302f 	strb	r3, [sp, #47]	@ 0x2f
   11310:	e3877002 	orr	r7, r7, #2
   11314:	baffffc4 	blt	1122c <_vfiprintf_r+0xd78>
   11318:	eafffe4c 	b	10c50 <_vfiprintf_r+0x79c>
   1131c:	e1a0c007 	mov	ip, r7
   11320:	eafffe80 	b	10d28 <_vfiprintf_r+0x874>
   11324:	e59f2168 	ldr	r2, [pc, #360]	@ 11494 <_vfiprintf_r+0xfe0>
   11328:	e58d2024 	str	r2, [sp, #36]	@ 0x24
   1132c:	eaffffe4 	b	112c4 <_vfiprintf_r+0xe10>
   11330:	e1a00004 	mov	r0, r4
   11334:	ebffdef1 	bl	8f00 <strlen>
   11338:	e58d000c 	str	r0, [sp, #12]
   1133c:	eafffe97 	b	10da0 <_vfiprintf_r+0x8ec>
   11340:	e59d3018 	ldr	r3, [sp, #24]
   11344:	e59d2014 	ldr	r2, [sp, #20]
   11348:	e5933000 	ldr	r3, [r3]
   1134c:	e5832000 	str	r2, [r3]
   11350:	eafffe5a 	b	10cc0 <_vfiprintf_r+0x80c>
   11354:	e59dc018 	ldr	ip, [sp, #24]
   11358:	e49c2004 	ldr	r2, [ip], #4
   1135c:	e2170010 	ands	r0, r7, #16
   11360:	e58dc018 	str	ip, [sp, #24]
   11364:	1affffdf 	bne	112e8 <_vfiprintf_r+0xe34>
   11368:	e2171040 	ands	r1, r7, #64	@ 0x40
   1136c:	11a02802 	lslne	r2, r2, #16
   11370:	11a01000 	movne	r1, r0
   11374:	11a02822 	lsrne	r2, r2, #16
   11378:	eaffffda 	b	112e8 <_vfiprintf_r+0xe34>
   1137c:	e3a03030 	mov	r3, #48	@ 0x30
   11380:	e2400002 	sub	r0, r0, #2
   11384:	e5443001 	strb	r3, [r4, #-1]
   11388:	e28d3068 	add	r3, sp, #104	@ 0x68
   1138c:	e0433000 	sub	r3, r3, r0
   11390:	e1a04000 	mov	r4, r0
   11394:	e58d300c 	str	r3, [sp, #12]
   11398:	eafffd54 	b	108f0 <_vfiprintf_r+0x43c>
   1139c:	e59f8100 	ldr	r8, [pc, #256]	@ 114a4 <_vfiprintf_r+0xff0>
   113a0:	e58d7004 	str	r7, [sp, #4]
   113a4:	e28d4068 	add	r4, sp, #104	@ 0x68
   113a8:	e0923001 	adds	r3, r2, r1
   113ac:	e2a33000 	adc	r3, r3, #0
   113b0:	e0850398 	umull	r0, r5, r8, r3
   113b4:	e3c50003 	bic	r0, r5, #3
   113b8:	e0800125 	add	r0, r0, r5, lsr #2
   113bc:	e0433000 	sub	r3, r3, r0
   113c0:	e1a0e002 	mov	lr, r2
   113c4:	e0522003 	subs	r2, r2, r3
   113c8:	e2c10000 	sbc	r0, r1, #0
   113cc:	e1a0c001 	mov	ip, r1
   113d0:	e59f10d0 	ldr	r1, [pc, #208]	@ 114a8 <_vfiprintf_r+0xff4>
   113d4:	e0010192 	mul	r1, r2, r1
   113d8:	e3a07005 	mov	r7, #5
   113dc:	e0211098 	mla	r1, r8, r0, r1
   113e0:	e0850892 	umull	r0, r5, r2, r8
   113e4:	e0811005 	add	r1, r1, r5
   113e8:	e2005001 	and	r5, r0, #1
   113ec:	e0862795 	umull	r2, r6, r5, r7
   113f0:	e0922003 	adds	r2, r2, r3
   113f4:	e35e000a 	cmp	lr, #10
   113f8:	e2822030 	add	r2, r2, #48	@ 0x30
   113fc:	e1a000a0 	lsr	r0, r0, #1
   11400:	e2dcc000 	sbcs	ip, ip, #0
   11404:	e5642001 	strb	r2, [r4, #-1]!
   11408:	e1802f81 	orr	r2, r0, r1, lsl #31
   1140c:	e1a010a1 	lsr	r1, r1, #1
   11410:	2affffe4 	bcs	113a8 <_vfiprintf_r+0xef4>
   11414:	e28d2068 	add	r2, sp, #104	@ 0x68
   11418:	e0422004 	sub	r2, r2, r4
   1141c:	e59d7004 	ldr	r7, [sp, #4]
   11420:	e5dd302f 	ldrb	r3, [sp, #47]	@ 0x2f
   11424:	e58d200c 	str	r2, [sp, #12]
   11428:	eafffcf2 	b	107f8 <_vfiprintf_r+0x344>
   1142c:	ebfff3b7 	bl	e310 <__sinit>
   11430:	eafffc2b 	b	104e4 <_vfiprintf_r+0x30>
   11434:	e3590006 	cmp	r9, #6
   11438:	31a03009 	movcc	r3, r9
   1143c:	23a03006 	movcs	r3, #6
   11440:	e58d5018 	str	r5, [sp, #24]
   11444:	e58d300c 	str	r3, [sp, #12]
   11448:	e59f405c 	ldr	r4, [pc, #92]	@ 114ac <_vfiprintf_r+0xff8>
   1144c:	e58d3004 	str	r3, [sp, #4]
   11450:	eafffd4c 	b	10988 <_vfiprintf_r+0x4d4>
   11454:	e59d1008 	ldr	r1, [sp, #8]
   11458:	e59d001c 	ldr	r0, [sp, #28]
   1145c:	e28d2034 	add	r2, sp, #52	@ 0x34
   11460:	ebfff41a 	bl	e4d0 <__sprint_r>
   11464:	eafffd36 	b	10944 <_vfiprintf_r+0x490>
   11468:	e3e03000 	mvn	r3, #0
   1146c:	e58d3014 	str	r3, [sp, #20]
   11470:	eafffd37 	b	10954 <_vfiprintf_r+0x4a0>
   11474:	e59d2018 	ldr	r2, [sp, #24]
   11478:	e4929004 	ldr	r9, [r2], #4
   1147c:	e5db3001 	ldrb	r3, [fp, #1]
   11480:	e58d2018 	str	r2, [sp, #24]
   11484:	e1a0b001 	mov	fp, r1
   11488:	e1899fc9 	orr	r9, r9, r9, asr #31
   1148c:	eafffc55 	b	105e8 <_vfiprintf_r+0x134>
   11490:	00007830 	.word	0x00007830
   11494:	0001288c 	.word	0x0001288c
   11498:	00012854 	.word	0x00012854
   1149c:	00012844 	.word	0x00012844
   114a0:	00012878 	.word	0x00012878
   114a4:	cccccccd 	.word	0xcccccccd
   114a8:	cccccccc 	.word	0xcccccccc
   114ac:	000128a0 	.word	0x000128a0

000114b0 <vfiprintf>:
   114b0:	e1a0c001 	mov	ip, r1
   114b4:	e52de004 	push	{lr}		@ (str lr, [sp, #-4]!)
   114b8:	e1a0e000 	mov	lr, r0
   114bc:	e1a03002 	mov	r3, r2
   114c0:	e59f2010 	ldr	r2, [pc, #16]	@ 114d8 <vfiprintf+0x28>
   114c4:	e1a0100e 	mov	r1, lr
   114c8:	e5920000 	ldr	r0, [r2]
   114cc:	e49de004 	pop	{lr}		@ (ldr lr, [sp], #4)
   114d0:	e1a0200c 	mov	r2, ip
   114d4:	eafffbf6 	b	104b4 <_vfiprintf_r>
   114d8:	00012970 	.word	0x00012970

000114dc <__sbprintf>:
   114dc:	e92d40f0 	push	{r4, r5, r6, r7, lr}
   114e0:	e3a0cb01 	mov	ip, #1024	@ 0x400
   114e4:	e1a04001 	mov	r4, r1
   114e8:	e24dde46 	sub	sp, sp, #1120	@ 0x460
   114ec:	e24dd00c 	sub	sp, sp, #12
   114f0:	e1a0600d 	mov	r6, sp
   114f4:	e3a0e000 	mov	lr, #0
   114f8:	e58dc008 	str	ip, [sp, #8]
   114fc:	e58dc014 	str	ip, [sp, #20]
   11500:	e1d4c0bc 	ldrh	ip, [r4, #12]
   11504:	e3ccc002 	bic	ip, ip, #2
   11508:	e1c6c0bc 	strh	ip, [r6, #12]
   1150c:	e594c064 	ldr	ip, [r4, #100]	@ 0x64
   11510:	e58dc064 	str	ip, [sp, #100]	@ 0x64
   11514:	e1d4c0be 	ldrh	ip, [r4, #14]
   11518:	e1c6c0be 	strh	ip, [r6, #14]
   1151c:	e594c01c 	ldr	ip, [r4, #28]
   11520:	e28d1068 	add	r1, sp, #104	@ 0x68
   11524:	e58dc01c 	str	ip, [sp, #28]
   11528:	e594c024 	ldr	ip, [r4, #36]	@ 0x24
   1152c:	e58d1000 	str	r1, [sp]
   11530:	e58d1010 	str	r1, [sp, #16]
   11534:	e1a01006 	mov	r1, r6
   11538:	e1a07000 	mov	r7, r0
   1153c:	e58de018 	str	lr, [sp, #24]
   11540:	e58dc024 	str	ip, [sp, #36]	@ 0x24
   11544:	ebfffbda 	bl	104b4 <_vfiprintf_r>
   11548:	e2505000 	subs	r5, r0, #0
   1154c:	ba000004 	blt	11564 <__sbprintf+0x88>
   11550:	e1a01006 	mov	r1, r6
   11554:	e1a00007 	mov	r0, r7
   11558:	ebffe750 	bl	b2a0 <_fflush_r>
   1155c:	e3500000 	cmp	r0, #0
   11560:	13e05000 	mvnne	r5, #0
   11564:	e1a00005 	mov	r0, r5
   11568:	e1dd30bc 	ldrh	r3, [sp, #12]
   1156c:	e3130040 	tst	r3, #64	@ 0x40
   11570:	11d430bc 	ldrhne	r3, [r4, #12]
   11574:	13833040 	orrne	r3, r3, #64	@ 0x40
   11578:	11c430bc 	strhne	r3, [r4, #12]
   1157c:	e28dde46 	add	sp, sp, #1120	@ 0x460
   11580:	e28dd00c 	add	sp, sp, #12
   11584:	e8bd40f0 	pop	{r4, r5, r6, r7, lr}
   11588:	e12fff1e 	bx	lr

0001158c <_read_r>:
   1158c:	e92d4070 	push	{r4, r5, r6, lr}
   11590:	e1a0e001 	mov	lr, r1
   11594:	e1a01002 	mov	r1, r2
   11598:	e3a02000 	mov	r2, #0
   1159c:	e59f502c 	ldr	r5, [pc, #44]	@ 115d0 <_read_r+0x44>
   115a0:	e1a04000 	mov	r4, r0
   115a4:	e5852000 	str	r2, [r5]
   115a8:	e1a0000e 	mov	r0, lr
   115ac:	e1a02003 	mov	r2, r3
   115b0:	ebffdc27 	bl	8654 <_read>
   115b4:	e3700001 	cmn	r0, #1
   115b8:	1a000002 	bne	115c8 <_read_r+0x3c>
   115bc:	e5953000 	ldr	r3, [r5]
   115c0:	e3530000 	cmp	r3, #0
   115c4:	15843000 	strne	r3, [r4]
   115c8:	e8bd4070 	pop	{r4, r5, r6, lr}
   115cc:	e12fff1e 	bx	lr
   115d0:	00013194 	.word	0x00013194

000115d4 <_lseek_r>:
   115d4:	e92d4070 	push	{r4, r5, r6, lr}
   115d8:	e1a0e001 	mov	lr, r1
   115dc:	e1a01002 	mov	r1, r2
   115e0:	e3a02000 	mov	r2, #0
   115e4:	e59f502c 	ldr	r5, [pc, #44]	@ 11618 <_lseek_r+0x44>
   115e8:	e1a04000 	mov	r4, r0
   115ec:	e5852000 	str	r2, [r5]
   115f0:	e1a0000e 	mov	r0, lr
   115f4:	e1a02003 	mov	r2, r3
   115f8:	ebffdbe8 	bl	85a0 <_lseek>
   115fc:	e3700001 	cmn	r0, #1
   11600:	1a000002 	bne	11610 <_lseek_r+0x3c>
   11604:	e5953000 	ldr	r3, [r5]
   11608:	e3530000 	cmp	r3, #0
   1160c:	15843000 	strne	r3, [r4]
   11610:	e8bd4070 	pop	{r4, r5, r6, lr}
   11614:	e12fff1e 	bx	lr
   11618:	00013194 	.word	0x00013194
   1161c:	e92d4070 	push	{r4, r5, r6, lr}
   11620:	e3a0c0ff 	mov	ip, #255	@ 0xff
   11624:	e38ccc07 	orr	ip, ip, #1792	@ 0x700
   11628:	e01c4a21 	ands	r4, ip, r1, lsr #20
   1162c:	101c5a23 	andsne	r5, ip, r3, lsr #20
   11630:	1134000c 	teqne	r4, ip
   11634:	1135000c 	teqne	r5, ip
   11638:	0b000075 	bleq	11814 <_lseek_r+0x240>
   1163c:	e0844005 	add	r4, r4, r5
   11640:	e0216003 	eor	r6, r1, r3
   11644:	e1c11a8c 	bic	r1, r1, ip, lsl #21
   11648:	e1c33a8c 	bic	r3, r3, ip, lsl #21
   1164c:	e1905601 	orrs	r5, r0, r1, lsl #12
   11650:	11925603 	orrsne	r5, r2, r3, lsl #12
   11654:	e3811601 	orr	r1, r1, #1048576	@ 0x100000
   11658:	e3833601 	orr	r3, r3, #1048576	@ 0x100000
   1165c:	0a00001d 	beq	116d8 <_lseek_r+0x104>
   11660:	e08ec290 	umull	ip, lr, r0, r2
   11664:	e3a05000 	mov	r5, #0
   11668:	e0a5e291 	umlal	lr, r5, r1, r2
   1166c:	e2062102 	and	r2, r6, #-2147483648	@ 0x80000000
   11670:	e0a5e390 	umlal	lr, r5, r0, r3
   11674:	e3a06000 	mov	r6, #0
   11678:	e0a65391 	umlal	r5, r6, r1, r3
   1167c:	e33c0000 	teq	ip, #0
   11680:	138ee001 	orrne	lr, lr, #1
   11684:	e24440ff 	sub	r4, r4, #255	@ 0xff
   11688:	e3560c02 	cmp	r6, #512	@ 0x200
   1168c:	e2c44c03 	sbc	r4, r4, #768	@ 0x300
   11690:	2a000002 	bcs	116a0 <_lseek_r+0xcc>
   11694:	e1b0e08e 	lsls	lr, lr, #1
   11698:	e0b55005 	adcs	r5, r5, r5
   1169c:	e0a66006 	adc	r6, r6, r6
   116a0:	e1821586 	orr	r1, r2, r6, lsl #11
   116a4:	e1811aa5 	orr	r1, r1, r5, lsr #21
   116a8:	e1a00585 	lsl	r0, r5, #11
   116ac:	e1800aae 	orr	r0, r0, lr, lsr #21
   116b0:	e1a0e58e 	lsl	lr, lr, #11
   116b4:	e254c0fd 	subs	ip, r4, #253	@ 0xfd
   116b8:	835c0c07 	cmphi	ip, #1792	@ 0x700
   116bc:	8a000011 	bhi	11708 <_lseek_r+0x134>
   116c0:	e35e0102 	cmp	lr, #-2147483648	@ 0x80000000
   116c4:	01b0e0a0 	lsrseq	lr, r0, #1
   116c8:	e2b00000 	adcs	r0, r0, #0
   116cc:	e0a11a04 	adc	r1, r1, r4, lsl #20
   116d0:	e8bd4070 	pop	{r4, r5, r6, lr}
   116d4:	e12fff1e 	bx	lr
   116d8:	e2066102 	and	r6, r6, #-2147483648	@ 0x80000000
   116dc:	e1861001 	orr	r1, r6, r1
   116e0:	e1800002 	orr	r0, r0, r2
   116e4:	e0211003 	eor	r1, r1, r3
   116e8:	e05440ac 	subs	r4, r4, ip, lsr #1
   116ec:	c074500c 	rsbsgt	r5, r4, ip
   116f0:	c1811a04 	orrgt	r1, r1, r4, lsl #20
   116f4:	c8bd4070 	popgt	{r4, r5, r6, lr}
   116f8:	c12fff1e 	bxgt	lr
   116fc:	e3811601 	orr	r1, r1, #1048576	@ 0x100000
   11700:	e3a0e000 	mov	lr, #0
   11704:	e2544001 	subs	r4, r4, #1
   11708:	ca00005d 	bgt	11884 <_lseek_r+0x2b0>
   1170c:	e3740036 	cmn	r4, #54	@ 0x36
   11710:	d3a00000 	movle	r0, #0
   11714:	d2011102 	andle	r1, r1, #-2147483648	@ 0x80000000
   11718:	d8bd4070 	pople	{r4, r5, r6, lr}
   1171c:	d12fff1e 	bxle	lr
   11720:	e2644000 	rsb	r4, r4, #0
   11724:	e2544020 	subs	r4, r4, #32
   11728:	aa00001a 	bge	11798 <_lseek_r+0x1c4>
   1172c:	e294400c 	adds	r4, r4, #12
   11730:	ca00000c 	bgt	11768 <_lseek_r+0x194>
   11734:	e2844014 	add	r4, r4, #20
   11738:	e2645020 	rsb	r5, r4, #32
   1173c:	e1a03510 	lsl	r3, r0, r5
   11740:	e1a00430 	lsr	r0, r0, r4
   11744:	e1800511 	orr	r0, r0, r1, lsl r5
   11748:	e2012102 	and	r2, r1, #-2147483648	@ 0x80000000
   1174c:	e3c11102 	bic	r1, r1, #-2147483648	@ 0x80000000
   11750:	e0900fa3 	adds	r0, r0, r3, lsr #31
   11754:	e0a21431 	adc	r1, r2, r1, lsr r4
   11758:	e19ee083 	orrs	lr, lr, r3, lsl #1
   1175c:	01c00fa3 	biceq	r0, r0, r3, lsr #31
   11760:	e8bd4070 	pop	{r4, r5, r6, lr}
   11764:	e12fff1e 	bx	lr
   11768:	e264400c 	rsb	r4, r4, #12
   1176c:	e2645020 	rsb	r5, r4, #32
   11770:	e1a03410 	lsl	r3, r0, r4
   11774:	e1a00530 	lsr	r0, r0, r5
   11778:	e1800411 	orr	r0, r0, r1, lsl r4
   1177c:	e2011102 	and	r1, r1, #-2147483648	@ 0x80000000
   11780:	e0900fa3 	adds	r0, r0, r3, lsr #31
   11784:	e2a11000 	adc	r1, r1, #0
   11788:	e19ee083 	orrs	lr, lr, r3, lsl #1
   1178c:	01c00fa3 	biceq	r0, r0, r3, lsr #31
   11790:	e8bd4070 	pop	{r4, r5, r6, lr}
   11794:	e12fff1e 	bx	lr
   11798:	e2645020 	rsb	r5, r4, #32
   1179c:	e18ee510 	orr	lr, lr, r0, lsl r5
   117a0:	e1a03430 	lsr	r3, r0, r4
   117a4:	e1833511 	orr	r3, r3, r1, lsl r5
   117a8:	e1a00431 	lsr	r0, r1, r4
   117ac:	e2011102 	and	r1, r1, #-2147483648	@ 0x80000000
   117b0:	e1c00431 	bic	r0, r0, r1, lsr r4
   117b4:	e0800fa3 	add	r0, r0, r3, lsr #31
   117b8:	e19ee083 	orrs	lr, lr, r3, lsl #1
   117bc:	01c00fa3 	biceq	r0, r0, r3, lsr #31
   117c0:	e8bd4070 	pop	{r4, r5, r6, lr}
   117c4:	e12fff1e 	bx	lr
   117c8:	e3340000 	teq	r4, #0
   117cc:	1a000008 	bne	117f4 <_lseek_r+0x220>
   117d0:	e2016102 	and	r6, r1, #-2147483648	@ 0x80000000
   117d4:	e1b00080 	lsls	r0, r0, #1
   117d8:	e0a11001 	adc	r1, r1, r1
   117dc:	e3110601 	tst	r1, #1048576	@ 0x100000
   117e0:	02444001 	subeq	r4, r4, #1
   117e4:	0afffffa 	beq	117d4 <_lseek_r+0x200>
   117e8:	e1811006 	orr	r1, r1, r6
   117ec:	e3350000 	teq	r5, #0
   117f0:	112fff1e 	bxne	lr
   117f4:	e2036102 	and	r6, r3, #-2147483648	@ 0x80000000
   117f8:	e1b02082 	lsls	r2, r2, #1
   117fc:	e0a33003 	adc	r3, r3, r3
   11800:	e3130601 	tst	r3, #1048576	@ 0x100000
   11804:	02455001 	subeq	r5, r5, #1
   11808:	0afffffa 	beq	117f8 <_lseek_r+0x224>
   1180c:	e1833006 	orr	r3, r3, r6
   11810:	e12fff1e 	bx	lr
   11814:	e134000c 	teq	r4, ip
   11818:	e00c5a23 	and	r5, ip, r3, lsr #20
   1181c:	1135000c 	teqne	r5, ip
   11820:	0a000007 	beq	11844 <_lseek_r+0x270>
   11824:	e1906081 	orrs	r6, r0, r1, lsl #1
   11828:	11926083 	orrsne	r6, r2, r3, lsl #1
   1182c:	1affffe5 	bne	117c8 <_lseek_r+0x1f4>
   11830:	e0211003 	eor	r1, r1, r3
   11834:	e2011102 	and	r1, r1, #-2147483648	@ 0x80000000
   11838:	e3a00000 	mov	r0, #0
   1183c:	e8bd4070 	pop	{r4, r5, r6, lr}
   11840:	e12fff1e 	bx	lr
   11844:	e1906081 	orrs	r6, r0, r1, lsl #1
   11848:	01a00002 	moveq	r0, r2
   1184c:	01a01003 	moveq	r1, r3
   11850:	11926083 	orrsne	r6, r2, r3, lsl #1
   11854:	0a000010 	beq	1189c <_lseek_r+0x2c8>
   11858:	e134000c 	teq	r4, ip
   1185c:	1a000001 	bne	11868 <_lseek_r+0x294>
   11860:	e1906601 	orrs	r6, r0, r1, lsl #12
   11864:	1a00000c 	bne	1189c <_lseek_r+0x2c8>
   11868:	e135000c 	teq	r5, ip
   1186c:	1a000003 	bne	11880 <_lseek_r+0x2ac>
   11870:	e1926603 	orrs	r6, r2, r3, lsl #12
   11874:	11a00002 	movne	r0, r2
   11878:	11a01003 	movne	r1, r3
   1187c:	1a000006 	bne	1189c <_lseek_r+0x2c8>
   11880:	e0211003 	eor	r1, r1, r3
   11884:	e2011102 	and	r1, r1, #-2147483648	@ 0x80000000
   11888:	e381147f 	orr	r1, r1, #2130706432	@ 0x7f000000
   1188c:	e381160f 	orr	r1, r1, #15728640	@ 0xf00000
   11890:	e3a00000 	mov	r0, #0
   11894:	e8bd4070 	pop	{r4, r5, r6, lr}
   11898:	e12fff1e 	bx	lr
   1189c:	e381147f 	orr	r1, r1, #2130706432	@ 0x7f000000
   118a0:	e381173e 	orr	r1, r1, #16252928	@ 0xf80000
   118a4:	e8bd4070 	pop	{r4, r5, r6, lr}
   118a8:	e12fff1e 	bx	lr

000118ac <__udivsi3>:
   118ac:	e2512001 	subs	r2, r1, #1
   118b0:	012fff1e 	bxeq	lr
   118b4:	3a000036 	bcc	11994 <__udivsi3+0xe8>
   118b8:	e1500001 	cmp	r0, r1
   118bc:	9a000022 	bls	1194c <__udivsi3+0xa0>
   118c0:	e1110002 	tst	r1, r2
   118c4:	0a000023 	beq	11958 <__udivsi3+0xac>
   118c8:	e311020e 	tst	r1, #-536870912	@ 0xe0000000
   118cc:	01a01181 	lsleq	r1, r1, #3
   118d0:	03a03008 	moveq	r3, #8
   118d4:	13a03001 	movne	r3, #1
   118d8:	e3510201 	cmp	r1, #268435456	@ 0x10000000
   118dc:	31510000 	cmpcc	r1, r0
   118e0:	31a01201 	lslcc	r1, r1, #4
   118e4:	31a03203 	lslcc	r3, r3, #4
   118e8:	3afffffa 	bcc	118d8 <__udivsi3+0x2c>
   118ec:	e3510102 	cmp	r1, #-2147483648	@ 0x80000000
   118f0:	31510000 	cmpcc	r1, r0
   118f4:	31a01081 	lslcc	r1, r1, #1
   118f8:	31a03083 	lslcc	r3, r3, #1
   118fc:	3afffffa 	bcc	118ec <__udivsi3+0x40>
   11900:	e3a02000 	mov	r2, #0
   11904:	e1500001 	cmp	r0, r1
   11908:	20400001 	subcs	r0, r0, r1
   1190c:	21822003 	orrcs	r2, r2, r3
   11910:	e15000a1 	cmp	r0, r1, lsr #1
   11914:	204000a1 	subcs	r0, r0, r1, lsr #1
   11918:	218220a3 	orrcs	r2, r2, r3, lsr #1
   1191c:	e1500121 	cmp	r0, r1, lsr #2
   11920:	20400121 	subcs	r0, r0, r1, lsr #2
   11924:	21822123 	orrcs	r2, r2, r3, lsr #2
   11928:	e15001a1 	cmp	r0, r1, lsr #3
   1192c:	204001a1 	subcs	r0, r0, r1, lsr #3
   11930:	218221a3 	orrcs	r2, r2, r3, lsr #3
   11934:	e3500000 	cmp	r0, #0
   11938:	11b03223 	lsrsne	r3, r3, #4
   1193c:	11a01221 	lsrne	r1, r1, #4
   11940:	1affffef 	bne	11904 <__udivsi3+0x58>
   11944:	e1a00002 	mov	r0, r2
   11948:	e12fff1e 	bx	lr
   1194c:	03a00001 	moveq	r0, #1
   11950:	13a00000 	movne	r0, #0
   11954:	e12fff1e 	bx	lr
   11958:	e3510801 	cmp	r1, #65536	@ 0x10000
   1195c:	21a01821 	lsrcs	r1, r1, #16
   11960:	23a02010 	movcs	r2, #16
   11964:	33a02000 	movcc	r2, #0
   11968:	e3510c01 	cmp	r1, #256	@ 0x100
   1196c:	21a01421 	lsrcs	r1, r1, #8
   11970:	22822008 	addcs	r2, r2, #8
   11974:	e3510010 	cmp	r1, #16
   11978:	21a01221 	lsrcs	r1, r1, #4
   1197c:	22822004 	addcs	r2, r2, #4
   11980:	e3510004 	cmp	r1, #4
   11984:	82822003 	addhi	r2, r2, #3
   11988:	908220a1 	addls	r2, r2, r1, lsr #1
   1198c:	e1a00230 	lsr	r0, r0, r2
   11990:	e12fff1e 	bx	lr
   11994:	e3500000 	cmp	r0, #0
   11998:	13e00000 	mvnne	r0, #0
   1199c:	ea000059 	b	11b08 <__aeabi_idiv0>

000119a0 <__aeabi_uidivmod>:
   119a0:	e3510000 	cmp	r1, #0
   119a4:	0afffffa 	beq	11994 <__udivsi3+0xe8>
   119a8:	e92d4003 	push	{r0, r1, lr}
   119ac:	ebffffbe 	bl	118ac <__udivsi3>
   119b0:	e8bd4006 	pop	{r1, r2, lr}
   119b4:	e0030092 	mul	r3, r2, r0
   119b8:	e0411003 	sub	r1, r1, r3
   119bc:	e12fff1e 	bx	lr

000119c0 <__divsi3>:
   119c0:	e3510000 	cmp	r1, #0
   119c4:	0a000043 	beq	11ad8 <.divsi3_skip_div0_test+0x110>

000119c8 <.divsi3_skip_div0_test>:
   119c8:	e020c001 	eor	ip, r0, r1
   119cc:	42611000 	rsbmi	r1, r1, #0
   119d0:	e2512001 	subs	r2, r1, #1
   119d4:	0a000027 	beq	11a78 <.divsi3_skip_div0_test+0xb0>
   119d8:	e1b03000 	movs	r3, r0
   119dc:	42603000 	rsbmi	r3, r0, #0
   119e0:	e1530001 	cmp	r3, r1
   119e4:	9a000026 	bls	11a84 <.divsi3_skip_div0_test+0xbc>
   119e8:	e1110002 	tst	r1, r2
   119ec:	0a000028 	beq	11a94 <.divsi3_skip_div0_test+0xcc>
   119f0:	e311020e 	tst	r1, #-536870912	@ 0xe0000000
   119f4:	01a01181 	lsleq	r1, r1, #3
   119f8:	03a02008 	moveq	r2, #8
   119fc:	13a02001 	movne	r2, #1
   11a00:	e3510201 	cmp	r1, #268435456	@ 0x10000000
   11a04:	31510003 	cmpcc	r1, r3
   11a08:	31a01201 	lslcc	r1, r1, #4
   11a0c:	31a02202 	lslcc	r2, r2, #4
   11a10:	3afffffa 	bcc	11a00 <.divsi3_skip_div0_test+0x38>
   11a14:	e3510102 	cmp	r1, #-2147483648	@ 0x80000000
   11a18:	31510003 	cmpcc	r1, r3
   11a1c:	31a01081 	lslcc	r1, r1, #1
   11a20:	31a02082 	lslcc	r2, r2, #1
   11a24:	3afffffa 	bcc	11a14 <.divsi3_skip_div0_test+0x4c>
   11a28:	e3a00000 	mov	r0, #0
   11a2c:	e1530001 	cmp	r3, r1
   11a30:	20433001 	subcs	r3, r3, r1
   11a34:	21800002 	orrcs	r0, r0, r2
   11a38:	e15300a1 	cmp	r3, r1, lsr #1
   11a3c:	204330a1 	subcs	r3, r3, r1, lsr #1
   11a40:	218000a2 	orrcs	r0, r0, r2, lsr #1
   11a44:	e1530121 	cmp	r3, r1, lsr #2
   11a48:	20433121 	subcs	r3, r3, r1, lsr #2
   11a4c:	21800122 	orrcs	r0, r0, r2, lsr #2
   11a50:	e15301a1 	cmp	r3, r1, lsr #3
   11a54:	204331a1 	subcs	r3, r3, r1, lsr #3
   11a58:	218001a2 	orrcs	r0, r0, r2, lsr #3
   11a5c:	e3530000 	cmp	r3, #0
   11a60:	11b02222 	lsrsne	r2, r2, #4
   11a64:	11a01221 	lsrne	r1, r1, #4
   11a68:	1affffef 	bne	11a2c <.divsi3_skip_div0_test+0x64>
   11a6c:	e35c0000 	cmp	ip, #0
   11a70:	42600000 	rsbmi	r0, r0, #0
   11a74:	e12fff1e 	bx	lr
   11a78:	e13c0000 	teq	ip, r0
   11a7c:	42600000 	rsbmi	r0, r0, #0
   11a80:	e12fff1e 	bx	lr
   11a84:	33a00000 	movcc	r0, #0
   11a88:	01a00fcc 	asreq	r0, ip, #31
   11a8c:	03800001 	orreq	r0, r0, #1
   11a90:	e12fff1e 	bx	lr
   11a94:	e3510801 	cmp	r1, #65536	@ 0x10000
   11a98:	21a01821 	lsrcs	r1, r1, #16
   11a9c:	23a02010 	movcs	r2, #16
   11aa0:	33a02000 	movcc	r2, #0
   11aa4:	e3510c01 	cmp	r1, #256	@ 0x100
   11aa8:	21a01421 	lsrcs	r1, r1, #8
   11aac:	22822008 	addcs	r2, r2, #8
   11ab0:	e3510010 	cmp	r1, #16
   11ab4:	21a01221 	lsrcs	r1, r1, #4
   11ab8:	22822004 	addcs	r2, r2, #4
   11abc:	e3510004 	cmp	r1, #4
   11ac0:	82822003 	addhi	r2, r2, #3
   11ac4:	908220a1 	addls	r2, r2, r1, lsr #1
   11ac8:	e35c0000 	cmp	ip, #0
   11acc:	e1a00233 	lsr	r0, r3, r2
   11ad0:	42600000 	rsbmi	r0, r0, #0
   11ad4:	e12fff1e 	bx	lr
   11ad8:	e3500000 	cmp	r0, #0
   11adc:	c3e00102 	mvngt	r0, #-2147483648	@ 0x80000000
   11ae0:	b3a00102 	movlt	r0, #-2147483648	@ 0x80000000
   11ae4:	ea000007 	b	11b08 <__aeabi_idiv0>

00011ae8 <__aeabi_idivmod>:
   11ae8:	e3510000 	cmp	r1, #0
   11aec:	0afffff9 	beq	11ad8 <.divsi3_skip_div0_test+0x110>
   11af0:	e92d4003 	push	{r0, r1, lr}
   11af4:	ebffffb3 	bl	119c8 <.divsi3_skip_div0_test>
   11af8:	e8bd4006 	pop	{r1, r2, lr}
   11afc:	e0030092 	mul	r3, r2, r0
   11b00:	e0411003 	sub	r1, r1, r3
   11b04:	e12fff1e 	bx	lr

00011b08 <__aeabi_idiv0>:
   11b08:	e12fff1e 	bx	lr

00011b0c <__aeabi_drsub>:
   11b0c:	e2211102 	eor	r1, r1, #-2147483648	@ 0x80000000
   11b10:	ea000000 	b	11b18 <__adddf3>

00011b14 <__aeabi_dsub>:
   11b14:	e2233102 	eor	r3, r3, #-2147483648	@ 0x80000000

00011b18 <__adddf3>:
   11b18:	e92d4030 	push	{r4, r5, lr}
   11b1c:	e1a04081 	lsl	r4, r1, #1
   11b20:	e1a05083 	lsl	r5, r3, #1
   11b24:	e1340005 	teq	r4, r5
   11b28:	01300002 	teqeq	r0, r2
   11b2c:	1194c000 	orrsne	ip, r4, r0
   11b30:	1195c002 	orrsne	ip, r5, r2
   11b34:	11f0cac4 	mvnsne	ip, r4, asr #21
   11b38:	11f0cac5 	mvnsne	ip, r5, asr #21
   11b3c:	0a00008c 	beq	11d74 <__adddf3+0x25c>
   11b40:	e1a04aa4 	lsr	r4, r4, #21
   11b44:	e0745aa5 	rsbs	r5, r4, r5, lsr #21
   11b48:	b2655000 	rsblt	r5, r5, #0
   11b4c:	da000006 	ble	11b6c <__adddf3+0x54>
   11b50:	e0844005 	add	r4, r4, r5
   11b54:	e0202002 	eor	r2, r0, r2
   11b58:	e0213003 	eor	r3, r1, r3
   11b5c:	e0220000 	eor	r0, r2, r0
   11b60:	e0231001 	eor	r1, r3, r1
   11b64:	e0202002 	eor	r2, r0, r2
   11b68:	e0213003 	eor	r3, r1, r3
   11b6c:	e3550036 	cmp	r5, #54	@ 0x36
   11b70:	88bd4030 	pophi	{r4, r5, lr}
   11b74:	812fff1e 	bxhi	lr
   11b78:	e3110102 	tst	r1, #-2147483648	@ 0x80000000
   11b7c:	e1a01601 	lsl	r1, r1, #12
   11b80:	e3a0c601 	mov	ip, #1048576	@ 0x100000
   11b84:	e18c1621 	orr	r1, ip, r1, lsr #12
   11b88:	0a000001 	beq	11b94 <__adddf3+0x7c>
   11b8c:	e2700000 	rsbs	r0, r0, #0
   11b90:	e2e11000 	rsc	r1, r1, #0
   11b94:	e3130102 	tst	r3, #-2147483648	@ 0x80000000
   11b98:	e1a03603 	lsl	r3, r3, #12
   11b9c:	e18c3623 	orr	r3, ip, r3, lsr #12
   11ba0:	0a000001 	beq	11bac <__adddf3+0x94>
   11ba4:	e2722000 	rsbs	r2, r2, #0
   11ba8:	e2e33000 	rsc	r3, r3, #0
   11bac:	e1340005 	teq	r4, r5
   11bb0:	0a000069 	beq	11d5c <__adddf3+0x244>
   11bb4:	e2444001 	sub	r4, r4, #1
   11bb8:	e275e020 	rsbs	lr, r5, #32
   11bbc:	ba000005 	blt	11bd8 <__adddf3+0xc0>
   11bc0:	e1a0ce12 	lsl	ip, r2, lr
   11bc4:	e0900532 	adds	r0, r0, r2, lsr r5
   11bc8:	e2a11000 	adc	r1, r1, #0
   11bcc:	e0900e13 	adds	r0, r0, r3, lsl lr
   11bd0:	e0b11553 	adcs	r1, r1, r3, asr r5
   11bd4:	ea000006 	b	11bf4 <__adddf3+0xdc>
   11bd8:	e2455020 	sub	r5, r5, #32
   11bdc:	e28ee020 	add	lr, lr, #32
   11be0:	e3520001 	cmp	r2, #1
   11be4:	e1a0ce13 	lsl	ip, r3, lr
   11be8:	238cc002 	orrcs	ip, ip, #2
   11bec:	e0900553 	adds	r0, r0, r3, asr r5
   11bf0:	e0b11fc3 	adcs	r1, r1, r3, asr #31
   11bf4:	e2015102 	and	r5, r1, #-2147483648	@ 0x80000000
   11bf8:	5a000002 	bpl	11c08 <__adddf3+0xf0>
   11bfc:	e27cc000 	rsbs	ip, ip, #0
   11c00:	e2f00000 	rscs	r0, r0, #0
   11c04:	e2e11000 	rsc	r1, r1, #0
   11c08:	e3510601 	cmp	r1, #1048576	@ 0x100000
   11c0c:	3a00000f 	bcc	11c50 <__adddf3+0x138>
   11c10:	e3510602 	cmp	r1, #2097152	@ 0x200000
   11c14:	3a000006 	bcc	11c34 <__adddf3+0x11c>
   11c18:	e1b010a1 	lsrs	r1, r1, #1
   11c1c:	e1b00060 	rrxs	r0, r0
   11c20:	e1a0c06c 	rrx	ip, ip
   11c24:	e2844001 	add	r4, r4, #1
   11c28:	e1a02a84 	lsl	r2, r4, #21
   11c2c:	e3720501 	cmn	r2, #4194304	@ 0x400000
   11c30:	2a00006b 	bcs	11de4 <__adddf3+0x2cc>
   11c34:	e35c0102 	cmp	ip, #-2147483648	@ 0x80000000
   11c38:	01b0c0a0 	lsrseq	ip, r0, #1
   11c3c:	e2b00000 	adcs	r0, r0, #0
   11c40:	e0a11a04 	adc	r1, r1, r4, lsl #20
   11c44:	e1811005 	orr	r1, r1, r5
   11c48:	e8bd4030 	pop	{r4, r5, lr}
   11c4c:	e12fff1e 	bx	lr
   11c50:	e1b0c08c 	lsls	ip, ip, #1
   11c54:	e0b00000 	adcs	r0, r0, r0
   11c58:	e0a11001 	adc	r1, r1, r1
   11c5c:	e2544001 	subs	r4, r4, #1
   11c60:	23510601 	cmpcs	r1, #1048576	@ 0x100000
   11c64:	2afffff2 	bcs	11c34 <__adddf3+0x11c>
   11c68:	e3310000 	teq	r1, #0
   11c6c:	13a03014 	movne	r3, #20
   11c70:	03a03034 	moveq	r3, #52	@ 0x34
   11c74:	01a01000 	moveq	r1, r0
   11c78:	03a00000 	moveq	r0, #0
   11c7c:	e1a02001 	mov	r2, r1
   11c80:	e3520801 	cmp	r2, #65536	@ 0x10000
   11c84:	21a02822 	lsrcs	r2, r2, #16
   11c88:	22433010 	subcs	r3, r3, #16
   11c8c:	e3520c01 	cmp	r2, #256	@ 0x100
   11c90:	21a02422 	lsrcs	r2, r2, #8
   11c94:	22433008 	subcs	r3, r3, #8
   11c98:	e3520010 	cmp	r2, #16
   11c9c:	21a02222 	lsrcs	r2, r2, #4
   11ca0:	22433004 	subcs	r3, r3, #4
   11ca4:	e3520004 	cmp	r2, #4
   11ca8:	22433002 	subcs	r3, r3, #2
   11cac:	304330a2 	subcc	r3, r3, r2, lsr #1
   11cb0:	e04331a2 	sub	r3, r3, r2, lsr #3
   11cb4:	e2532020 	subs	r2, r3, #32
   11cb8:	aa000007 	bge	11cdc <__adddf3+0x1c4>
   11cbc:	e292200c 	adds	r2, r2, #12
   11cc0:	da000004 	ble	11cd8 <__adddf3+0x1c0>
   11cc4:	e282c014 	add	ip, r2, #20
   11cc8:	e262200c 	rsb	r2, r2, #12
   11ccc:	e1a00c11 	lsl	r0, r1, ip
   11cd0:	e1a01231 	lsr	r1, r1, r2
   11cd4:	ea000004 	b	11cec <__adddf3+0x1d4>
   11cd8:	e2822014 	add	r2, r2, #20
   11cdc:	d262c020 	rsble	ip, r2, #32
   11ce0:	e1a01211 	lsl	r1, r1, r2
   11ce4:	d1811c30 	orrle	r1, r1, r0, lsr ip
   11ce8:	d1a00210 	lslle	r0, r0, r2
   11cec:	e0544003 	subs	r4, r4, r3
   11cf0:	a0811a04 	addge	r1, r1, r4, lsl #20
   11cf4:	a1811005 	orrge	r1, r1, r5
   11cf8:	a8bd4030 	popge	{r4, r5, lr}
   11cfc:	a12fff1e 	bxge	lr
   11d00:	e1e04004 	mvn	r4, r4
   11d04:	e254401f 	subs	r4, r4, #31
   11d08:	aa00000f 	bge	11d4c <__adddf3+0x234>
   11d0c:	e294400c 	adds	r4, r4, #12
   11d10:	ca000006 	bgt	11d30 <__adddf3+0x218>
   11d14:	e2844014 	add	r4, r4, #20
   11d18:	e2642020 	rsb	r2, r4, #32
   11d1c:	e1a00430 	lsr	r0, r0, r4
   11d20:	e1800211 	orr	r0, r0, r1, lsl r2
   11d24:	e1851431 	orr	r1, r5, r1, lsr r4
   11d28:	e8bd4030 	pop	{r4, r5, lr}
   11d2c:	e12fff1e 	bx	lr
   11d30:	e264400c 	rsb	r4, r4, #12
   11d34:	e2642020 	rsb	r2, r4, #32
   11d38:	e1a00230 	lsr	r0, r0, r2
   11d3c:	e1800411 	orr	r0, r0, r1, lsl r4
   11d40:	e1a01005 	mov	r1, r5
   11d44:	e8bd4030 	pop	{r4, r5, lr}
   11d48:	e12fff1e 	bx	lr
   11d4c:	e1a00431 	lsr	r0, r1, r4
   11d50:	e1a01005 	mov	r1, r5
   11d54:	e8bd4030 	pop	{r4, r5, lr}
   11d58:	e12fff1e 	bx	lr
   11d5c:	e3340000 	teq	r4, #0
   11d60:	e2233601 	eor	r3, r3, #1048576	@ 0x100000
   11d64:	02211601 	eoreq	r1, r1, #1048576	@ 0x100000
   11d68:	02844001 	addeq	r4, r4, #1
   11d6c:	12455001 	subne	r5, r5, #1
   11d70:	eaffff8f 	b	11bb4 <__adddf3+0x9c>
   11d74:	e1f0cac4 	mvns	ip, r4, asr #21
   11d78:	11f0cac5 	mvnsne	ip, r5, asr #21
   11d7c:	0a00001d 	beq	11df8 <__adddf3+0x2e0>
   11d80:	e1340005 	teq	r4, r5
   11d84:	01300002 	teqeq	r0, r2
   11d88:	0a000004 	beq	11da0 <__adddf3+0x288>
   11d8c:	e194c000 	orrs	ip, r4, r0
   11d90:	01a01003 	moveq	r1, r3
   11d94:	01a00002 	moveq	r0, r2
   11d98:	e8bd4030 	pop	{r4, r5, lr}
   11d9c:	e12fff1e 	bx	lr
   11da0:	e1310003 	teq	r1, r3
   11da4:	13a01000 	movne	r1, #0
   11da8:	13a00000 	movne	r0, #0
   11dac:	18bd4030 	popne	{r4, r5, lr}
   11db0:	112fff1e 	bxne	lr
   11db4:	e1b0caa4 	lsrs	ip, r4, #21
   11db8:	1a000004 	bne	11dd0 <__adddf3+0x2b8>
   11dbc:	e1b00080 	lsls	r0, r0, #1
   11dc0:	e0b11001 	adcs	r1, r1, r1
   11dc4:	23811102 	orrcs	r1, r1, #-2147483648	@ 0x80000000
   11dc8:	e8bd4030 	pop	{r4, r5, lr}
   11dcc:	e12fff1e 	bx	lr
   11dd0:	e2944501 	adds	r4, r4, #4194304	@ 0x400000
   11dd4:	32811601 	addcc	r1, r1, #1048576	@ 0x100000
   11dd8:	38bd4030 	popcc	{r4, r5, lr}
   11ddc:	312fff1e 	bxcc	lr
   11de0:	e2015102 	and	r5, r1, #-2147483648	@ 0x80000000
   11de4:	e385147f 	orr	r1, r5, #2130706432	@ 0x7f000000
   11de8:	e381160f 	orr	r1, r1, #15728640	@ 0xf00000
   11dec:	e3a00000 	mov	r0, #0
   11df0:	e8bd4030 	pop	{r4, r5, lr}
   11df4:	e12fff1e 	bx	lr
   11df8:	e1f0cac4 	mvns	ip, r4, asr #21
   11dfc:	11a01003 	movne	r1, r3
   11e00:	11a00002 	movne	r0, r2
   11e04:	01f0cac5 	mvnseq	ip, r5, asr #21
   11e08:	11a03001 	movne	r3, r1
   11e0c:	11a02000 	movne	r2, r0
   11e10:	e1904601 	orrs	r4, r0, r1, lsl #12
   11e14:	01925603 	orrseq	r5, r2, r3, lsl #12
   11e18:	01310003 	teqeq	r1, r3
   11e1c:	13811702 	orrne	r1, r1, #524288	@ 0x80000
   11e20:	e8bd4030 	pop	{r4, r5, lr}
   11e24:	e12fff1e 	bx	lr

00011e28 <__aeabi_ui2d>:
   11e28:	e3300000 	teq	r0, #0
   11e2c:	03a01000 	moveq	r1, #0
   11e30:	012fff1e 	bxeq	lr
   11e34:	e92d4030 	push	{r4, r5, lr}
   11e38:	e3a04b01 	mov	r4, #1024	@ 0x400
   11e3c:	e2844032 	add	r4, r4, #50	@ 0x32
   11e40:	e3a05000 	mov	r5, #0
   11e44:	e3a01000 	mov	r1, #0
   11e48:	eaffff86 	b	11c68 <__adddf3+0x150>

00011e4c <__aeabi_i2d>:
   11e4c:	e3300000 	teq	r0, #0
   11e50:	03a01000 	moveq	r1, #0
   11e54:	012fff1e 	bxeq	lr
   11e58:	e92d4030 	push	{r4, r5, lr}
   11e5c:	e3a04b01 	mov	r4, #1024	@ 0x400
   11e60:	e2844032 	add	r4, r4, #50	@ 0x32
   11e64:	e2105102 	ands	r5, r0, #-2147483648	@ 0x80000000
   11e68:	42600000 	rsbmi	r0, r0, #0
   11e6c:	e3a01000 	mov	r1, #0
   11e70:	eaffff7c 	b	11c68 <__adddf3+0x150>

00011e74 <__aeabi_f2d>:
   11e74:	e1b02080 	lsls	r2, r0, #1
   11e78:	e1a011c2 	asr	r1, r2, #3
   11e7c:	e1a01061 	rrx	r1, r1
   11e80:	e1a00e02 	lsl	r0, r2, #28
   11e84:	121234ff 	andsne	r3, r2, #-16777216	@ 0xff000000
   11e88:	133304ff 	teqne	r3, #-16777216	@ 0xff000000
   11e8c:	1221130e 	eorne	r1, r1, #939524096	@ 0x38000000
   11e90:	112fff1e 	bxne	lr
   11e94:	e3d224ff 	bics	r2, r2, #-16777216	@ 0xff000000
   11e98:	012fff1e 	bxeq	lr
   11e9c:	e33304ff 	teq	r3, #-16777216	@ 0xff000000
   11ea0:	03811702 	orreq	r1, r1, #524288	@ 0x80000
   11ea4:	012fff1e 	bxeq	lr
   11ea8:	e92d4030 	push	{r4, r5, lr}
   11eac:	e3a04d0e 	mov	r4, #896	@ 0x380
   11eb0:	e2015102 	and	r5, r1, #-2147483648	@ 0x80000000
   11eb4:	e3c11102 	bic	r1, r1, #-2147483648	@ 0x80000000
   11eb8:	eaffff6a 	b	11c68 <__adddf3+0x150>

00011ebc <__aeabi_ul2d>:
   11ebc:	e1902001 	orrs	r2, r0, r1
   11ec0:	012fff1e 	bxeq	lr
   11ec4:	e92d4030 	push	{r4, r5, lr}
   11ec8:	e3a05000 	mov	r5, #0
   11ecc:	ea000006 	b	11eec <__aeabi_l2d+0x1c>

00011ed0 <__aeabi_l2d>:
   11ed0:	e1902001 	orrs	r2, r0, r1
   11ed4:	012fff1e 	bxeq	lr
   11ed8:	e92d4030 	push	{r4, r5, lr}
   11edc:	e2115102 	ands	r5, r1, #-2147483648	@ 0x80000000
   11ee0:	5a000001 	bpl	11eec <__aeabi_l2d+0x1c>
   11ee4:	e2700000 	rsbs	r0, r0, #0
   11ee8:	e2e11000 	rsc	r1, r1, #0
   11eec:	e3a04b01 	mov	r4, #1024	@ 0x400
   11ef0:	e2844032 	add	r4, r4, #50	@ 0x32
   11ef4:	e1b0cb21 	lsrs	ip, r1, #22
   11ef8:	0affff42 	beq	11c08 <__adddf3+0xf0>
   11efc:	e3a02003 	mov	r2, #3
   11f00:	e1b0c1ac 	lsrs	ip, ip, #3
   11f04:	12822003 	addne	r2, r2, #3
   11f08:	e1b0c1ac 	lsrs	ip, ip, #3
   11f0c:	12822003 	addne	r2, r2, #3
   11f10:	e08221ac 	add	r2, r2, ip, lsr #3
   11f14:	e2623020 	rsb	r3, r2, #32
   11f18:	e1a0c310 	lsl	ip, r0, r3
   11f1c:	e1a00230 	lsr	r0, r0, r2
   11f20:	e1800311 	orr	r0, r0, r1, lsl r3
   11f24:	e1a01231 	lsr	r1, r1, r2
   11f28:	e0844002 	add	r4, r4, r2
   11f2c:	eaffff35 	b	11c08 <__adddf3+0xf0>

00011f30 <__aeabi_dmul>:
   11f30:	e92d4070 	push	{r4, r5, r6, lr}
   11f34:	e3a0c0ff 	mov	ip, #255	@ 0xff
   11f38:	e38ccc07 	orr	ip, ip, #1792	@ 0x700
   11f3c:	e01c4a21 	ands	r4, ip, r1, lsr #20
   11f40:	101c5a23 	andsne	r5, ip, r3, lsr #20
   11f44:	1134000c 	teqne	r4, ip
   11f48:	1135000c 	teqne	r5, ip
   11f4c:	0b000075 	bleq	12128 <__aeabi_dmul+0x1f8>
   11f50:	e0844005 	add	r4, r4, r5
   11f54:	e0216003 	eor	r6, r1, r3
   11f58:	e1c11a8c 	bic	r1, r1, ip, lsl #21
   11f5c:	e1c33a8c 	bic	r3, r3, ip, lsl #21
   11f60:	e1905601 	orrs	r5, r0, r1, lsl #12
   11f64:	11925603 	orrsne	r5, r2, r3, lsl #12
   11f68:	e3811601 	orr	r1, r1, #1048576	@ 0x100000
   11f6c:	e3833601 	orr	r3, r3, #1048576	@ 0x100000
   11f70:	0a00001d 	beq	11fec <__aeabi_dmul+0xbc>
   11f74:	e08ec290 	umull	ip, lr, r0, r2
   11f78:	e3a05000 	mov	r5, #0
   11f7c:	e0a5e291 	umlal	lr, r5, r1, r2
   11f80:	e2062102 	and	r2, r6, #-2147483648	@ 0x80000000
   11f84:	e0a5e390 	umlal	lr, r5, r0, r3
   11f88:	e3a06000 	mov	r6, #0
   11f8c:	e0a65391 	umlal	r5, r6, r1, r3
   11f90:	e33c0000 	teq	ip, #0
   11f94:	138ee001 	orrne	lr, lr, #1
   11f98:	e24440ff 	sub	r4, r4, #255	@ 0xff
   11f9c:	e3560c02 	cmp	r6, #512	@ 0x200
   11fa0:	e2c44c03 	sbc	r4, r4, #768	@ 0x300
   11fa4:	2a000002 	bcs	11fb4 <__aeabi_dmul+0x84>
   11fa8:	e1b0e08e 	lsls	lr, lr, #1
   11fac:	e0b55005 	adcs	r5, r5, r5
   11fb0:	e0a66006 	adc	r6, r6, r6
   11fb4:	e1821586 	orr	r1, r2, r6, lsl #11
   11fb8:	e1811aa5 	orr	r1, r1, r5, lsr #21
   11fbc:	e1a00585 	lsl	r0, r5, #11
   11fc0:	e1800aae 	orr	r0, r0, lr, lsr #21
   11fc4:	e1a0e58e 	lsl	lr, lr, #11
   11fc8:	e254c0fd 	subs	ip, r4, #253	@ 0xfd
   11fcc:	835c0c07 	cmphi	ip, #1792	@ 0x700
   11fd0:	8a000011 	bhi	1201c <__aeabi_dmul+0xec>
   11fd4:	e35e0102 	cmp	lr, #-2147483648	@ 0x80000000
   11fd8:	01b0e0a0 	lsrseq	lr, r0, #1
   11fdc:	e2b00000 	adcs	r0, r0, #0
   11fe0:	e0a11a04 	adc	r1, r1, r4, lsl #20
   11fe4:	e8bd4070 	pop	{r4, r5, r6, lr}
   11fe8:	e12fff1e 	bx	lr
   11fec:	e2066102 	and	r6, r6, #-2147483648	@ 0x80000000
   11ff0:	e1861001 	orr	r1, r6, r1
   11ff4:	e1800002 	orr	r0, r0, r2
   11ff8:	e0211003 	eor	r1, r1, r3
   11ffc:	e05440ac 	subs	r4, r4, ip, lsr #1
   12000:	c074500c 	rsbsgt	r5, r4, ip
   12004:	c1811a04 	orrgt	r1, r1, r4, lsl #20
   12008:	c8bd4070 	popgt	{r4, r5, r6, lr}
   1200c:	c12fff1e 	bxgt	lr
   12010:	e3811601 	orr	r1, r1, #1048576	@ 0x100000
   12014:	e3a0e000 	mov	lr, #0
   12018:	e2544001 	subs	r4, r4, #1
   1201c:	ca00005d 	bgt	12198 <__aeabi_dmul+0x268>
   12020:	e3740036 	cmn	r4, #54	@ 0x36
   12024:	d3a00000 	movle	r0, #0
   12028:	d2011102 	andle	r1, r1, #-2147483648	@ 0x80000000
   1202c:	d8bd4070 	pople	{r4, r5, r6, lr}
   12030:	d12fff1e 	bxle	lr
   12034:	e2644000 	rsb	r4, r4, #0
   12038:	e2544020 	subs	r4, r4, #32
   1203c:	aa00001a 	bge	120ac <__aeabi_dmul+0x17c>
   12040:	e294400c 	adds	r4, r4, #12
   12044:	ca00000c 	bgt	1207c <__aeabi_dmul+0x14c>
   12048:	e2844014 	add	r4, r4, #20
   1204c:	e2645020 	rsb	r5, r4, #32
   12050:	e1a03510 	lsl	r3, r0, r5
   12054:	e1a00430 	lsr	r0, r0, r4
   12058:	e1800511 	orr	r0, r0, r1, lsl r5
   1205c:	e2012102 	and	r2, r1, #-2147483648	@ 0x80000000
   12060:	e3c11102 	bic	r1, r1, #-2147483648	@ 0x80000000
   12064:	e0900fa3 	adds	r0, r0, r3, lsr #31
   12068:	e0a21431 	adc	r1, r2, r1, lsr r4
   1206c:	e19ee083 	orrs	lr, lr, r3, lsl #1
   12070:	01c00fa3 	biceq	r0, r0, r3, lsr #31
   12074:	e8bd4070 	pop	{r4, r5, r6, lr}
   12078:	e12fff1e 	bx	lr
   1207c:	e264400c 	rsb	r4, r4, #12
   12080:	e2645020 	rsb	r5, r4, #32
   12084:	e1a03410 	lsl	r3, r0, r4
   12088:	e1a00530 	lsr	r0, r0, r5
   1208c:	e1800411 	orr	r0, r0, r1, lsl r4
   12090:	e2011102 	and	r1, r1, #-2147483648	@ 0x80000000
   12094:	e0900fa3 	adds	r0, r0, r3, lsr #31
   12098:	e2a11000 	adc	r1, r1, #0
   1209c:	e19ee083 	orrs	lr, lr, r3, lsl #1
   120a0:	01c00fa3 	biceq	r0, r0, r3, lsr #31
   120a4:	e8bd4070 	pop	{r4, r5, r6, lr}
   120a8:	e12fff1e 	bx	lr
   120ac:	e2645020 	rsb	r5, r4, #32
   120b0:	e18ee510 	orr	lr, lr, r0, lsl r5
   120b4:	e1a03430 	lsr	r3, r0, r4
   120b8:	e1833511 	orr	r3, r3, r1, lsl r5
   120bc:	e1a00431 	lsr	r0, r1, r4
   120c0:	e2011102 	and	r1, r1, #-2147483648	@ 0x80000000
   120c4:	e1c00431 	bic	r0, r0, r1, lsr r4
   120c8:	e0800fa3 	add	r0, r0, r3, lsr #31
   120cc:	e19ee083 	orrs	lr, lr, r3, lsl #1
   120d0:	01c00fa3 	biceq	r0, r0, r3, lsr #31
   120d4:	e8bd4070 	pop	{r4, r5, r6, lr}
   120d8:	e12fff1e 	bx	lr
   120dc:	e3340000 	teq	r4, #0
   120e0:	1a000008 	bne	12108 <__aeabi_dmul+0x1d8>
   120e4:	e2016102 	and	r6, r1, #-2147483648	@ 0x80000000
   120e8:	e1b00080 	lsls	r0, r0, #1
   120ec:	e0a11001 	adc	r1, r1, r1
   120f0:	e3110601 	tst	r1, #1048576	@ 0x100000
   120f4:	02444001 	subeq	r4, r4, #1
   120f8:	0afffffa 	beq	120e8 <__aeabi_dmul+0x1b8>
   120fc:	e1811006 	orr	r1, r1, r6
   12100:	e3350000 	teq	r5, #0
   12104:	112fff1e 	bxne	lr
   12108:	e2036102 	and	r6, r3, #-2147483648	@ 0x80000000
   1210c:	e1b02082 	lsls	r2, r2, #1
   12110:	e0a33003 	adc	r3, r3, r3
   12114:	e3130601 	tst	r3, #1048576	@ 0x100000
   12118:	02455001 	subeq	r5, r5, #1
   1211c:	0afffffa 	beq	1210c <__aeabi_dmul+0x1dc>
   12120:	e1833006 	orr	r3, r3, r6
   12124:	e12fff1e 	bx	lr
   12128:	e134000c 	teq	r4, ip
   1212c:	e00c5a23 	and	r5, ip, r3, lsr #20
   12130:	1135000c 	teqne	r5, ip
   12134:	0a000007 	beq	12158 <__aeabi_dmul+0x228>
   12138:	e1906081 	orrs	r6, r0, r1, lsl #1
   1213c:	11926083 	orrsne	r6, r2, r3, lsl #1
   12140:	1affffe5 	bne	120dc <__aeabi_dmul+0x1ac>
   12144:	e0211003 	eor	r1, r1, r3
   12148:	e2011102 	and	r1, r1, #-2147483648	@ 0x80000000
   1214c:	e3a00000 	mov	r0, #0
   12150:	e8bd4070 	pop	{r4, r5, r6, lr}
   12154:	e12fff1e 	bx	lr
   12158:	e1906081 	orrs	r6, r0, r1, lsl #1
   1215c:	01a00002 	moveq	r0, r2
   12160:	01a01003 	moveq	r1, r3
   12164:	11926083 	orrsne	r6, r2, r3, lsl #1
   12168:	0a000010 	beq	121b0 <__aeabi_dmul+0x280>
   1216c:	e134000c 	teq	r4, ip
   12170:	1a000001 	bne	1217c <__aeabi_dmul+0x24c>
   12174:	e1906601 	orrs	r6, r0, r1, lsl #12
   12178:	1a00000c 	bne	121b0 <__aeabi_dmul+0x280>
   1217c:	e135000c 	teq	r5, ip
   12180:	1a000003 	bne	12194 <__aeabi_dmul+0x264>
   12184:	e1926603 	orrs	r6, r2, r3, lsl #12
   12188:	11a00002 	movne	r0, r2
   1218c:	11a01003 	movne	r1, r3
   12190:	1a000006 	bne	121b0 <__aeabi_dmul+0x280>
   12194:	e0211003 	eor	r1, r1, r3
   12198:	e2011102 	and	r1, r1, #-2147483648	@ 0x80000000
   1219c:	e381147f 	orr	r1, r1, #2130706432	@ 0x7f000000
   121a0:	e381160f 	orr	r1, r1, #15728640	@ 0xf00000
   121a4:	e3a00000 	mov	r0, #0
   121a8:	e8bd4070 	pop	{r4, r5, r6, lr}
   121ac:	e12fff1e 	bx	lr
   121b0:	e381147f 	orr	r1, r1, #2130706432	@ 0x7f000000
   121b4:	e381173e 	orr	r1, r1, #16252928	@ 0xf80000
   121b8:	e8bd4070 	pop	{r4, r5, r6, lr}
   121bc:	e12fff1e 	bx	lr

000121c0 <__aeabi_ddiv>:
   121c0:	e92d4070 	push	{r4, r5, r6, lr}
   121c4:	e3a0c0ff 	mov	ip, #255	@ 0xff
   121c8:	e38ccc07 	orr	ip, ip, #1792	@ 0x700
   121cc:	e01c4a21 	ands	r4, ip, r1, lsr #20
   121d0:	101c5a23 	andsne	r5, ip, r3, lsr #20
   121d4:	1134000c 	teqne	r4, ip
   121d8:	1135000c 	teqne	r5, ip
   121dc:	0b00005e 	bleq	1235c <__aeabi_ddiv+0x19c>
   121e0:	e0444005 	sub	r4, r4, r5
   121e4:	e021e003 	eor	lr, r1, r3
   121e8:	e1925603 	orrs	r5, r2, r3, lsl #12
   121ec:	e1a01601 	lsl	r1, r1, #12
   121f0:	0a00004c 	beq	12328 <__aeabi_ddiv+0x168>
   121f4:	e1a03603 	lsl	r3, r3, #12
   121f8:	e3a05201 	mov	r5, #268435456	@ 0x10000000
   121fc:	e1853223 	orr	r3, r5, r3, lsr #4
   12200:	e1833c22 	orr	r3, r3, r2, lsr #24
   12204:	e1a02402 	lsl	r2, r2, #8
   12208:	e1855221 	orr	r5, r5, r1, lsr #4
   1220c:	e1855c20 	orr	r5, r5, r0, lsr #24
   12210:	e1a06400 	lsl	r6, r0, #8
   12214:	e20e1102 	and	r1, lr, #-2147483648	@ 0x80000000
   12218:	e1550003 	cmp	r5, r3
   1221c:	01560002 	cmpeq	r6, r2
   12220:	e2a440fd 	adc	r4, r4, #253	@ 0xfd
   12224:	e2844c03 	add	r4, r4, #768	@ 0x300
   12228:	2a000001 	bcs	12234 <__aeabi_ddiv+0x74>
   1222c:	e1b030a3 	lsrs	r3, r3, #1
   12230:	e1a02062 	rrx	r2, r2
   12234:	e0566002 	subs	r6, r6, r2
   12238:	e0c55003 	sbc	r5, r5, r3
   1223c:	e1b030a3 	lsrs	r3, r3, #1
   12240:	e1a02062 	rrx	r2, r2
   12244:	e3a00601 	mov	r0, #1048576	@ 0x100000
   12248:	e3a0c702 	mov	ip, #524288	@ 0x80000
   1224c:	e056e002 	subs	lr, r6, r2
   12250:	e0d5e003 	sbcs	lr, r5, r3
   12254:	20466002 	subcs	r6, r6, r2
   12258:	21a0500e 	movcs	r5, lr
   1225c:	2180000c 	orrcs	r0, r0, ip
   12260:	e1b030a3 	lsrs	r3, r3, #1
   12264:	e1a02062 	rrx	r2, r2
   12268:	e056e002 	subs	lr, r6, r2
   1226c:	e0d5e003 	sbcs	lr, r5, r3
   12270:	20466002 	subcs	r6, r6, r2
   12274:	21a0500e 	movcs	r5, lr
   12278:	218000ac 	orrcs	r0, r0, ip, lsr #1
   1227c:	e1b030a3 	lsrs	r3, r3, #1
   12280:	e1a02062 	rrx	r2, r2
   12284:	e056e002 	subs	lr, r6, r2
   12288:	e0d5e003 	sbcs	lr, r5, r3
   1228c:	20466002 	subcs	r6, r6, r2
   12290:	21a0500e 	movcs	r5, lr
   12294:	2180012c 	orrcs	r0, r0, ip, lsr #2
   12298:	e1b030a3 	lsrs	r3, r3, #1
   1229c:	e1a02062 	rrx	r2, r2
   122a0:	e056e002 	subs	lr, r6, r2
   122a4:	e0d5e003 	sbcs	lr, r5, r3
   122a8:	20466002 	subcs	r6, r6, r2
   122ac:	21a0500e 	movcs	r5, lr
   122b0:	218001ac 	orrcs	r0, r0, ip, lsr #3
   122b4:	e195e006 	orrs	lr, r5, r6
   122b8:	0a00000d 	beq	122f4 <__aeabi_ddiv+0x134>
   122bc:	e1a05205 	lsl	r5, r5, #4
   122c0:	e1855e26 	orr	r5, r5, r6, lsr #28
   122c4:	e1a06206 	lsl	r6, r6, #4
   122c8:	e1a03183 	lsl	r3, r3, #3
   122cc:	e1833ea2 	orr	r3, r3, r2, lsr #29
   122d0:	e1a02182 	lsl	r2, r2, #3
   122d4:	e1b0c22c 	lsrs	ip, ip, #4
   122d8:	1affffdb 	bne	1224c <__aeabi_ddiv+0x8c>
   122dc:	e3110601 	tst	r1, #1048576	@ 0x100000
   122e0:	1a000006 	bne	12300 <__aeabi_ddiv+0x140>
   122e4:	e1811000 	orr	r1, r1, r0
   122e8:	e3a00000 	mov	r0, #0
   122ec:	e3a0c102 	mov	ip, #-2147483648	@ 0x80000000
   122f0:	eaffffd5 	b	1224c <__aeabi_ddiv+0x8c>
   122f4:	e3110601 	tst	r1, #1048576	@ 0x100000
   122f8:	01811000 	orreq	r1, r1, r0
   122fc:	03a00000 	moveq	r0, #0
   12300:	e254c0fd 	subs	ip, r4, #253	@ 0xfd
   12304:	835c0c07 	cmphi	ip, #1792	@ 0x700
   12308:	8affff43 	bhi	1201c <__aeabi_dmul+0xec>
   1230c:	e055c003 	subs	ip, r5, r3
   12310:	0056c002 	subseq	ip, r6, r2
   12314:	01b0c0a0 	lsrseq	ip, r0, #1
   12318:	e2b00000 	adcs	r0, r0, #0
   1231c:	e0a11a04 	adc	r1, r1, r4, lsl #20
   12320:	e8bd4070 	pop	{r4, r5, r6, lr}
   12324:	e12fff1e 	bx	lr
   12328:	e20ee102 	and	lr, lr, #-2147483648	@ 0x80000000
   1232c:	e18e1621 	orr	r1, lr, r1, lsr #12
   12330:	e09440ac 	adds	r4, r4, ip, lsr #1
   12334:	c074500c 	rsbsgt	r5, r4, ip
   12338:	c1811a04 	orrgt	r1, r1, r4, lsl #20
   1233c:	c8bd4070 	popgt	{r4, r5, r6, lr}
   12340:	c12fff1e 	bxgt	lr
   12344:	e3811601 	orr	r1, r1, #1048576	@ 0x100000
   12348:	e3a0e000 	mov	lr, #0
   1234c:	e2544001 	subs	r4, r4, #1
   12350:	eaffff31 	b	1201c <__aeabi_dmul+0xec>
   12354:	e185e006 	orr	lr, r5, r6
   12358:	eaffff2f 	b	1201c <__aeabi_dmul+0xec>
   1235c:	e00c5a23 	and	r5, ip, r3, lsr #20
   12360:	e134000c 	teq	r4, ip
   12364:	0135000c 	teqeq	r5, ip
   12368:	0affff90 	beq	121b0 <__aeabi_dmul+0x280>
   1236c:	e134000c 	teq	r4, ip
   12370:	1a000006 	bne	12390 <__aeabi_ddiv+0x1d0>
   12374:	e1904601 	orrs	r4, r0, r1, lsl #12
   12378:	1affff8c 	bne	121b0 <__aeabi_dmul+0x280>
   1237c:	e135000c 	teq	r5, ip
   12380:	1affff83 	bne	12194 <__aeabi_dmul+0x264>
   12384:	e1a00002 	mov	r0, r2
   12388:	e1a01003 	mov	r1, r3
   1238c:	eaffff87 	b	121b0 <__aeabi_dmul+0x280>
   12390:	e135000c 	teq	r5, ip
   12394:	1a000004 	bne	123ac <__aeabi_ddiv+0x1ec>
   12398:	e1925603 	orrs	r5, r2, r3, lsl #12
   1239c:	0affff68 	beq	12144 <__aeabi_dmul+0x214>
   123a0:	e1a00002 	mov	r0, r2
   123a4:	e1a01003 	mov	r1, r3
   123a8:	eaffff80 	b	121b0 <__aeabi_dmul+0x280>
   123ac:	e1906081 	orrs	r6, r0, r1, lsl #1
   123b0:	11926083 	orrsne	r6, r2, r3, lsl #1
   123b4:	1affff48 	bne	120dc <__aeabi_dmul+0x1ac>
   123b8:	e1904081 	orrs	r4, r0, r1, lsl #1
   123bc:	1affff74 	bne	12194 <__aeabi_dmul+0x264>
   123c0:	e1925083 	orrs	r5, r2, r3, lsl #1
   123c4:	1affff5e 	bne	12144 <__aeabi_dmul+0x214>
   123c8:	eaffff78 	b	121b0 <__aeabi_dmul+0x280>

000123cc <__gedf2>:
   123cc:	e3e0c000 	mvn	ip, #0
   123d0:	ea000002 	b	123e0 <__cmpdf2+0x4>

000123d4 <__ledf2>:
   123d4:	e3a0c001 	mov	ip, #1
   123d8:	ea000000 	b	123e0 <__cmpdf2+0x4>

000123dc <__cmpdf2>:
   123dc:	e3a0c001 	mov	ip, #1
   123e0:	e52dc004 	push	{ip}		@ (str ip, [sp, #-4]!)
   123e4:	e1a0c081 	lsl	ip, r1, #1
   123e8:	e1f0cacc 	mvns	ip, ip, asr #21
   123ec:	e1a0c083 	lsl	ip, r3, #1
   123f0:	11f0cacc 	mvnsne	ip, ip, asr #21
   123f4:	0a00000e 	beq	12434 <__cmpdf2+0x58>
   123f8:	e28dd004 	add	sp, sp, #4
   123fc:	e190c081 	orrs	ip, r0, r1, lsl #1
   12400:	0192c083 	orrseq	ip, r2, r3, lsl #1
   12404:	11310003 	teqne	r1, r3
   12408:	01300002 	teqeq	r0, r2
   1240c:	03a00000 	moveq	r0, #0
   12410:	012fff1e 	bxeq	lr
   12414:	e3700000 	cmn	r0, #0
   12418:	e1310003 	teq	r1, r3
   1241c:	51510003 	cmppl	r1, r3
   12420:	01500002 	cmpeq	r0, r2
   12424:	21a00fc3 	asrcs	r0, r3, #31
   12428:	31e00fc3 	mvncc	r0, r3, asr #31
   1242c:	e3800001 	orr	r0, r0, #1
   12430:	e12fff1e 	bx	lr
   12434:	e1a0c081 	lsl	ip, r1, #1
   12438:	e1f0cacc 	mvns	ip, ip, asr #21
   1243c:	1a000001 	bne	12448 <__cmpdf2+0x6c>
   12440:	e190c601 	orrs	ip, r0, r1, lsl #12
   12444:	1a000004 	bne	1245c <__cmpdf2+0x80>
   12448:	e1a0c083 	lsl	ip, r3, #1
   1244c:	e1f0cacc 	mvns	ip, ip, asr #21
   12450:	1affffe8 	bne	123f8 <__cmpdf2+0x1c>
   12454:	e192c603 	orrs	ip, r2, r3, lsl #12
   12458:	0affffe6 	beq	123f8 <__cmpdf2+0x1c>
   1245c:	e49d0004 	pop	{r0}		@ (ldr r0, [sp], #4)
   12460:	e12fff1e 	bx	lr

00012464 <__aeabi_cdrcmple>:
   12464:	e1a0c000 	mov	ip, r0
   12468:	e1a00002 	mov	r0, r2
   1246c:	e1a0200c 	mov	r2, ip
   12470:	e1a0c001 	mov	ip, r1
   12474:	e1a01003 	mov	r1, r3
   12478:	e1a0300c 	mov	r3, ip
   1247c:	eaffffff 	b	12480 <__aeabi_cdcmpeq>

00012480 <__aeabi_cdcmpeq>:
   12480:	e92d4001 	push	{r0, lr}
   12484:	ebffffd4 	bl	123dc <__cmpdf2>
   12488:	e3500000 	cmp	r0, #0
   1248c:	43700000 	cmnmi	r0, #0
   12490:	e8bd4001 	pop	{r0, lr}
   12494:	e12fff1e 	bx	lr

00012498 <__aeabi_dcmpeq>:
   12498:	e52de008 	str	lr, [sp, #-8]!
   1249c:	ebfffff7 	bl	12480 <__aeabi_cdcmpeq>
   124a0:	03a00001 	moveq	r0, #1
   124a4:	13a00000 	movne	r0, #0
   124a8:	e49de008 	ldr	lr, [sp], #8
   124ac:	e12fff1e 	bx	lr

000124b0 <__aeabi_dcmplt>:
   124b0:	e52de008 	str	lr, [sp, #-8]!
   124b4:	ebfffff1 	bl	12480 <__aeabi_cdcmpeq>
   124b8:	33a00001 	movcc	r0, #1
   124bc:	23a00000 	movcs	r0, #0
   124c0:	e49de008 	ldr	lr, [sp], #8
   124c4:	e12fff1e 	bx	lr

000124c8 <__aeabi_dcmple>:
   124c8:	e52de008 	str	lr, [sp, #-8]!
   124cc:	ebffffeb 	bl	12480 <__aeabi_cdcmpeq>
   124d0:	93a00001 	movls	r0, #1
   124d4:	83a00000 	movhi	r0, #0
   124d8:	e49de008 	ldr	lr, [sp], #8
   124dc:	e12fff1e 	bx	lr

000124e0 <__aeabi_dcmpge>:
   124e0:	e52de008 	str	lr, [sp, #-8]!
   124e4:	ebffffde 	bl	12464 <__aeabi_cdrcmple>
   124e8:	93a00001 	movls	r0, #1
   124ec:	83a00000 	movhi	r0, #0
   124f0:	e49de008 	ldr	lr, [sp], #8
   124f4:	e12fff1e 	bx	lr

000124f8 <__aeabi_dcmpgt>:
   124f8:	e52de008 	str	lr, [sp, #-8]!
   124fc:	ebffffd8 	bl	12464 <__aeabi_cdrcmple>
   12500:	33a00001 	movcc	r0, #1
   12504:	23a00000 	movcs	r0, #0
   12508:	e49de008 	ldr	lr, [sp], #8
   1250c:	e12fff1e 	bx	lr

00012510 <__aeabi_dcmpun>:
   12510:	e1a0c081 	lsl	ip, r1, #1
   12514:	e1f0cacc 	mvns	ip, ip, asr #21
   12518:	1a000001 	bne	12524 <__aeabi_dcmpun+0x14>
   1251c:	e190c601 	orrs	ip, r0, r1, lsl #12
   12520:	1a000006 	bne	12540 <__aeabi_dcmpun+0x30>
   12524:	e1a0c083 	lsl	ip, r3, #1
   12528:	e1f0cacc 	mvns	ip, ip, asr #21
   1252c:	1a000001 	bne	12538 <__aeabi_dcmpun+0x28>
   12530:	e192c603 	orrs	ip, r2, r3, lsl #12
   12534:	1a000001 	bne	12540 <__aeabi_dcmpun+0x30>
   12538:	e3a00000 	mov	r0, #0
   1253c:	e12fff1e 	bx	lr
   12540:	e3a00001 	mov	r0, #1
   12544:	e12fff1e 	bx	lr

00012548 <__aeabi_d2iz>:
   12548:	e1a02081 	lsl	r2, r1, #1
   1254c:	e2922602 	adds	r2, r2, #2097152	@ 0x200000
   12550:	2a00000c 	bcs	12588 <__aeabi_d2iz+0x40>
   12554:	5a000009 	bpl	12580 <__aeabi_d2iz+0x38>
   12558:	e3e03e3e 	mvn	r3, #992	@ 0x3e0
   1255c:	e0532ac2 	subs	r2, r3, r2, asr #21
   12560:	9a00000a 	bls	12590 <__aeabi_d2iz+0x48>
   12564:	e1a03581 	lsl	r3, r1, #11
   12568:	e3833102 	orr	r3, r3, #-2147483648	@ 0x80000000
   1256c:	e1833aa0 	orr	r3, r3, r0, lsr #21
   12570:	e3110102 	tst	r1, #-2147483648	@ 0x80000000
   12574:	e1a00233 	lsr	r0, r3, r2
   12578:	12600000 	rsbne	r0, r0, #0
   1257c:	e12fff1e 	bx	lr
   12580:	e3a00000 	mov	r0, #0
   12584:	e12fff1e 	bx	lr
   12588:	e1900601 	orrs	r0, r0, r1, lsl #12
   1258c:	1a000002 	bne	1259c <__aeabi_d2iz+0x54>
   12590:	e2110102 	ands	r0, r1, #-2147483648	@ 0x80000000
   12594:	03e00102 	mvneq	r0, #-2147483648	@ 0x80000000
   12598:	e12fff1e 	bx	lr
   1259c:	e3a00000 	mov	r0, #0
   125a0:	e12fff1e 	bx	lr
